(lp0
(iweight
Weight
p1
(dp2
S'val'
p3
F-0.03658780600404705
sba(iweight
Weight
p4
(dp5
g3
F0.013533584870377804
sba(iweight
Weight
p6
(dp7
g3
F-0.019026837141915276
sba(iweight
Weight
p8
(dp9
g3
F-0.0003537209910511276
sba(iweight
Weight
p10
(dp11
g3
F-0.0076642832969177725
sba(iweight
Weight
p12
(dp13
g3
F0.042283778872659605
sba(iweight
Weight
p14
(dp15
g3
F0.04287262675424448
sba(iweight
Weight
p16
(dp17
g3
F0.020775638064216475
sba(iweight
Weight
p18
(dp19
g3
F0.026326220538397307
sba(iweight
Weight
p20
(dp21
g3
F-0.008217036056292138
sba(iweight
Weight
p22
(dp23
g3
F-0.025910728372841887
sba(iweight
Weight
p24
(dp25
g3
F0.02564927146332044
sba(iweight
Weight
p26
(dp27
g3
F0.03456947829839594
sba(iweight
Weight
p28
(dp29
g3
F0.01915630438904763
sba(iweight
Weight
p30
(dp31
g3
F-0.020005372203514556
sba(iweight
Weight
p32
(dp33
g3
F-0.02752118618985963
sba(iweight
Weight
p34
(dp35
g3
F0.007911842225829057
sba(iweight
Weight
p36
(dp37
g3
F-0.018824301761468806
sba(iweight
Weight
p38
(dp39
g3
F0.005029231184205463
sba(iweight
Weight
p40
(dp41
g3
F-0.05190588520313219
sba(iweight
Weight
p42
(dp43
g3
F-0.003978887071255993
sba(iweight
Weight
p44
(dp45
g3
F-0.02190046533034334
sba(iweight
Weight
p46
(dp47
g3
F0.036203325202070695
sba(iweight
Weight
p48
(dp49
g3
F-0.037076092911189906
sba(iweight
Weight
p50
(dp51
g3
F-0.017030188740029473
sba(iweight
Weight
p52
(dp53
g3
F0.028843077515584202
sba(iweight
Weight
p54
(dp55
g3
F0.04910047832906707
sba(iweight
Weight
p56
(dp57
g3
F-0.02418111449064485
sba(iweight
Weight
p58
(dp59
g3
F0.03837652618993159
sba(iweight
Weight
p60
(dp61
g3
F-0.051937507816148754
sba(iweight
Weight
p62
(dp63
g3
F-0.01178505439076561
sba(iweight
Weight
p64
(dp65
g3
F0.027068097382013583
sba(iweight
Weight
p66
(dp67
g3
F-0.038384578275464515
sba(iweight
Weight
p68
(dp69
g3
F0.020807813106631937
sba(iweight
Weight
p70
(dp71
g3
F-0.0020313742741986836
sba(iweight
Weight
p72
(dp73
g3
F0.030643815134012767
sba(iweight
Weight
p74
(dp75
g3
F-0.01790365694857512
sba(iweight
Weight
p76
(dp77
g3
F-0.011158628951890763
sba(iweight
Weight
p78
(dp79
g3
F0.0214582418181783
sba(iweight
Weight
p80
(dp81
g3
F0.01289769630667567
sba(iweight
Weight
p82
(dp83
g3
F-0.06215873726704658
sba(iweight
Weight
p84
(dp85
g3
F0.0105690551679514
sba(iweight
Weight
p86
(dp87
g3
F0.03518481903494547
sba(iweight
Weight
p88
(dp89
g3
F0.026112547062818948
sba(iweight
Weight
p90
(dp91
g3
F-0.019827923288430523
sba(iweight
Weight
p92
(dp93
g3
F0.037745643932541206
sba(iweight
Weight
p94
(dp95
g3
F-0.003583381670131581
sba(iweight
Weight
p96
(dp97
g3
F-0.01725039547238868
sba(iweight
Weight
p98
(dp99
g3
F0.007858842439264168
sba(iweight
Weight
p100
(dp101
g3
F0.011085766069047223
sba(iweight
Weight
p102
(dp103
g3
F0.044400025612000064
sba(iweight
Weight
p104
(dp105
g3
F-0.009764089799498015
sba(iweight
Weight
p106
(dp107
g3
F0.014205049209106178
sba(iweight
Weight
p108
(dp109
g3
F-0.05176348209433637
sba(iweight
Weight
p110
(dp111
g3
F-0.011538447252518947
sba(iweight
Weight
p112
(dp113
g3
F-0.008558905577262726
sba(iweight
Weight
p114
(dp115
g3
F0.042340812024758215
sba(iweight
Weight
p116
(dp117
g3
F-0.06293034545875224
sba(iweight
Weight
p118
(dp119
g3
F0.05049698022619757
sba(iweight
Weight
p120
(dp121
g3
F0.02563982419518067
sba(iweight
Weight
p122
(dp123
g3
F0.007166788741561928
sba(iweight
Weight
p124
(dp125
g3
F0.02109873481429848
sba(iweight
Weight
p126
(dp127
g3
F0.03798600790452762
sba(iweight
Weight
p128
(dp129
g3
F0.02249746906000274
sba(iweight
Weight
p130
(dp131
g3
F0.012423038941212737
sba(iweight
Weight
p132
(dp133
g3
F0.04239453929388689
sba(iweight
Weight
p134
(dp135
g3
F-0.023658455631892124
sba(iweight
Weight
p136
(dp137
g3
F0.04431296343137243
sba(iweight
Weight
p138
(dp139
g3
F-0.015339039298734833
sba(iweight
Weight
p140
(dp141
g3
F0.000513003177554784
sba(iweight
Weight
p142
(dp143
g3
F0.003873071608218615
sba(iweight
Weight
p144
(dp145
g3
F0.03900627174307114
sba(iweight
Weight
p146
(dp147
g3
F0.0007056018355465464
sba(iweight
Weight
p148
(dp149
g3
F0.001582069225783145
sba(iweight
Weight
p150
(dp151
g3
F-0.03804528331670698
sba(iweight
Weight
p152
(dp153
g3
F0.01715895593499486
sba(iweight
Weight
p154
(dp155
g3
F0.0007910538763267477
sba(iweight
Weight
p156
(dp157
g3
F0.04076081521373812
sba(iweight
Weight
p158
(dp159
g3
F-0.05397221211389
sba(iweight
Weight
p160
(dp161
g3
F-0.018224495837698095
sba(iweight
Weight
p162
(dp163
g3
F-0.07566040470376803
sba(iweight
Weight
p164
(dp165
g3
F0.005804279643583223
sba(iweight
Weight
p166
(dp167
g3
F0.006065470652229998
sba(iweight
Weight
p168
(dp169
g3
F0.037848950532448446
sba(iweight
Weight
p170
(dp171
g3
F0.01887399278237286
sba(iweight
Weight
p172
(dp173
g3
F-0.04422196925462842
sba(iweight
Weight
p174
(dp175
g3
F0.04240974129782823
sba(iweight
Weight
p176
(dp177
g3
F0.008626331659542415
sba(iweight
Weight
p178
(dp179
g3
F0.03979013206593585
sba(iweight
Weight
p180
(dp181
g3
F-0.04188332208954261
sba(iweight
Weight
p182
(dp183
g3
F0.02484133295996429
sba(iweight
Weight
p184
(dp185
g3
F-0.0001784327830101236
sba(iweight
Weight
p186
(dp187
g3
F-0.008638995723780983
sba(iweight
Weight
p188
(dp189
g3
F0.029779203911116797
sba(iweight
Weight
p190
(dp191
g3
F0.03202505224311026
sba(iweight
Weight
p192
(dp193
g3
F0.011660610552869837
sba(iweight
Weight
p194
(dp195
g3
F-0.02331194771638206
sba(iweight
Weight
p196
(dp197
g3
F0.005992374104251781
sba(iweight
Weight
p198
(dp199
g3
F0.04281372522588634
sba(iweight
Weight
p200
(dp201
g3
F-0.009183768586991105
sba(iweight
Weight
p202
(dp203
g3
F0.030937417530942236
sba(iweight
Weight
p204
(dp205
g3
F-0.028895071953335523
sba(iweight
Weight
p206
(dp207
g3
F0.03423158813396016
sba(iweight
Weight
p208
(dp209
g3
F-0.02738109629216193
sba(iweight
Weight
p210
(dp211
g3
F0.011652227989531621
sba(iweight
Weight
p212
(dp213
g3
F0.032197024410003376
sba(iweight
Weight
p214
(dp215
g3
F0.038681429531807955
sba(iweight
Weight
p216
(dp217
g3
F0.023456592830961298
sba(iweight
Weight
p218
(dp219
g3
F-0.019067300688759014
sba(iweight
Weight
p220
(dp221
g3
F-0.05649381535086413
sba(iweight
Weight
p222
(dp223
g3
F0.0390414714949376
sba(iweight
Weight
p224
(dp225
g3
F-0.048712850163055536
sba(iweight
Weight
p226
(dp227
g3
F-0.01299384048556865
sba(iweight
Weight
p228
(dp229
g3
F-0.04022606773457924
sba(iweight
Weight
p230
(dp231
g3
F-0.017923564139237597
sba(iweight
Weight
p232
(dp233
g3
F-0.009603526266530637
sba(iweight
Weight
p234
(dp235
g3
F0.004561969018870759
sba(iweight
Weight
p236
(dp237
g3
F0.03216606522834
sba(iweight
Weight
p238
(dp239
g3
F-0.04012578511669469
sba(iweight
Weight
p240
(dp241
g3
F0.016937132515165237
sba(iweight
Weight
p242
(dp243
g3
F0.045966851311355514
sba(iweight
Weight
p244
(dp245
g3
F0.03886187452153577
sba(iweight
Weight
p246
(dp247
g3
F0.039467889776759246
sba(iweight
Weight
p248
(dp249
g3
F-0.03450902562008735
sba(iweight
Weight
p250
(dp251
g3
F-0.0027717186145627226
sba(iweight
Weight
p252
(dp253
g3
F-0.017512061589770422
sba(iweight
Weight
p254
(dp255
g3
F-0.005800157823671601
sba(iweight
Weight
p256
(dp257
g3
F0.034885721448471484
sba(iweight
Weight
p258
(dp259
g3
F-0.020434243277734524
sba(iweight
Weight
p260
(dp261
g3
F0.015233290673691686
sba(iweight
Weight
p262
(dp263
g3
F-0.007061671951759138
sba(iweight
Weight
p264
(dp265
g3
F0.006951209226805732
sba(iweight
Weight
p266
(dp267
g3
F0.040912386877735706
sba(iweight
Weight
p268
(dp269
g3
F-0.041037322895909244
sba(iweight
Weight
p270
(dp271
g3
F0.04683707433377612
sba(iweight
Weight
p272
(dp273
g3
F0.047140151352774086
sba(iweight
Weight
p274
(dp275
g3
F0.004819544015846631
sba(iweight
Weight
p276
(dp277
g3
F0.05859861353958661
sba(iweight
Weight
p278
(dp279
g3
F-0.04954677593415088
sba(iweight
Weight
p280
(dp281
g3
F0.05309333015664913
sba(iweight
Weight
p282
(dp283
g3
F0.004402405758866846
sba(iweight
Weight
p284
(dp285
g3
F0.0042088509009350974
sba(iweight
Weight
p286
(dp287
g3
F0.04870691723536001
sba(iweight
Weight
p288
(dp289
g3
F-0.03499256947955047
sba(iweight
Weight
p290
(dp291
g3
F0.03805434495845115
sba(iweight
Weight
p292
(dp293
g3
F0.017288233009514212
sba(iweight
Weight
p294
(dp295
g3
F0.02143377583133755
sba(iweight
Weight
p296
(dp297
g3
F-0.03847027342084728
sba(iweight
Weight
p298
(dp299
g3
F0.02583183762607942
sba(iweight
Weight
p300
(dp301
g3
F-0.02438628255312238
sba(iweight
Weight
p302
(dp303
g3
F0.019044587586948433
sba(iweight
Weight
p304
(dp305
g3
F-0.01642398919702019
sba(iweight
Weight
p306
(dp307
g3
F0.030394684135959197
sba(iweight
Weight
p308
(dp309
g3
F-0.016023428024985045
sba(iweight
Weight
p310
(dp311
g3
F0.04619684379706169
sba(iweight
Weight
p312
(dp313
g3
F0.046978654330188295
sba(iweight
Weight
p314
(dp315
g3
F0.012416592662061516
sba(iweight
Weight
p316
(dp317
g3
F0.005932808427929495
sba(iweight
Weight
p318
(dp319
g3
F-0.025855047897972726
sba(iweight
Weight
p320
(dp321
g3
F-0.014585510783537321
sba(iweight
Weight
p322
(dp323
g3
F-0.011909226712957422
sba(iweight
Weight
p324
(dp325
g3
F-0.05176734470335536
sba(iweight
Weight
p326
(dp327
g3
F-0.014623640812952487
sba(iweight
Weight
p328
(dp329
g3
F-0.05367290833798634
sba(iweight
Weight
p330
(dp331
g3
F0.05329559408032712
sba(iweight
Weight
p332
(dp333
g3
F0.03899875288158405
sba(iweight
Weight
p334
(dp335
g3
F0.0005808639936202857
sba(iweight
Weight
p336
(dp337
g3
F-0.0524663175840685
sba(iweight
Weight
p338
(dp339
g3
F-0.030044697794347437
sba(iweight
Weight
p340
(dp341
g3
F0.052362605801481756
sba(iweight
Weight
p342
(dp343
g3
F0.0007094055853812519
sba(iweight
Weight
p344
(dp345
g3
F-0.00843069456660176
sba(iweight
Weight
p346
(dp347
g3
F-0.028363991427947648
sba(iweight
Weight
p348
(dp349
g3
F-0.030365635901452803
sba(iweight
Weight
p350
(dp351
g3
F-0.047328709963692955
sba(iweight
Weight
p352
(dp353
g3
F0.012699213505931718
sba(iweight
Weight
p354
(dp355
g3
F0.014752790747154215
sba(iweight
Weight
p356
(dp357
g3
F0.01051081736398807
sba(iweight
Weight
p358
(dp359
g3
F-0.047562971338250506
sba(iweight
Weight
p360
(dp361
g3
F-0.0018389686240096671
sba(iweight
Weight
p362
(dp363
g3
F0.0045726072865229185
sba(iweight
Weight
p364
(dp365
g3
F0.04028043553535844
sba(iweight
Weight
p366
(dp367
g3
F0.0282021267997024
sba(iweight
Weight
p368
(dp369
g3
F0.03952377472510196
sba(iweight
Weight
p370
(dp371
g3
F0.03417080222190979
sba(iweight
Weight
p372
(dp373
g3
F0.013667308131172
sba(iweight
Weight
p374
(dp375
g3
F-0.02561445209107005
sba(iweight
Weight
p376
(dp377
g3
F-0.010948489861618478
sba(iweight
Weight
p378
(dp379
g3
F-0.014622989351286272
sba(iweight
Weight
p380
(dp381
g3
F-0.017629507622115546
sba(iweight
Weight
p382
(dp383
g3
F0.01277276840627073
sba(iweight
Weight
p384
(dp385
g3
F-0.02706624613216278
sba(iweight
Weight
p386
(dp387
g3
F-0.02342389006204321
sba(iweight
Weight
p388
(dp389
g3
F0.003772972849860506
sba(iweight
Weight
p390
(dp391
g3
F0.010634278010290092
sba(iweight
Weight
p392
(dp393
g3
F0.03568905121893756
sba(iweight
Weight
p394
(dp395
g3
F0.02089191462520972
sba(iweight
Weight
p396
(dp397
g3
F0.04105972519935336
sba(iweight
Weight
p398
(dp399
g3
F-0.016762688284740767
sba(iweight
Weight
p400
(dp401
g3
F-0.017909046439182837
sba(iweight
Weight
p402
(dp403
g3
F-0.013951405054561508
sba(iweight
Weight
p404
(dp405
g3
F0.012981924206596383
sba(iweight
Weight
p406
(dp407
g3
F-0.05876581687501285
sba(iweight
Weight
p408
(dp409
g3
F-0.007735953068678466
sba(iweight
Weight
p410
(dp411
g3
F-0.036051004089596335
sba(iweight
Weight
p412
(dp413
g3
F0.0017469980730974036
sba(iweight
Weight
p414
(dp415
g3
F0.01217070389354862
sba(iweight
Weight
p416
(dp417
g3
F-0.002965835293238306
sba(iweight
Weight
p418
(dp419
g3
F-0.006211283589106616
sba(iweight
Weight
p420
(dp421
g3
F0.013610237427337546
sba(iweight
Weight
p422
(dp423
g3
F0.02278476981770946
sba(iweight
Weight
p424
(dp425
g3
F-0.02731271391892163
sba(iweight
Weight
p426
(dp427
g3
F-0.04939136042423206
sba(iweight
Weight
p428
(dp429
g3
F-0.02672563691436764
sba(iweight
Weight
p430
(dp431
g3
F-0.002432931177632
sba(iweight
Weight
p432
(dp433
g3
F0.041886162350857285
sba(iweight
Weight
p434
(dp435
g3
F-0.02396679795121779
sba(iweight
Weight
p436
(dp437
g3
F0.04320588083305186
sba(iweight
Weight
p438
(dp439
g3
F-0.050153670246935914
sba(iweight
Weight
p440
(dp441
g3
F-0.053523878463295246
sba(iweight
Weight
p442
(dp443
g3
F-0.044595318721656105
sba(iweight
Weight
p444
(dp445
g3
F-0.01143113752609908
sba(iweight
Weight
p446
(dp447
g3
F0.05140173503842814
sba(iweight
Weight
p448
(dp449
g3
F0.04663637736652734
sba(iweight
Weight
p450
(dp451
g3
F-0.028208342819565226
sba(iweight
Weight
p452
(dp453
g3
F-0.03942611983637737
sba(iweight
Weight
p454
(dp455
g3
F0.03979091063448032
sba(iweight
Weight
p456
(dp457
g3
F-0.004086396217931799
sba(iweight
Weight
p458
(dp459
g3
F0.012620964525881791
sba(iweight
Weight
p460
(dp461
g3
F0.056198314584180044
sba(iweight
Weight
p462
(dp463
g3
F-0.023161615725032298
sba(iweight
Weight
p464
(dp465
g3
F-0.039913865447438183
sba(iweight
Weight
p466
(dp467
g3
F-0.022317405742404844
sba(iweight
Weight
p468
(dp469
g3
F0.04975680729709063
sba(iweight
Weight
p470
(dp471
g3
F0.05607841490564132
sba(iweight
Weight
p472
(dp473
g3
F-0.019987378985750696
sba(iweight
Weight
p474
(dp475
g3
F0.036899641871014875
sba(iweight
Weight
p476
(dp477
g3
F0.0499656372515957
sba(iweight
Weight
p478
(dp479
g3
F-0.009395498281714699
sba(iweight
Weight
p480
(dp481
g3
F0.030414345019523538
sba(iweight
Weight
p482
(dp483
g3
F0.008545874075497869
sba(iweight
Weight
p484
(dp485
g3
F0.03394224715729976
sba(iweight
Weight
p486
(dp487
g3
F-0.02244135656819738
sba(iweight
Weight
p488
(dp489
g3
F-0.023132753463311666
sba(iweight
Weight
p490
(dp491
g3
F0.030688485933026005
sba(iweight
Weight
p492
(dp493
g3
F0.046546993526844056
sba(iweight
Weight
p494
(dp495
g3
F-0.006477372491999237
sba(iweight
Weight
p496
(dp497
g3
F0.02569759832430694
sba(iweight
Weight
p498
(dp499
g3
F-0.015209595480377057
sba(iweight
Weight
p500
(dp501
g3
F0.01588486824992804
sba(iweight
Weight
p502
(dp503
g3
F-0.027579900735800793
sba(iweight
Weight
p504
(dp505
g3
F-0.04550048154843854
sba(iweight
Weight
p506
(dp507
g3
F0.05436615372574853
sba(iweight
Weight
p508
(dp509
g3
F-0.044449598697293806
sba(iweight
Weight
p510
(dp511
g3
F0.00016827854905723854
sba(iweight
Weight
p512
(dp513
g3
F-0.01868726668125996
sba(iweight
Weight
p514
(dp515
g3
F0.055407235883624804
sba(iweight
Weight
p516
(dp517
g3
F0.011223887008227114
sba(iweight
Weight
p518
(dp519
g3
F-0.04032021658324963
sba(iweight
Weight
p520
(dp521
g3
F-0.05087611295769681
sba(iweight
Weight
p522
(dp523
g3
F0.026661464859564266
sba(iweight
Weight
p524
(dp525
g3
F0.023458291250982206
sba(iweight
Weight
p526
(dp527
g3
F-0.03062397726984227
sba(iweight
Weight
p528
(dp529
g3
F-0.011466929143965339
sba(iweight
Weight
p530
(dp531
g3
F-0.017955852803499168
sba(iweight
Weight
p532
(dp533
g3
F0.041319806021727946
sba(iweight
Weight
p534
(dp535
g3
F0.01587206978610226
sba(iweight
Weight
p536
(dp537
g3
F0.06086258243905763
sba(iweight
Weight
p538
(dp539
g3
F0.022076744653461263
sba(iweight
Weight
p540
(dp541
g3
F0.02423036931057987
sba(iweight
Weight
p542
(dp543
g3
F0.023434593549126508
sba(iweight
Weight
p544
(dp545
g3
F0.026051297140859447
sba(iweight
Weight
p546
(dp547
g3
F0.032285344116672075
sba(iweight
Weight
p548
(dp549
g3
F0.01117217414612927
sba(iweight
Weight
p550
(dp551
g3
F-0.0034316192587214014
sba(iweight
Weight
p552
(dp553
g3
F-0.020446693032246603
sba(iweight
Weight
p554
(dp555
g3
F-0.029260213060921976
sba(iweight
Weight
p556
(dp557
g3
F0.05651108984673883
sba(iweight
Weight
p558
(dp559
g3
F-0.041648086880777584
sba(iweight
Weight
p560
(dp561
g3
F-0.01032021446623358
sba(iweight
Weight
p562
(dp563
g3
F0.016154988465904394
sba(iweight
Weight
p564
(dp565
g3
F-0.007603548898000176
sba(iweight
Weight
p566
(dp567
g3
F0.04830521520262538
sba(iweight
Weight
p568
(dp569
g3
F-0.01154689327063188
sba(iweight
Weight
p570
(dp571
g3
F0.02661271302326782
sba(iweight
Weight
p572
(dp573
g3
F-0.03548875178588536
sba(iweight
Weight
p574
(dp575
g3
F0.008490681728529046
sba(iweight
Weight
p576
(dp577
g3
F-0.0060180377483377585
sba(iweight
Weight
p578
(dp579
g3
F0.039117978170818864
sba(iweight
Weight
p580
(dp581
g3
F-0.005949399011350342
sba(iweight
Weight
p582
(dp583
g3
F0.032464649554470176
sba(iweight
Weight
p584
(dp585
g3
F0.02727442140442161
sba(iweight
Weight
p586
(dp587
g3
F0.004751566349597404
sba(iweight
Weight
p588
(dp589
g3
F-0.035599804591955816
sba(iweight
Weight
p590
(dp591
g3
F-0.003486829590016748
sba(iweight
Weight
p592
(dp593
g3
F0.05049262211169748
sba(iweight
Weight
p594
(dp595
g3
F-0.00538003007190895
sba(iweight
Weight
p596
(dp597
g3
F-0.009623735136374906
sba(iweight
Weight
p598
(dp599
g3
F-0.03795442793426273
sba(iweight
Weight
p600
(dp601
g3
F-0.01628680236875667
sba(iweight
Weight
p602
(dp603
g3
F-0.01822713990884151
sba(iweight
Weight
p604
(dp605
g3
F-0.0367655079313371
sba(iweight
Weight
p606
(dp607
g3
F-0.04348650383438937
sba(iweight
Weight
p608
(dp609
g3
F-0.06417125916077111
sba(iweight
Weight
p610
(dp611
g3
F0.024072519558335823
sba(iweight
Weight
p612
(dp613
g3
F0.026584731261577996
sba(iweight
Weight
p614
(dp615
g3
F-0.0024845454458180586
sba(iweight
Weight
p616
(dp617
g3
F-0.005641199346401962
sba(iweight
Weight
p618
(dp619
g3
F0.0364151575102617
sba(iweight
Weight
p620
(dp621
g3
F-0.003602128397491189
sba(iweight
Weight
p622
(dp623
g3
F-0.02897767134363022
sba(iweight
Weight
p624
(dp625
g3
F-0.037755744810511985
sba(iweight
Weight
p626
(dp627
g3
F-0.00544166551807776
sba(iweight
Weight
p628
(dp629
g3
F-0.06220414699610887
sba(iweight
Weight
p630
(dp631
g3
F-0.030267622523219795
sba(iweight
Weight
p632
(dp633
g3
F0.0033289441909421635
sba(iweight
Weight
p634
(dp635
g3
F0.04337721979759305
sba(iweight
Weight
p636
(dp637
g3
F0.0339878100867393
sba(iweight
Weight
p638
(dp639
g3
F0.026178192455715513
sba(iweight
Weight
p640
(dp641
g3
F0.04588643669397204
sba(iweight
Weight
p642
(dp643
g3
F-0.05267364453059269
sba(iweight
Weight
p644
(dp645
g3
F-0.018703354688899297
sba(iweight
Weight
p646
(dp647
g3
F0.01749187711014778
sba(iweight
Weight
p648
(dp649
g3
F-0.049214612740650227
sba(iweight
Weight
p650
(dp651
g3
F0.025059006164964318
sba(iweight
Weight
p652
(dp653
g3
F-0.008783802855473413
sba(iweight
Weight
p654
(dp655
g3
F0.03599606652106077
sba(iweight
Weight
p656
(dp657
g3
F0.03153716593402839
sba(iweight
Weight
p658
(dp659
g3
F-0.028588219214230094
sba(iweight
Weight
p660
(dp661
g3
F-0.019454587493176637
sba(iweight
Weight
p662
(dp663
g3
F-0.016619967313919792
sba(iweight
Weight
p664
(dp665
g3
F-0.025625131932743322
sba(iweight
Weight
p666
(dp667
g3
F0.023976933895227877
sba(iweight
Weight
p668
(dp669
g3
F-0.03135485161547497
sba(iweight
Weight
p670
(dp671
g3
F0.001165614449908041
sba(iweight
Weight
p672
(dp673
g3
F0.02950693886287945
sba(iweight
Weight
p674
(dp675
g3
F-0.022838329495303726
sba(iweight
Weight
p676
(dp677
g3
F0.04778598493998416
sba(iweight
Weight
p678
(dp679
g3
F0.036770386255601153
sba(iweight
Weight
p680
(dp681
g3
F0.03427748888790321
sba(iweight
Weight
p682
(dp683
g3
F0.00998206292025275
sba(iweight
Weight
p684
(dp685
g3
F-0.02746250656203346
sba(iweight
Weight
p686
(dp687
g3
F-0.030318027244597087
sba(iweight
Weight
p688
(dp689
g3
F-0.0480117989965371
sba(iweight
Weight
p690
(dp691
g3
F0.01807009591801683
sba(iweight
Weight
p692
(dp693
g3
F-0.021260797499305446
sba(iweight
Weight
p694
(dp695
g3
F-0.013732601808687104
sba(iweight
Weight
p696
(dp697
g3
F0.019915822671945152
sba(iweight
Weight
p698
(dp699
g3
F-0.04093427650720737
sba(iweight
Weight
p700
(dp701
g3
F0.02429845976582794
sba(iweight
Weight
p702
(dp703
g3
F-0.013239235732703542
sba(iweight
Weight
p704
(dp705
g3
F-0.04489718614221926
sba(iweight
Weight
p706
(dp707
g3
F-0.040987563382048
sba(iweight
Weight
p708
(dp709
g3
F0.014535321292159026
sba(iweight
Weight
p710
(dp711
g3
F0.04309267501598016
sba(iweight
Weight
p712
(dp713
g3
F-0.01470114098503751
sba(iweight
Weight
p714
(dp715
g3
F0.0068341456952872685
sba(iweight
Weight
p716
(dp717
g3
F0.05915097395613643
sba(iweight
Weight
p718
(dp719
g3
F-0.0432353288378728
sba(iweight
Weight
p720
(dp721
g3
F-0.05240684211902197
sba(iweight
Weight
p722
(dp723
g3
F-0.0054411561785210815
sba(iweight
Weight
p724
(dp725
g3
F0.0021974638852157195
sba(iweight
Weight
p726
(dp727
g3
F0.05018605310337309
sba(iweight
Weight
p728
(dp729
g3
F0.03641214785100596
sba(iweight
Weight
p730
(dp731
g3
F0.041151437223988785
sba(iweight
Weight
p732
(dp733
g3
F-0.015674094503655745
sba(iweight
Weight
p734
(dp735
g3
F-0.008194154544535403
sba(iweight
Weight
p736
(dp737
g3
F-0.02853731757556333
sba(iweight
Weight
p738
(dp739
g3
F-0.013256324671161987
sba(iweight
Weight
p740
(dp741
g3
F-0.01835206965794235
sba(iweight
Weight
p742
(dp743
g3
F-0.019780867436263564
sba(iweight
Weight
p744
(dp745
g3
F-0.011354409257677864
sba(iweight
Weight
p746
(dp747
g3
F-0.007169669715728641
sba(iweight
Weight
p748
(dp749
g3
F-0.045282792197285725
sba(iweight
Weight
p750
(dp751
g3
F0.014927791291460784
sba(iweight
Weight
p752
(dp753
g3
F-0.04212480221503419
sba(iweight
Weight
p754
(dp755
g3
F0.019243460661511308
sba(iweight
Weight
p756
(dp757
g3
F0.032327875580672724
sba(iweight
Weight
p758
(dp759
g3
F-0.04052241560489947
sba(iweight
Weight
p760
(dp761
g3
F-0.04478737198295518
sba(iweight
Weight
p762
(dp763
g3
F-0.0005089953727992632
sba(iweight
Weight
p764
(dp765
g3
F-0.021815436150103715
sba(iweight
Weight
p766
(dp767
g3
F-0.03812246816273394
sba(iweight
Weight
p768
(dp769
g3
F-0.008932148488950298
sba(iweight
Weight
p770
(dp771
g3
F0.03222316955997354
sba(iweight
Weight
p772
(dp773
g3
F0.03550290542511899
sba(iweight
Weight
p774
(dp775
g3
F0.02624059778426352
sba(iweight
Weight
p776
(dp777
g3
F-0.031040140732845087
sba(iweight
Weight
p778
(dp779
g3
F0.01827416788372901
sba(iweight
Weight
p780
(dp781
g3
F-0.00817965298407464
sba(iweight
Weight
p782
(dp783
g3
F0.050736228239990556
sba(iweight
Weight
p784
(dp785
g3
F0.002325497514894374
sba(iweight
Weight
p786
(dp787
g3
F-0.03626050492309739
sba(iweight
Weight
p788
(dp789
g3
F0.034083796425767164
sba(iweight
Weight
p790
(dp791
g3
F0.00251181059470137
sba(iweight
Weight
p792
(dp793
g3
F0.05024337067944844
sba(iweight
Weight
p794
(dp795
g3
F0.04203750459097439
sba(iweight
Weight
p796
(dp797
g3
F-0.029427288347262347
sba(iweight
Weight
p798
(dp799
g3
F-0.00911348700242089
sba(iweight
Weight
p800
(dp801
g3
F-0.04737107041164084
sba(iweight
Weight
p802
(dp803
g3
F0.04305795528129321
sba(iweight
Weight
p804
(dp805
g3
F0.03875235112021494
sba(iweight
Weight
p806
(dp807
g3
F-0.008108781558810941
sba(iweight
Weight
p808
(dp809
g3
F-0.011536545997868332
sba(iweight
Weight
p810
(dp811
g3
F-0.046169218452830965
sba(iweight
Weight
p812
(dp813
g3
F-0.015655921722389107
sba(iweight
Weight
p814
(dp815
g3
F0.04408158496031988
sba(iweight
Weight
p816
(dp817
g3
F0.033571307794355805
sba(iweight
Weight
p818
(dp819
g3
F0.013862704856273398
sba(iweight
Weight
p820
(dp821
g3
F-0.03767771257788071
sba(iweight
Weight
p822
(dp823
g3
F-0.007704963226565341
sba(iweight
Weight
p824
(dp825
g3
F-0.03964619667001163
sba(iweight
Weight
p826
(dp827
g3
F-0.019935022770360175
sba(iweight
Weight
p828
(dp829
g3
F-0.032354460118164036
sba(iweight
Weight
p830
(dp831
g3
F-0.04444466225048543
sba(iweight
Weight
p832
(dp833
g3
F0.020894442737415492
sba(iweight
Weight
p834
(dp835
g3
F-0.01384403799509619
sba(iweight
Weight
p836
(dp837
g3
F0.03949764111960433
sba(iweight
Weight
p838
(dp839
g3
F0.04974763452027139
sba(iweight
Weight
p840
(dp841
g3
F0.013976586590991455
sba(iweight
Weight
p842
(dp843
g3
F0.017072552018949055
sba(iweight
Weight
p844
(dp845
g3
F0.007573454732301971
sba(iweight
Weight
p846
(dp847
g3
F-0.019284958886286674
sba(iweight
Weight
p848
(dp849
g3
F0.00557341422204726
sba(iweight
Weight
p850
(dp851
g3
F0.05128562867943606
sba(iweight
Weight
p852
(dp853
g3
F-0.025048828071804835
sba(iweight
Weight
p854
(dp855
g3
F0.04238997343064302
sba(iweight
Weight
p856
(dp857
g3
F-0.003977214284649366
sba(iweight
Weight
p858
(dp859
g3
F-0.027983342202872467
sba(iweight
Weight
p860
(dp861
g3
F0.03099175826232796
sba(iweight
Weight
p862
(dp863
g3
F0.02637269711564228
sba(iweight
Weight
p864
(dp865
g3
F0.010194047450920047
sba(iweight
Weight
p866
(dp867
g3
F0.039174575244095955
sba(iweight
Weight
p868
(dp869
g3
F0.037641726114582136
sba(iweight
Weight
p870
(dp871
g3
F-0.056102741945950864
sba(iweight
Weight
p872
(dp873
g3
F-0.014059306125585572
sba(iweight
Weight
p874
(dp875
g3
F-0.04114531450240732
sba(iweight
Weight
p876
(dp877
g3
F0.022988040476437
sba(iweight
Weight
p878
(dp879
g3
F-0.03627065116247418
sba(iweight
Weight
p880
(dp881
g3
F0.030506907414669663
sba(iweight
Weight
p882
(dp883
g3
F0.053540521701187324
sba(iweight
Weight
p884
(dp885
g3
F-0.038673324087837156
sba(iweight
Weight
p886
(dp887
g3
F0.03277906174010211
sba(iweight
Weight
p888
(dp889
g3
F0.02267158709841507
sba(iweight
Weight
p890
(dp891
g3
F0.0012632286313935474
sba(iweight
Weight
p892
(dp893
g3
F0.0208741802537746
sba(iweight
Weight
p894
(dp895
g3
F0.033794612924432366
sba(iweight
Weight
p896
(dp897
g3
F-0.024031051961047073
sba(iweight
Weight
p898
(dp899
g3
F0.04054514066085152
sba(iweight
Weight
p900
(dp901
g3
F-0.02995367161951177
sba(iweight
Weight
p902
(dp903
g3
F0.029337183248380683
sba(iweight
Weight
p904
(dp905
g3
F0.0492218068572876
sba(iweight
Weight
p906
(dp907
g3
F-0.03964452057314301
sba(iweight
Weight
p908
(dp909
g3
F0.008259941149927588
sba(iweight
Weight
p910
(dp911
g3
F-0.006073334041058468
sba(iweight
Weight
p912
(dp913
g3
F-0.03275270530099228
sba(iweight
Weight
p914
(dp915
g3
F-0.05798072438616192
sba(iweight
Weight
p916
(dp917
g3
F-0.043733685514989615
sba(iweight
Weight
p918
(dp919
g3
F0.058262276385171306
sba(iweight
Weight
p920
(dp921
g3
F0.009667966294921523
sba(iweight
Weight
p922
(dp923
g3
F0.035386757388328194
sba(iweight
Weight
p924
(dp925
g3
F-0.022786715096391654
sba(iweight
Weight
p926
(dp927
g3
F-0.0007763401731031506
sba(iweight
Weight
p928
(dp929
g3
F0.011177592994987504
sba(iweight
Weight
p930
(dp931
g3
F0.0423935387124171
sba(iweight
Weight
p932
(dp933
g3
F0.04463144477975447
sba(iweight
Weight
p934
(dp935
g3
F0.014321117370745266
sba(iweight
Weight
p936
(dp937
g3
F0.04564129452920078
sba(iweight
Weight
p938
(dp939
g3
F-0.011727084724256568
sba(iweight
Weight
p940
(dp941
g3
F0.02809824027399766
sba(iweight
Weight
p942
(dp943
g3
F0.01487976758266826
sba(iweight
Weight
p944
(dp945
g3
F-0.04124011647213925
sba(iweight
Weight
p946
(dp947
g3
F-0.019314318810184482
sba(iweight
Weight
p948
(dp949
g3
F-0.04874009071025782
sba(iweight
Weight
p950
(dp951
g3
F0.03680702489306177
sba(iweight
Weight
p952
(dp953
g3
F-0.023140038783774082
sba(iweight
Weight
p954
(dp955
g3
F-0.04922484002888447
sba(iweight
Weight
p956
(dp957
g3
F-0.03982614960678236
sba(iweight
Weight
p958
(dp959
g3
F-0.03745167884357816
sba(iweight
Weight
p960
(dp961
g3
F-0.030035051348457135
sba(iweight
Weight
p962
(dp963
g3
F-0.04965291625895536
sba(iweight
Weight
p964
(dp965
g3
F-0.04663105606733082
sba(iweight
Weight
p966
(dp967
g3
F-0.032156086384591956
sba(iweight
Weight
p968
(dp969
g3
F0.050475349818248624
sba(iweight
Weight
p970
(dp971
g3
F0.005185560509902602
sba(iweight
Weight
p972
(dp973
g3
F-0.01572948397569181
sba(iweight
Weight
p974
(dp975
g3
F0.04353628685889385
sba(iweight
Weight
p976
(dp977
g3
F0.047584856748400996
sba(iweight
Weight
p978
(dp979
g3
F0.010593151355673224
sba(iweight
Weight
p980
(dp981
g3
F0.009626232149921976
sba(iweight
Weight
p982
(dp983
g3
F0.013011480381657637
sba(iweight
Weight
p984
(dp985
g3
F-0.023520029724146855
sba(iweight
Weight
p986
(dp987
g3
F0.018373486427988372
sba(iweight
Weight
p988
(dp989
g3
F0.015589977106434465
sba(iweight
Weight
p990
(dp991
g3
F0.03358368904796764
sba(iweight
Weight
p992
(dp993
g3
F0.014809195753307856
sba(iweight
Weight
p994
(dp995
g3
F0.014638370378871661
sba(iweight
Weight
p996
(dp997
g3
F0.01569857301025154
sba(iweight
Weight
p998
(dp999
g3
F0.0475447879711547
sba(iweight
Weight
p1000
(dp1001
g3
F-0.02212585115155294
sba(iweight
Weight
p1002
(dp1003
g3
F-0.02466678483126159
sba(iweight
Weight
p1004
(dp1005
g3
F-0.0042100730507658455
sba(iweight
Weight
p1006
(dp1007
g3
F0.022438701388383966
sba(iweight
Weight
p1008
(dp1009
g3
F0.007784336445047331
sba(iweight
Weight
p1010
(dp1011
g3
F-0.015371509336620763
sba(iweight
Weight
p1012
(dp1013
g3
F-0.028285406582783626
sba(iweight
Weight
p1014
(dp1015
g3
F-0.003382692140926904
sba(iweight
Weight
p1016
(dp1017
g3
F-0.04342724915586145
sba(iweight
Weight
p1018
(dp1019
g3
F-0.008528551118006806
sba(iweight
Weight
p1020
(dp1021
g3
F-0.009714153505665662
sba(iweight
Weight
p1022
(dp1023
g3
F-0.01341929736191241
sba(iweight
Weight
p1024
(dp1025
g3
F-0.04529483072718576
sba(iweight
Weight
p1026
(dp1027
g3
F-0.04935957078019317
sba(iweight
Weight
p1028
(dp1029
g3
F0.03214833095532064
sba(iweight
Weight
p1030
(dp1031
g3
F0.0327534246635453
sba(iweight
Weight
p1032
(dp1033
g3
F-0.018096315947966256
sba(iweight
Weight
p1034
(dp1035
g3
F0.008216947247177957
sba(iweight
Weight
p1036
(dp1037
g3
F-0.04622560074755652
sba(iweight
Weight
p1038
(dp1039
g3
F-0.030618709616466556
sba(iweight
Weight
p1040
(dp1041
g3
F0.03754156650310783
sba(iweight
Weight
p1042
(dp1043
g3
F0.019760513810098194
sba(iweight
Weight
p1044
(dp1045
g3
F0.012592262304429619
sba(iweight
Weight
p1046
(dp1047
g3
F-0.05734137461602928
sba(iweight
Weight
p1048
(dp1049
g3
F-0.03571190313570247
sba(iweight
Weight
p1050
(dp1051
g3
F-0.02808629517772456
sba(iweight
Weight
p1052
(dp1053
g3
F-0.014597271285816595
sba(iweight
Weight
p1054
(dp1055
g3
F-0.02246656681413786
sba(iweight
Weight
p1056
(dp1057
g3
F-0.04223104264300982
sba(iweight
Weight
p1058
(dp1059
g3
F0.005705273700047023
sba(iweight
Weight
p1060
(dp1061
g3
F0.0250164388847224
sba(iweight
Weight
p1062
(dp1063
g3
F0.01038422097897039
sba(iweight
Weight
p1064
(dp1065
g3
F0.030434504280855618
sba(iweight
Weight
p1066
(dp1067
g3
F0.01821411845415899
sba(iweight
Weight
p1068
(dp1069
g3
F-0.023881951115566992
sba(iweight
Weight
p1070
(dp1071
g3
F0.045768346419578124
sba(iweight
Weight
p1072
(dp1073
g3
F-0.0010558691226837777
sba(iweight
Weight
p1074
(dp1075
g3
F0.016616072090479
sba(iweight
Weight
p1076
(dp1077
g3
F-0.040064649286691706
sba(iweight
Weight
p1078
(dp1079
g3
F0.02382350434262577
sba(iweight
Weight
p1080
(dp1081
g3
F0.03357269352970998
sba(iweight
Weight
p1082
(dp1083
g3
F0.0218264434282159
sba(iweight
Weight
p1084
(dp1085
g3
F0.01336443365116014
sba(iweight
Weight
p1086
(dp1087
g3
F-0.05444062925902034
sba(iweight
Weight
p1088
(dp1089
g3
F-0.028617478639960763
sba(iweight
Weight
p1090
(dp1091
g3
F0.025687723026038174
sba(iweight
Weight
p1092
(dp1093
g3
F0.03782706540679288
sba(iweight
Weight
p1094
(dp1095
g3
F0.035772176961628856
sba(iweight
Weight
p1096
(dp1097
g3
F-0.01668340823762413
sba(iweight
Weight
p1098
(dp1099
g3
F-0.026960005577450017
sba(iweight
Weight
p1100
(dp1101
g3
F0.017425516330922857
sba(iweight
Weight
p1102
(dp1103
g3
F-0.001847966832794607
sba(iweight
Weight
p1104
(dp1105
g3
F0.030179776118039764
sba(iweight
Weight
p1106
(dp1107
g3
F-0.013176196294704502
sba(iweight
Weight
p1108
(dp1109
g3
F-0.02686141753879938
sba(iweight
Weight
p1110
(dp1111
g3
F-0.018263401663374555
sba(iweight
Weight
p1112
(dp1113
g3
F-0.029730440626443932
sba(iweight
Weight
p1114
(dp1115
g3
F0.03890219834849334
sba(iweight
Weight
p1116
(dp1117
g3
F-0.007445656014673744
sba(iweight
Weight
p1118
(dp1119
g3
F0.015222480389460669
sba(iweight
Weight
p1120
(dp1121
g3
F0.03642600287580052
sba(iweight
Weight
p1122
(dp1123
g3
F-0.051087976092734785
sba(iweight
Weight
p1124
(dp1125
g3
F-0.035143491774070404
sba(iweight
Weight
p1126
(dp1127
g3
F-0.023467857306728845
sba(iweight
Weight
p1128
(dp1129
g3
F0.013464698253333972
sba(iweight
Weight
p1130
(dp1131
g3
F-0.033521356131446446
sba(iweight
Weight
p1132
(dp1133
g3
F-0.03460833836947763
sba(iweight
Weight
p1134
(dp1135
g3
F0.008367166443772726
sba(iweight
Weight
p1136
(dp1137
g3
F-0.03868024382556464
sba(iweight
Weight
p1138
(dp1139
g3
F0.05656816008871111
sba(iweight
Weight
p1140
(dp1141
g3
F-0.010378084342363607
sba(iweight
Weight
p1142
(dp1143
g3
F-0.0008648083807077744
sba(iweight
Weight
p1144
(dp1145
g3
F-0.011394918048195653
sba(iweight
Weight
p1146
(dp1147
g3
F-0.025082456373671232
sba(iweight
Weight
p1148
(dp1149
g3
F0.03667292315175712
sba(iweight
Weight
p1150
(dp1151
g3
F-0.02610694038754747
sba(iweight
Weight
p1152
(dp1153
g3
F0.031949073694415686
sba(iweight
Weight
p1154
(dp1155
g3
F0.005557209418183225
sba(iweight
Weight
p1156
(dp1157
g3
F-0.008958059085624755
sba(iweight
Weight
p1158
(dp1159
g3
F-0.018121669463615583
sba(iweight
Weight
p1160
(dp1161
g3
F0.04035686406757462
sba(iweight
Weight
p1162
(dp1163
g3
F0.049601685444776104
sba(iweight
Weight
p1164
(dp1165
g3
F-0.031657529642053255
sba(iweight
Weight
p1166
(dp1167
g3
F-0.03616849587775564
sba(iweight
Weight
p1168
(dp1169
g3
F0.028289358367992394
sba(iweight
Weight
p1170
(dp1171
g3
F-0.021923584546038734
sba(iweight
Weight
p1172
(dp1173
g3
F-0.016012306549719538
sba(iweight
Weight
p1174
(dp1175
g3
F0.01417785437438606
sba(iweight
Weight
p1176
(dp1177
g3
F-0.010815687588658977
sba(iweight
Weight
p1178
(dp1179
g3
F-0.005996306963863872
sba(iweight
Weight
p1180
(dp1181
g3
F0.024631749059091684
sba(iweight
Weight
p1182
(dp1183
g3
F-0.04970061530956049
sba(iweight
Weight
p1184
(dp1185
g3
F-0.0006606956953237928
sba(iweight
Weight
p1186
(dp1187
g3
F-0.0239602592391588
sba(iweight
Weight
p1188
(dp1189
g3
F-0.002589010472445544
sba(iweight
Weight
p1190
(dp1191
g3
F-0.02198705743451059
sba(iweight
Weight
p1192
(dp1193
g3
F0.030411855644264917
sba(iweight
Weight
p1194
(dp1195
g3
F0.015669503153133844
sba(iweight
Weight
p1196
(dp1197
g3
F0.0050044167559885
sba(iweight
Weight
p1198
(dp1199
g3
F-0.030577980581968593
sba(iweight
Weight
p1200
(dp1201
g3
F0.06321614362401969
sba(iweight
Weight
p1202
(dp1203
g3
F0.04698063568830842
sba(iweight
Weight
p1204
(dp1205
g3
F-0.05206546887884371
sba(iweight
Weight
p1206
(dp1207
g3
F0.0036598290406566463
sba(iweight
Weight
p1208
(dp1209
g3
F-0.00986915996513999
sba(iweight
Weight
p1210
(dp1211
g3
F-0.04171637054784484
sba(iweight
Weight
p1212
(dp1213
g3
F0.023791596930934338
sba(iweight
Weight
p1214
(dp1215
g3
F-0.059053958428718925
sba(iweight
Weight
p1216
(dp1217
g3
F-0.010230018001934012
sba(iweight
Weight
p1218
(dp1219
g3
F0.007433143633031656
sba(iweight
Weight
p1220
(dp1221
g3
F-0.04748563236418842
sba(iweight
Weight
p1222
(dp1223
g3
F-0.007586706121911044
sba(iweight
Weight
p1224
(dp1225
g3
F0.026168961933585113
sba(iweight
Weight
p1226
(dp1227
g3
F0.00382023495831834
sba(iweight
Weight
p1228
(dp1229
g3
F-0.049927502614731424
sba(iweight
Weight
p1230
(dp1231
g3
F-0.003915278648418258
sba(iweight
Weight
p1232
(dp1233
g3
F0.028298699626273946
sba(iweight
Weight
p1234
(dp1235
g3
F-0.027462951759569386
sba(iweight
Weight
p1236
(dp1237
g3
F0.029227258550533104
sba(iweight
Weight
p1238
(dp1239
g3
F-0.01208333997413564
sba(iweight
Weight
p1240
(dp1241
g3
F0.04959754905375912
sba(iweight
Weight
p1242
(dp1243
g3
F0.04364461313271027
sba(iweight
Weight
p1244
(dp1245
g3
F-0.0437251900521318
sba(iweight
Weight
p1246
(dp1247
g3
F-0.02852704181658787
sba(iweight
Weight
p1248
(dp1249
g3
F-0.004620892455184025
sba(iweight
Weight
p1250
(dp1251
g3
F0.03925944686105613
sba(iweight
Weight
p1252
(dp1253
g3
F-0.0069670792884984276
sba(iweight
Weight
p1254
(dp1255
g3
F0.011622543737841226
sba(iweight
Weight
p1256
(dp1257
g3
F0.012405151559217086
sba(iweight
Weight
p1258
(dp1259
g3
F0.023535749896123746
sba(iweight
Weight
p1260
(dp1261
g3
F-0.01942341664554629
sba(iweight
Weight
p1262
(dp1263
g3
F-0.001060748948851531
sba(iweight
Weight
p1264
(dp1265
g3
F-0.028897871346888444
sba(iweight
Weight
p1266
(dp1267
g3
F-0.0070453449322645315
sba(iweight
Weight
p1268
(dp1269
g3
F0.015335412211042988
sba(iweight
Weight
p1270
(dp1271
g3
F-0.015494981204366971
sba(iweight
Weight
p1272
(dp1273
g3
F0.049262722946722105
sba(iweight
Weight
p1274
(dp1275
g3
F0.03167898599209539
sba(iweight
Weight
p1276
(dp1277
g3
F0.047205531638433315
sba(iweight
Weight
p1278
(dp1279
g3
F-0.0250429273116692
sba(iweight
Weight
p1280
(dp1281
g3
F0.04297507627518684
sba(iweight
Weight
p1282
(dp1283
g3
F-0.018843088578240207
sba(iweight
Weight
p1284
(dp1285
g3
F-0.053985500248519086
sba(iweight
Weight
p1286
(dp1287
g3
F0.02384132500938583
sba(iweight
Weight
p1288
(dp1289
g3
F-0.030433959770292677
sba(iweight
Weight
p1290
(dp1291
g3
F0.02134841269937354
sba(iweight
Weight
p1292
(dp1293
g3
F-0.008017916392547302
sba(iweight
Weight
p1294
(dp1295
g3
F0.0291375829969348
sba(iweight
Weight
p1296
(dp1297
g3
F0.03305620435796354
sba(iweight
Weight
p1298
(dp1299
g3
F0.009444384206079518
sba(iweight
Weight
p1300
(dp1301
g3
F0.04818104574713244
sba(iweight
Weight
p1302
(dp1303
g3
F0.0032775725616701413
sba(iweight
Weight
p1304
(dp1305
g3
F0.05896144813593728
sba(iweight
Weight
p1306
(dp1307
g3
F-0.004009084699116457
sba(iweight
Weight
p1308
(dp1309
g3
F-0.013850872321120618
sba(iweight
Weight
p1310
(dp1311
g3
F0.04243150411843525
sba(iweight
Weight
p1312
(dp1313
g3
F-0.04308474539095196
sba(iweight
Weight
p1314
(dp1315
g3
F0.027781365776704012
sba(iweight
Weight
p1316
(dp1317
g3
F-0.029249156049519536
sba(iweight
Weight
p1318
(dp1319
g3
F-0.0029091960909349976
sba(iweight
Weight
p1320
(dp1321
g3
F0.0171131334671357
sba(iweight
Weight
p1322
(dp1323
g3
F0.0007517410737893696
sba(iweight
Weight
p1324
(dp1325
g3
F-0.01566660187395688
sba(iweight
Weight
p1326
(dp1327
g3
F0.029864959023811942
sba(iweight
Weight
p1328
(dp1329
g3
F0.006433607988899015
sba(iweight
Weight
p1330
(dp1331
g3
F0.022314441126214935
sba(iweight
Weight
p1332
(dp1333
g3
F0.0497289914766344
sba(iweight
Weight
p1334
(dp1335
g3
F-0.020218890401782173
sba(iweight
Weight
p1336
(dp1337
g3
F0.015422709121653609
sba(iweight
Weight
p1338
(dp1339
g3
F0.038064672651938684
sba(iweight
Weight
p1340
(dp1341
g3
F0.014630100682965008
sba(iweight
Weight
p1342
(dp1343
g3
F-0.019671704469378846
sba(iweight
Weight
p1344
(dp1345
g3
F0.033678223681252714
sba(iweight
Weight
p1346
(dp1347
g3
F0.00926697480676403
sba(iweight
Weight
p1348
(dp1349
g3
F0.028815507342438533
sba(iweight
Weight
p1350
(dp1351
g3
F0.0535407485035537
sba(iweight
Weight
p1352
(dp1353
g3
F-0.03642304413558721
sba(iweight
Weight
p1354
(dp1355
g3
F-0.01152370927702412
sba(iweight
Weight
p1356
(dp1357
g3
F-0.025800302203626276
sba(iweight
Weight
p1358
(dp1359
g3
F-0.049717839208511534
sba(iweight
Weight
p1360
(dp1361
g3
F0.04716506528133694
sba(iweight
Weight
p1362
(dp1363
g3
F-0.03782824352207416
sba(iweight
Weight
p1364
(dp1365
g3
F0.008282506528505726
sba(iweight
Weight
p1366
(dp1367
g3
F0.014220892340752217
sba(iweight
Weight
p1368
(dp1369
g3
F-0.03275140060665301
sba(iweight
Weight
p1370
(dp1371
g3
F0.02922720713515542
sba(iweight
Weight
p1372
(dp1373
g3
F0.005961129355912237
sba(iweight
Weight
p1374
(dp1375
g3
F0.026081442008662664
sba(iweight
Weight
p1376
(dp1377
g3
F-0.013209822823725074
sba(iweight
Weight
p1378
(dp1379
g3
F-0.009401645587850381
sba(iweight
Weight
p1380
(dp1381
g3
F-0.04342221281990216
sba(iweight
Weight
p1382
(dp1383
g3
F0.03668680349193327
sba(iweight
Weight
p1384
(dp1385
g3
F-0.04202534809533764
sba(iweight
Weight
p1386
(dp1387
g3
F-0.0171176316304531
sba(iweight
Weight
p1388
(dp1389
g3
F-0.004927796040169417
sba(iweight
Weight
p1390
(dp1391
g3
F-0.03297102589034938
sba(iweight
Weight
p1392
(dp1393
g3
F-0.005801356705224475
sba(iweight
Weight
p1394
(dp1395
g3
F0.04238041741802443
sba(iweight
Weight
p1396
(dp1397
g3
F-0.02958053383611742
sba(iweight
Weight
p1398
(dp1399
g3
F-0.012601470439076343
sba(iweight
Weight
p1400
(dp1401
g3
F-0.05097996351192909
sba(iweight
Weight
p1402
(dp1403
g3
F0.013469181280751355
sba(iweight
Weight
p1404
(dp1405
g3
F0.0019673487938559604
sba(iweight
Weight
p1406
(dp1407
g3
F-0.04211159871825163
sba(iweight
Weight
p1408
(dp1409
g3
F-0.01942191281276463
sba(iweight
Weight
p1410
(dp1411
g3
F-0.018038454010139995
sba(iweight
Weight
p1412
(dp1413
g3
F-0.0006754790040673695
sba(iweight
Weight
p1414
(dp1415
g3
F-0.0036680705396189236
sba(iweight
Weight
p1416
(dp1417
g3
F-0.0064073881586935374
sba(iweight
Weight
p1418
(dp1419
g3
F-8.205924720280813e-05
sba(iweight
Weight
p1420
(dp1421
g3
F-0.0544442714389995
sba(iweight
Weight
p1422
(dp1423
g3
F0.0038601777270531406
sba(iweight
Weight
p1424
(dp1425
g3
F-0.03320179005936047
sba(iweight
Weight
p1426
(dp1427
g3
F0.030918778919527472
sba(iweight
Weight
p1428
(dp1429
g3
F0.0462813189136672
sba(iweight
Weight
p1430
(dp1431
g3
F-0.05354644741540912
sba(iweight
Weight
p1432
(dp1433
g3
F0.00405500518099108
sba(iweight
Weight
p1434
(dp1435
g3
F0.045028648382776426
sba(iweight
Weight
p1436
(dp1437
g3
F-0.048118848883560085
sba(iweight
Weight
p1438
(dp1439
g3
F-0.0012551222311842727
sba(iweight
Weight
p1440
(dp1441
g3
F0.0017597246996845172
sba(iweight
Weight
p1442
(dp1443
g3
F0.044917295294864476
sba(iweight
Weight
p1444
(dp1445
g3
F-0.01268904747892236
sba(iweight
Weight
p1446
(dp1447
g3
F-0.021902779470536284
sba(iweight
Weight
p1448
(dp1449
g3
F-0.010880710458397566
sba(iweight
Weight
p1450
(dp1451
g3
F-0.0011519642505640063
sba(iweight
Weight
p1452
(dp1453
g3
F-0.03467235317776038
sba(iweight
Weight
p1454
(dp1455
g3
F0.03773035684544159
sba(iweight
Weight
p1456
(dp1457
g3
F-0.004121447093446552
sba(iweight
Weight
p1458
(dp1459
g3
F0.044150637415945805
sba(iweight
Weight
p1460
(dp1461
g3
F0.006806025554999665
sba(iweight
Weight
p1462
(dp1463
g3
F-0.04050070151178141
sba(iweight
Weight
p1464
(dp1465
g3
F-0.015075364557200587
sba(iweight
Weight
p1466
(dp1467
g3
F-0.014677767927638072
sba(iweight
Weight
p1468
(dp1469
g3
F0.04314158075317921
sba(iweight
Weight
p1470
(dp1471
g3
F0.03342938907037368
sba(iweight
Weight
p1472
(dp1473
g3
F-0.003605344320042975
sba(iweight
Weight
p1474
(dp1475
g3
F-0.009776758049030651
sba(iweight
Weight
p1476
(dp1477
g3
F-0.013917784508288438
sba(iweight
Weight
p1478
(dp1479
g3
F0.043052695206753866
sba(iweight
Weight
p1480
(dp1481
g3
F0.009215480206759793
sba(iweight
Weight
p1482
(dp1483
g3
F0.025454683927706695
sba(iweight
Weight
p1484
(dp1485
g3
F-0.007668730392775476
sba(iweight
Weight
p1486
(dp1487
g3
F-0.010320004206125496
sba(iweight
Weight
p1488
(dp1489
g3
F-0.012825363513537618
sba(iweight
Weight
p1490
(dp1491
g3
F-0.016163779365034277
sba(iweight
Weight
p1492
(dp1493
g3
F-0.007705297735884161
sba(iweight
Weight
p1494
(dp1495
g3
F0.009155674852087575
sba(iweight
Weight
p1496
(dp1497
g3
F-0.0065313392972876
sba(iweight
Weight
p1498
(dp1499
g3
F-0.022051203404226914
sba(iweight
Weight
p1500
(dp1501
g3
F0.042174337180239906
sba(iweight
Weight
p1502
(dp1503
g3
F-0.030668728596288525
sba(iweight
Weight
p1504
(dp1505
g3
F-0.0356738144172056
sba(iweight
Weight
p1506
(dp1507
g3
F0.025102976329816847
sba(iweight
Weight
p1508
(dp1509
g3
F0.033945511674310085
sba(iweight
Weight
p1510
(dp1511
g3
F0.029132137867748282
sba(iweight
Weight
p1512
(dp1513
g3
F-0.05170070606398462
sba(iweight
Weight
p1514
(dp1515
g3
F-0.01290862226480066
sba(iweight
Weight
p1516
(dp1517
g3
F0.0523778128037479
sba(iweight
Weight
p1518
(dp1519
g3
F0.030492592211802765
sba(iweight
Weight
p1520
(dp1521
g3
F-0.0562350398231845
sba(iweight
Weight
p1522
(dp1523
g3
F-0.017891707380632695
sba(iweight
Weight
p1524
(dp1525
g3
F0.025782560704299375
sba(iweight
Weight
p1526
(dp1527
g3
F-0.04188798575085939
sba(iweight
Weight
p1528
(dp1529
g3
F0.010530264093255692
sba(iweight
Weight
p1530
(dp1531
g3
F-0.01565529602014976
sba(iweight
Weight
p1532
(dp1533
g3
F-0.03761605692371667
sba(iweight
Weight
p1534
(dp1535
g3
F0.019398367895350654
sba(iweight
Weight
p1536
(dp1537
g3
F0.03624810366398004
sba(iweight
Weight
p1538
(dp1539
g3
F-0.016327197548614183
sba(iweight
Weight
p1540
(dp1541
g3
F-0.0374884016897422
sba(iweight
Weight
p1542
(dp1543
g3
F-0.0033021150826288196
sba(iweight
Weight
p1544
(dp1545
g3
F-0.04520973349692253
sba(iweight
Weight
p1546
(dp1547
g3
F0.02458059964422961
sba(iweight
Weight
p1548
(dp1549
g3
F0.038027826136674284
sba(iweight
Weight
p1550
(dp1551
g3
F0.01729676715283881
sba(iweight
Weight
p1552
(dp1553
g3
F0.04177855362676286
sba(iweight
Weight
p1554
(dp1555
g3
F-0.011078795836179812
sba(iweight
Weight
p1556
(dp1557
g3
F0.01289820852995962
sba(iweight
Weight
p1558
(dp1559
g3
F-0.026482222201437956
sba(iweight
Weight
p1560
(dp1561
g3
F0.03782086928457699
sba(iweight
Weight
p1562
(dp1563
g3
F0.03100915133150775
sba(iweight
Weight
p1564
(dp1565
g3
F0.01422324200790091
sba(iweight
Weight
p1566
(dp1567
g3
F-0.024512588873555723
sba(iweight
Weight
p1568
(dp1569
g3
F0.0506526174933918
sba(iweight
Weight
p1570
(dp1571
g3
F-0.008756223584428202
sba(iweight
Weight
p1572
(dp1573
g3
F0.028133962809625372
sba(iweight
Weight
p1574
(dp1575
g3
F-0.033139772096448125
sba(iweight
Weight
p1576
(dp1577
g3
F-0.04356725667424344
sba(iweight
Weight
p1578
(dp1579
g3
F-0.03862382294683352
sba(iweight
Weight
p1580
(dp1581
g3
F-0.0013049056703372795
sba(iweight
Weight
p1582
(dp1583
g3
F0.04345501109822885
sba(iweight
Weight
p1584
(dp1585
g3
F-0.04089425545494939
sba(iweight
Weight
p1586
(dp1587
g3
F-0.04296511266358274
sba(iweight
Weight
p1588
(dp1589
g3
F-0.008938126435963003
sba(iweight
Weight
p1590
(dp1591
g3
F-0.02915219981912239
sba(iweight
Weight
p1592
(dp1593
g3
F0.055059104403360336
sba(iweight
Weight
p1594
(dp1595
g3
F-0.030522960239517786
sba(iweight
Weight
p1596
(dp1597
g3
F-0.033158864924931586
sba(iweight
Weight
p1598
(dp1599
g3
F0.020201175185714182
sba(iweight
Weight
p1600
(dp1601
g3
F0.007201582343805282
sba(iweight
Weight
p1602
(dp1603
g3
F-0.02959113141540293
sba(iweight
Weight
p1604
(dp1605
g3
F-0.005292129057352975
sba(iweight
Weight
p1606
(dp1607
g3
F-0.019547909734207652
sba(iweight
Weight
p1608
(dp1609
g3
F-0.015677429710098948
sba(iweight
Weight
p1610
(dp1611
g3
F-0.03693641329391629
sba(iweight
Weight
p1612
(dp1613
g3
F0.05468340274474353
sba(iweight
Weight
p1614
(dp1615
g3
F0.001119116553193241
sba(iweight
Weight
p1616
(dp1617
g3
F0.027711168368584494
sba(iweight
Weight
p1618
(dp1619
g3
F-0.011044817675164702
sba(iweight
Weight
p1620
(dp1621
g3
F0.030484054566221684
sba(iweight
Weight
p1622
(dp1623
g3
F-0.04252165006804746
sba(iweight
Weight
p1624
(dp1625
g3
F-0.039876869873263304
sba(iweight
Weight
p1626
(dp1627
g3
F-0.04779549623695863
sba(iweight
Weight
p1628
(dp1629
g3
F-0.03216180854093534
sba(iweight
Weight
p1630
(dp1631
g3
F-0.020164922362722916
sba(iweight
Weight
p1632
(dp1633
g3
F0.012021127372312665
sba(iweight
Weight
p1634
(dp1635
g3
F0.010670477644482904
sba(iweight
Weight
p1636
(dp1637
g3
F0.0019437365289324262
sba(iweight
Weight
p1638
(dp1639
g3
F-0.019268064002784042
sba(iweight
Weight
p1640
(dp1641
g3
F0.036533667628389076
sba(iweight
Weight
p1642
(dp1643
g3
F0.00048097708164578274
sba(iweight
Weight
p1644
(dp1645
g3
F-0.017710005776776342
sba(iweight
Weight
p1646
(dp1647
g3
F0.010109637541130475
sba(iweight
Weight
p1648
(dp1649
g3
F0.04377204356590583
sba(iweight
Weight
p1650
(dp1651
g3
F-0.026864451843754786
sba(iweight
Weight
p1652
(dp1653
g3
F-0.058313980071153244
sba(iweight
Weight
p1654
(dp1655
g3
F0.029639276253453098
sba(iweight
Weight
p1656
(dp1657
g3
F0.030460321438781104
sba(iweight
Weight
p1658
(dp1659
g3
F-0.01414466355354338
sba(iweight
Weight
p1660
(dp1661
g3
F-0.03393847208924398
sba(iweight
Weight
p1662
(dp1663
g3
F0.05368269672065139
sba(iweight
Weight
p1664
(dp1665
g3
F0.04432316699613145
sba(iweight
Weight
p1666
(dp1667
g3
F0.04016831314977367
sba(iweight
Weight
p1668
(dp1669
g3
F0.04627106629314938
sba(iweight
Weight
p1670
(dp1671
g3
F0.001572553592189167
sba(iweight
Weight
p1672
(dp1673
g3
F-0.018796569025534192
sba(iweight
Weight
p1674
(dp1675
g3
F-0.035620362207190955
sba(iweight
Weight
p1676
(dp1677
g3
F-0.008033218708960404
sba(iweight
Weight
p1678
(dp1679
g3
F-0.035667495658674095
sba(iweight
Weight
p1680
(dp1681
g3
F0.03695933402042719
sba(iweight
Weight
p1682
(dp1683
g3
F0.029085476111471737
sba(iweight
Weight
p1684
(dp1685
g3
F0.03081243012200456
sba(iweight
Weight
p1686
(dp1687
g3
F-0.008867270076291268
sba(iweight
Weight
p1688
(dp1689
g3
F0.005117544235119047
sba(iweight
Weight
p1690
(dp1691
g3
F0.03834012890681882
sba(iweight
Weight
p1692
(dp1693
g3
F0.02287920486817138
sba(iweight
Weight
p1694
(dp1695
g3
F0.024739795675977127
sba(iweight
Weight
p1696
(dp1697
g3
F-0.014116534753523695
sba(iweight
Weight
p1698
(dp1699
g3
F0.030664622724250416
sba(iweight
Weight
p1700
(dp1701
g3
F-0.008100008256193338
sba(iweight
Weight
p1702
(dp1703
g3
F0.014371557675218345
sba(iweight
Weight
p1704
(dp1705
g3
F-0.009743642300978215
sba(iweight
Weight
p1706
(dp1707
g3
F0.0032806754761092855
sba(iweight
Weight
p1708
(dp1709
g3
F0.051636336485305835
sba(iweight
Weight
p1710
(dp1711
g3
F-0.011211042054146544
sba(iweight
Weight
p1712
(dp1713
g3
F0.006853656144967113
sba(iweight
Weight
p1714
(dp1715
g3
F-0.012408595456343324
sba(iweight
Weight
p1716
(dp1717
g3
F-0.009476538165044056
sba(iweight
Weight
p1718
(dp1719
g3
F0.053259625964121884
sba(iweight
Weight
p1720
(dp1721
g3
F-0.02718974237546257
sba(iweight
Weight
p1722
(dp1723
g3
F-0.04192325040735414
sba(iweight
Weight
p1724
(dp1725
g3
F0.009570984364274972
sba(iweight
Weight
p1726
(dp1727
g3
F-0.02415826426698448
sba(iweight
Weight
p1728
(dp1729
g3
F0.03402902729978217
sba(iweight
Weight
p1730
(dp1731
g3
F0.021889541041916333
sba(iweight
Weight
p1732
(dp1733
g3
F-0.05139467685193345
sba(iweight
Weight
p1734
(dp1735
g3
F0.041852965910102825
sba(iweight
Weight
p1736
(dp1737
g3
F0.02390969878013491
sba(iweight
Weight
p1738
(dp1739
g3
F-0.02253697990505256
sba(iweight
Weight
p1740
(dp1741
g3
F-0.023918050622274364
sba(iweight
Weight
p1742
(dp1743
g3
F0.028900854764640133
sba(iweight
Weight
p1744
(dp1745
g3
F0.05945204295633921
sba(iweight
Weight
p1746
(dp1747
g3
F0.010593474094966006
sba(iweight
Weight
p1748
(dp1749
g3
F-0.020435971724781742
sba(iweight
Weight
p1750
(dp1751
g3
F-0.022230466763155456
sba(iweight
Weight
p1752
(dp1753
g3
F-0.0034416075337559207
sba(iweight
Weight
p1754
(dp1755
g3
F0.0357718569645479
sba(iweight
Weight
p1756
(dp1757
g3
F-3.6080415558700135e-05
sba(iweight
Weight
p1758
(dp1759
g3
F-0.02780337870381398
sba(iweight
Weight
p1760
(dp1761
g3
F-0.042091452531974195
sba(iweight
Weight
p1762
(dp1763
g3
F-0.03274311735406525
sba(iweight
Weight
p1764
(dp1765
g3
F-0.03473596403068462
sba(iweight
Weight
p1766
(dp1767
g3
F0.0211732160719144
sba(iweight
Weight
p1768
(dp1769
g3
F-0.037515576828362186
sba(iweight
Weight
p1770
(dp1771
g3
F-0.010532905139812756
sba(iweight
Weight
p1772
(dp1773
g3
F0.013558649871319764
sba(iweight
Weight
p1774
(dp1775
g3
F-0.04218743281639335
sba(iweight
Weight
p1776
(dp1777
g3
F0.028202359763744585
sba(iweight
Weight
p1778
(dp1779
g3
F-0.04097604154026418
sba(iweight
Weight
p1780
(dp1781
g3
F-0.027968334277696346
sba(iweight
Weight
p1782
(dp1783
g3
F0.06169208810443961
sba(iweight
Weight
p1784
(dp1785
g3
F-0.044116090307711214
sba(iweight
Weight
p1786
(dp1787
g3
F-0.003654779133884168
sba(iweight
Weight
p1788
(dp1789
g3
F-0.05708164515288092
sba(iweight
Weight
p1790
(dp1791
g3
F-0.009756812777322002
sba(iweight
Weight
p1792
(dp1793
g3
F-0.03195178341929699
sba(iweight
Weight
p1794
(dp1795
g3
F-0.04053152316032954
sba(iweight
Weight
p1796
(dp1797
g3
F-0.026842397538256277
sba(iweight
Weight
p1798
(dp1799
g3
F0.02015916570897533
sba(iweight
Weight
p1800
(dp1801
g3
F-0.02711221864946789
sba(iweight
Weight
p1802
(dp1803
g3
F0.013373474407695367
sba(iweight
Weight
p1804
(dp1805
g3
F0.04699933292128172
sba(iweight
Weight
p1806
(dp1807
g3
F0.042018448922208684
sba(iweight
Weight
p1808
(dp1809
g3
F0.028547697632406617
sba(iweight
Weight
p1810
(dp1811
g3
F-0.0622357803824062
sba(iweight
Weight
p1812
(dp1813
g3
F-0.036390707473737856
sba(iweight
Weight
p1814
(dp1815
g3
F-0.01602229449870743
sba(iweight
Weight
p1816
(dp1817
g3
F0.010327247170610433
sba(iweight
Weight
p1818
(dp1819
g3
F0.01858030408254469
sba(iweight
Weight
p1820
(dp1821
g3
F0.0011172635917901506
sba(iweight
Weight
p1822
(dp1823
g3
F-0.01750288466497807
sba(iweight
Weight
p1824
(dp1825
g3
F0.004273288939074635
sba(iweight
Weight
p1826
(dp1827
g3
F-0.040284457261418126
sba(iweight
Weight
p1828
(dp1829
g3
F-0.011606209599919445
sba(iweight
Weight
p1830
(dp1831
g3
F-0.011404220192826591
sba(iweight
Weight
p1832
(dp1833
g3
F0.023367821290313413
sba(iweight
Weight
p1834
(dp1835
g3
F0.03544500818437871
sba(iweight
Weight
p1836
(dp1837
g3
F-0.03518200389677157
sba(iweight
Weight
p1838
(dp1839
g3
F0.01231126035377306
sba(iweight
Weight
p1840
(dp1841
g3
F-0.014324210179838918
sba(iweight
Weight
p1842
(dp1843
g3
F-0.0346770362558119
sba(iweight
Weight
p1844
(dp1845
g3
F-0.0005245344461641075
sba(iweight
Weight
p1846
(dp1847
g3
F0.06494152989756223
sba(iweight
Weight
p1848
(dp1849
g3
F-0.027175348816225377
sba(iweight
Weight
p1850
(dp1851
g3
F-0.019216100877406578
sba(iweight
Weight
p1852
(dp1853
g3
F0.0418493924619283
sba(iweight
Weight
p1854
(dp1855
g3
F0.027240832084549846
sba(iweight
Weight
p1856
(dp1857
g3
F-0.0037141036240284967
sba(iweight
Weight
p1858
(dp1859
g3
F-0.06274580681929157
sba(iweight
Weight
p1860
(dp1861
g3
F0.048699198902179844
sba(iweight
Weight
p1862
(dp1863
g3
F0.05781593457140691
sba(iweight
Weight
p1864
(dp1865
g3
F-0.006116108212570082
sba(iweight
Weight
p1866
(dp1867
g3
F0.01534506377441139
sba(iweight
Weight
p1868
(dp1869
g3
F0.04353712217822613
sba(iweight
Weight
p1870
(dp1871
g3
F-0.04131462993620603
sba(iweight
Weight
p1872
(dp1873
g3
F0.03184812423628034
sba(iweight
Weight
p1874
(dp1875
g3
F0.0327960365313619
sba(iweight
Weight
p1876
(dp1877
g3
F-0.03318322443045959
sba(iweight
Weight
p1878
(dp1879
g3
F0.030695786840841486
sba(iweight
Weight
p1880
(dp1881
g3
F-0.028823629071765274
sba(iweight
Weight
p1882
(dp1883
g3
F0.006217882403791882
sba(iweight
Weight
p1884
(dp1885
g3
F-0.03701227596780848
sba(iweight
Weight
p1886
(dp1887
g3
F0.02424463474620189
sba(iweight
Weight
p1888
(dp1889
g3
F-0.0167777066962321
sba(iweight
Weight
p1890
(dp1891
g3
F-0.03180776586328466
sba(iweight
Weight
p1892
(dp1893
g3
F-0.037907185234069087
sba(iweight
Weight
p1894
(dp1895
g3
F0.007121267835533829
sba(iweight
Weight
p1896
(dp1897
g3
F-0.01838200576319388
sba(iweight
Weight
p1898
(dp1899
g3
F0.04502235764203467
sba(iweight
Weight
p1900
(dp1901
g3
F-0.014007412375077155
sba(iweight
Weight
p1902
(dp1903
g3
F0.010903518294245306
sba(iweight
Weight
p1904
(dp1905
g3
F0.022974057164912767
sba(iweight
Weight
p1906
(dp1907
g3
F-0.008118119382054246
sba(iweight
Weight
p1908
(dp1909
g3
F0.044202046975927146
sba(iweight
Weight
p1910
(dp1911
g3
F0.008963470189782094
sba(iweight
Weight
p1912
(dp1913
g3
F-0.005353655619870776
sba(iweight
Weight
p1914
(dp1915
g3
F0.0412921827705029
sba(iweight
Weight
p1916
(dp1917
g3
F0.027555372141345184
sba(iweight
Weight
p1918
(dp1919
g3
F0.050067226387629137
sba(iweight
Weight
p1920
(dp1921
g3
F0.016134510040563103
sba(iweight
Weight
p1922
(dp1923
g3
F0.03463478144548681
sba(iweight
Weight
p1924
(dp1925
g3
F-0.020922109524757176
sba(iweight
Weight
p1926
(dp1927
g3
F-0.03864351246166811
sba(iweight
Weight
p1928
(dp1929
g3
F0.03385375106537407
sba(iweight
Weight
p1930
(dp1931
g3
F0.026967965209849874
sba(iweight
Weight
p1932
(dp1933
g3
F0.018268553750009735
sba(iweight
Weight
p1934
(dp1935
g3
F-0.006113166342896812
sba(iweight
Weight
p1936
(dp1937
g3
F-0.0002148260292997189
sba(iweight
Weight
p1938
(dp1939
g3
F-0.028806463388750158
sba(iweight
Weight
p1940
(dp1941
g3
F-0.052616581525113115
sba(iweight
Weight
p1942
(dp1943
g3
F-0.006032480494747017
sba(iweight
Weight
p1944
(dp1945
g3
F0.0064589000683044516
sba(iweight
Weight
p1946
(dp1947
g3
F0.021421243803376882
sba(iweight
Weight
p1948
(dp1949
g3
F-0.034314468972632274
sba(iweight
Weight
p1950
(dp1951
g3
F0.03728717323552027
sba(iweight
Weight
p1952
(dp1953
g3
F0.05023631890346169
sba(iweight
Weight
p1954
(dp1955
g3
F0.010003402033101027
sba(iweight
Weight
p1956
(dp1957
g3
F-0.03200366244190769
sba(iweight
Weight
p1958
(dp1959
g3
F0.026139375298496605
sba(iweight
Weight
p1960
(dp1961
g3
F0.058181399433212634
sba(iweight
Weight
p1962
(dp1963
g3
F0.035552270591569866
sba(iweight
Weight
p1964
(dp1965
g3
F-0.05141635509795397
sba(iweight
Weight
p1966
(dp1967
g3
F-0.02301573645816966
sba(iweight
Weight
p1968
(dp1969
g3
F0.027099817709536785
sba(iweight
Weight
p1970
(dp1971
g3
F-0.015936718442601205
sba(iweight
Weight
p1972
(dp1973
g3
F0.0013336526439474046
sba(iweight
Weight
p1974
(dp1975
g3
F-0.018000557132784038
sba(iweight
Weight
p1976
(dp1977
g3
F0.010738374954290962
sba(iweight
Weight
p1978
(dp1979
g3
F0.029907122071715534
sba(iweight
Weight
p1980
(dp1981
g3
F-0.011492865128017893
sba(iweight
Weight
p1982
(dp1983
g3
F-0.05306910143691078
sba(iweight
Weight
p1984
(dp1985
g3
F0.027551085419008862
sba(iweight
Weight
p1986
(dp1987
g3
F-0.020858180992900082
sba(iweight
Weight
p1988
(dp1989
g3
F-0.05013441338329814
sba(iweight
Weight
p1990
(dp1991
g3
F-0.04061131477204067
sba(iweight
Weight
p1992
(dp1993
g3
F-0.01869024062698407
sba(iweight
Weight
p1994
(dp1995
g3
F0.03685920550252339
sba(iweight
Weight
p1996
(dp1997
g3
F0.00696922581310959
sba(iweight
Weight
p1998
(dp1999
g3
F-0.042314392780240476
sba(iweight
Weight
p2000
(dp2001
g3
F-0.03195685483461561
sba(iweight
Weight
p2002
(dp2003
g3
F0.04588863987104025
sba(iweight
Weight
p2004
(dp2005
g3
F-0.02547975057531647
sba(iweight
Weight
p2006
(dp2007
g3
F0.019091720479196987
sba(iweight
Weight
p2008
(dp2009
g3
F0.036925148335936436
sba(iweight
Weight
p2010
(dp2011
g3
F0.012653302725769323
sba(iweight
Weight
p2012
(dp2013
g3
F-0.024058794440344793
sba(iweight
Weight
p2014
(dp2015
g3
F0.0015092095264923426
sba(iweight
Weight
p2016
(dp2017
g3
F0.03908267962626454
sba(iweight
Weight
p2018
(dp2019
g3
F-0.0357570177440455
sba(iweight
Weight
p2020
(dp2021
g3
F-0.005944415015676977
sba.