(lp0
(iweight
Weight
p1
(dp2
S'val'
p3
F0.014283159172820437
sba(iweight
Weight
p4
(dp5
g3
F-0.013490298944178525
sba(iweight
Weight
p6
(dp7
g3
F0.029587641932822862
sba(iweight
Weight
p8
(dp9
g3
F0.021821312618015634
sba(iweight
Weight
p10
(dp11
g3
F-0.04039329999209006
sba(iweight
Weight
p12
(dp13
g3
F-0.0052841006636041195
sba(iweight
Weight
p14
(dp15
g3
F0.03170850944862783
sba(iweight
Weight
p16
(dp17
g3
F0.024528288294075287
sba(iweight
Weight
p18
(dp19
g3
F0.03783744974417243
sba(iweight
Weight
p20
(dp21
g3
F0.04943492125193133
sba(iweight
Weight
p22
(dp23
g3
F-0.008508800874400136
sba(iweight
Weight
p24
(dp25
g3
F-0.03902461334877169
sba(iweight
Weight
p26
(dp27
g3
F0.01827884642319665
sba(iweight
Weight
p28
(dp29
g3
F-0.035820894585398715
sba(iweight
Weight
p30
(dp31
g3
F-0.02978096212581041
sba(iweight
Weight
p32
(dp33
g3
F-0.04807514190964286
sba(iweight
Weight
p34
(dp35
g3
F-0.0386716336306865
sba(iweight
Weight
p36
(dp37
g3
F0.01743718040353012
sba(iweight
Weight
p38
(dp39
g3
F0.016683742885754138
sba(iweight
Weight
p40
(dp41
g3
F0.019214538301305307
sba(iweight
Weight
p42
(dp43
g3
F-0.01054945675274942
sba(iweight
Weight
p44
(dp45
g3
F0.03667076934641809
sba(iweight
Weight
p46
(dp47
g3
F0.02152905679558136
sba(iweight
Weight
p48
(dp49
g3
F0.021304115583350037
sba(iweight
Weight
p50
(dp51
g3
F0.013430578631484703
sba(iweight
Weight
p52
(dp53
g3
F-0.0017762013430065449
sba(iweight
Weight
p54
(dp55
g3
F0.04742198190751079
sba(iweight
Weight
p56
(dp57
g3
F0.027524820514960958
sba(iweight
Weight
p58
(dp59
g3
F0.03691741749517459
sba(iweight
Weight
p60
(dp61
g3
F-0.0028631340561030894
sba(iweight
Weight
p62
(dp63
g3
F-0.02735236987786408
sba(iweight
Weight
p64
(dp65
g3
F0.0465558000173162
sba(iweight
Weight
p66
(dp67
g3
F0.001497993025799549
sba(iweight
Weight
p68
(dp69
g3
F0.01918035323943843
sba(iweight
Weight
p70
(dp71
g3
F-0.03626064459587074
sba(iweight
Weight
p72
(dp73
g3
F-0.006051905048625428
sba(iweight
Weight
p74
(dp75
g3
F-0.04286579461075945
sba(iweight
Weight
p76
(dp77
g3
F-0.0022506426902190956
sba(iweight
Weight
p78
(dp79
g3
F0.006189857367554719
sba(iweight
Weight
p80
(dp81
g3
F-0.023693809792435263
sba(iweight
Weight
p82
(dp83
g3
F-0.020711081400755206
sba(iweight
Weight
p84
(dp85
g3
F-0.03317503449486921
sba(iweight
Weight
p86
(dp87
g3
F-0.02239125036370576
sba(iweight
Weight
p88
(dp89
g3
F-0.003203254641304121
sba(iweight
Weight
p90
(dp91
g3
F0.025175582490481754
sba(iweight
Weight
p92
(dp93
g3
F0.034177326826434616
sba(iweight
Weight
p94
(dp95
g3
F0.038149559651323266
sba(iweight
Weight
p96
(dp97
g3
F-0.038324570555902895
sba(iweight
Weight
p98
(dp99
g3
F0.010074272054259127
sba(iweight
Weight
p100
(dp101
g3
F0.04989635694816885
sba(iweight
Weight
p102
(dp103
g3
F0.0472348502607651
sba(iweight
Weight
p104
(dp105
g3
F0.04805830875048742
sba(iweight
Weight
p106
(dp107
g3
F0.02572426737667958
sba(iweight
Weight
p108
(dp109
g3
F0.005211273543826046
sba(iweight
Weight
p110
(dp111
g3
F0.03845720010352165
sba(iweight
Weight
p112
(dp113
g3
F-0.03463259314429286
sba(iweight
Weight
p114
(dp115
g3
F-0.023151632277917146
sba(iweight
Weight
p116
(dp117
g3
F0.018538864433372326
sba(iweight
Weight
p118
(dp119
g3
F-0.016702386659323477
sba(iweight
Weight
p120
(dp121
g3
F-0.01896714449214725
sba(iweight
Weight
p122
(dp123
g3
F-0.03278491364975762
sba(iweight
Weight
p124
(dp125
g3
F-0.020767426291425285
sba(iweight
Weight
p126
(dp127
g3
F0.01179813124566862
sba(iweight
Weight
p128
(dp129
g3
F-0.01426201356839335
sba(iweight
Weight
p130
(dp131
g3
F-0.010062426902366861
sba(iweight
Weight
p132
(dp133
g3
F0.03732408680336076
sba(iweight
Weight
p134
(dp135
g3
F-0.036275234984026704
sba(iweight
Weight
p136
(dp137
g3
F-0.005983466957076845
sba(iweight
Weight
p138
(dp139
g3
F0.004659726061317526
sba(iweight
Weight
p140
(dp141
g3
F0.0346232472873232
sba(iweight
Weight
p142
(dp143
g3
F0.04088862878111739
sba(iweight
Weight
p144
(dp145
g3
F-0.013758349717155328
sba(iweight
Weight
p146
(dp147
g3
F0.015904290139667886
sba(iweight
Weight
p148
(dp149
g3
F-0.035717897426598276
sba(iweight
Weight
p150
(dp151
g3
F-0.013724671734179017
sba(iweight
Weight
p152
(dp153
g3
F-0.009135090040903482
sba(iweight
Weight
p154
(dp155
g3
F-0.027868210307706344
sba(iweight
Weight
p156
(dp157
g3
F-0.02951342225508883
sba(iweight
Weight
p158
(dp159
g3
F0.04929662577774523
sba(iweight
Weight
p160
(dp161
g3
F0.02948107823743993
sba(iweight
Weight
p162
(dp163
g3
F0.03473116976113662
sba(iweight
Weight
p164
(dp165
g3
F0.034248664279442724
sba(iweight
Weight
p166
(dp167
g3
F0.03924398993762821
sba(iweight
Weight
p168
(dp169
g3
F-0.023247975187163084
sba(iweight
Weight
p170
(dp171
g3
F0.006602627819691231
sba(iweight
Weight
p172
(dp173
g3
F0.0071532354818228065
sba(iweight
Weight
p174
(dp175
g3
F-0.03359091436330099
sba(iweight
Weight
p176
(dp177
g3
F-0.014752800014543866
sba(iweight
Weight
p178
(dp179
g3
F0.025148025818632836
sba(iweight
Weight
p180
(dp181
g3
F0.03393814860200004
sba(iweight
Weight
p182
(dp183
g3
F-0.04956600521571461
sba(iweight
Weight
p184
(dp185
g3
F0.041641999549402064
sba(iweight
Weight
p186
(dp187
g3
F-0.04259357067564073
sba(iweight
Weight
p188
(dp189
g3
F-0.033134872695036115
sba(iweight
Weight
p190
(dp191
g3
F0.027666044624216648
sba(iweight
Weight
p192
(dp193
g3
F-0.036495818038792274
sba(iweight
Weight
p194
(dp195
g3
F-0.012638408244447919
sba(iweight
Weight
p196
(dp197
g3
F-0.030888531632438723
sba(iweight
Weight
p198
(dp199
g3
F-0.03210846389121994
sba(iweight
Weight
p200
(dp201
g3
F-0.03291901311971577
sba(iweight
Weight
p202
(dp203
g3
F-0.015956854821987467
sba(iweight
Weight
p204
(dp205
g3
F0.026848057135905504
sba(iweight
Weight
p206
(dp207
g3
F-0.016909565798340954
sba(iweight
Weight
p208
(dp209
g3
F-0.040432667963996693
sba(iweight
Weight
p210
(dp211
g3
F0.030949204366347863
sba(iweight
Weight
p212
(dp213
g3
F-0.043152088111432924
sba(iweight
Weight
p214
(dp215
g3
F0.0364398025091627
sba(iweight
Weight
p216
(dp217
g3
F-0.006132148484379186
sba(iweight
Weight
p218
(dp219
g3
F0.017958509829065116
sba(iweight
Weight
p220
(dp221
g3
F0.025564806461891045
sba(iweight
Weight
p222
(dp223
g3
F-0.043319222760029766
sba(iweight
Weight
p224
(dp225
g3
F0.015585500849950341
sba(iweight
Weight
p226
(dp227
g3
F-0.030175357824521323
sba(iweight
Weight
p228
(dp229
g3
F0.030732023543266276
sba(iweight
Weight
p230
(dp231
g3
F-0.011978016891680644
sba(iweight
Weight
p232
(dp233
g3
F-0.015292250286185272
sba(iweight
Weight
p234
(dp235
g3
F-0.02559345529606375
sba(iweight
Weight
p236
(dp237
g3
F0.006046915296737699
sba(iweight
Weight
p238
(dp239
g3
F0.029252642412879337
sba(iweight
Weight
p240
(dp241
g3
F0.018829578825379147
sba(iweight
Weight
p242
(dp243
g3
F0.046309137262928506
sba(iweight
Weight
p244
(dp245
g3
F-0.04611469929722311
sba(iweight
Weight
p246
(dp247
g3
F-0.0472679707100753
sba(iweight
Weight
p248
(dp249
g3
F-0.048397610410565985
sba(iweight
Weight
p250
(dp251
g3
F0.0372481526752233
sba(iweight
Weight
p252
(dp253
g3
F0.010156110047461465
sba(iweight
Weight
p254
(dp255
g3
F0.006714914890572077
sba(iweight
Weight
p256
(dp257
g3
F0.04622794151672125
sba(iweight
Weight
p258
(dp259
g3
F-0.04479284452220186
sba(iweight
Weight
p260
(dp261
g3
F-0.030085752427411284
sba(iweight
Weight
p262
(dp263
g3
F0.0026914588848774403
sba(iweight
Weight
p264
(dp265
g3
F-0.04519540796172398
sba(iweight
Weight
p266
(dp267
g3
F-0.019007414630492925
sba(iweight
Weight
p268
(dp269
g3
F-0.029711198260805705
sba(iweight
Weight
p270
(dp271
g3
F0.034848142970907194
sba(iweight
Weight
p272
(dp273
g3
F-0.0014876400812671388
sba(iweight
Weight
p274
(dp275
g3
F-0.03738124157958174
sba(iweight
Weight
p276
(dp277
g3
F0.023266345970669722
sba(iweight
Weight
p278
(dp279
g3
F-0.009735754200142012
sba(iweight
Weight
p280
(dp281
g3
F-0.004165695112366652
sba(iweight
Weight
p282
(dp283
g3
F0.010915224674041147
sba(iweight
Weight
p284
(dp285
g3
F-0.04166781956139112
sba(iweight
Weight
p286
(dp287
g3
F-0.008232329030633824
sba(iweight
Weight
p288
(dp289
g3
F0.049975124355579915
sba(iweight
Weight
p290
(dp291
g3
F-0.038876920632592564
sba(iweight
Weight
p292
(dp293
g3
F-0.020337779638823873
sba(iweight
Weight
p294
(dp295
g3
F0.02538242965822628
sba(iweight
Weight
p296
(dp297
g3
F0.006860097819578393
sba(iweight
Weight
p298
(dp299
g3
F-0.033390738110007
sba(iweight
Weight
p300
(dp301
g3
F-0.04556698117793854
sba(iweight
Weight
p302
(dp303
g3
F-0.02274312751066092
sba(iweight
Weight
p304
(dp305
g3
F-0.00045856485435276096
sba(iweight
Weight
p306
(dp307
g3
F-0.007856978079651444
sba(iweight
Weight
p308
(dp309
g3
F0.022276617932828414
sba(iweight
Weight
p310
(dp311
g3
F0.009749599939881271
sba(iweight
Weight
p312
(dp313
g3
F-0.036645805422852055
sba.