(lp0
(innWeight
NNWeight
p1
(dp2
S'val'
p3
F0.010728460264031786
sba(innWeight
NNWeight
p4
(dp5
g3
F-0.028263837805264886
sba(innWeight
NNWeight
p6
(dp7
g3
F0.060321773149165134
sba(innWeight
NNWeight
p8
(dp9
g3
F0.041153685833318944
sba(innWeight
NNWeight
p10
(dp11
g3
F-0.02750119584817953
sba(innWeight
NNWeight
p12
(dp13
g3
F0.042613866161055836
sba(innWeight
NNWeight
p14
(dp15
g3
F-0.03963008378863301
sba(innWeight
NNWeight
p16
(dp17
g3
F-0.0636412729496917
sba(innWeight
NNWeight
p18
(dp19
g3
F0.012992874447203713
sba(innWeight
NNWeight
p20
(dp21
g3
F0.01931104429428834
sba(innWeight
NNWeight
p22
(dp23
g3
F0.039839518986051946
sba(innWeight
NNWeight
p24
(dp25
g3
F0.011905616241232521
sba(innWeight
NNWeight
p26
(dp27
g3
F0.03141842880646947
sba(innWeight
NNWeight
p28
(dp29
g3
F0.006042116266908401
sba(innWeight
NNWeight
p30
(dp31
g3
F0.004808178292780994
sba(innWeight
NNWeight
p32
(dp33
g3
F0.03512170331483414
sba(innWeight
NNWeight
p34
(dp35
g3
F0.002577842282446045
sba(innWeight
NNWeight
p36
(dp37
g3
F0.03626005697832297
sba(innWeight
NNWeight
p38
(dp39
g3
F0.05178000503538554
sba(innWeight
NNWeight
p40
(dp41
g3
F-0.017324869001887188
sba(innWeight
NNWeight
p42
(dp43
g3
F-0.03320949565321188
sba(innWeight
NNWeight
p44
(dp45
g3
F-0.08398622056834784
sba(innWeight
NNWeight
p46
(dp47
g3
F-0.014170037979506712
sba(innWeight
NNWeight
p48
(dp49
g3
F0.006581182427769586
sba(innWeight
NNWeight
p50
(dp51
g3
F0.05115385078172878
sba(innWeight
NNWeight
p52
(dp53
g3
F0.024556054752611058
sba(innWeight
NNWeight
p54
(dp55
g3
F-0.04990546424915862
sba(innWeight
NNWeight
p56
(dp57
g3
F0.0588193086298459
sba(innWeight
NNWeight
p58
(dp59
g3
F0.014152932867612872
sba(innWeight
NNWeight
p60
(dp61
g3
F0.031045223463413867
sba(innWeight
NNWeight
p62
(dp63
g3
F-0.020389814825255464
sba(innWeight
NNWeight
p64
(dp65
g3
F0.04702097795604716
sba(innWeight
NNWeight
p66
(dp67
g3
F-0.03609069457739007
sba(innWeight
NNWeight
p68
(dp69
g3
F-0.08816851213327218
sba(innWeight
NNWeight
p70
(dp71
g3
F-0.03158862975516307
sba(innWeight
NNWeight
p72
(dp73
g3
F0.0056634695688927
sba(innWeight
NNWeight
p74
(dp75
g3
F0.015670679606418082
sba(innWeight
NNWeight
p76
(dp77
g3
F-0.03376232293330582
sba(innWeight
NNWeight
p78
(dp79
g3
F0.06141293714894788
sba(innWeight
NNWeight
p80
(dp81
g3
F0.05775338340999203
sba(innWeight
NNWeight
p82
(dp83
g3
F0.0012369110463387061
sba(innWeight
NNWeight
p84
(dp85
g3
F-0.048263644148065
sba(innWeight
NNWeight
p86
(dp87
g3
F0.057924287215875246
sba(innWeight
NNWeight
p88
(dp89
g3
F-0.06215423514228461
sba(innWeight
NNWeight
p90
(dp91
g3
F-0.06022344722505826
sba(innWeight
NNWeight
p92
(dp93
g3
F0.007511066726470739
sba(innWeight
NNWeight
p94
(dp95
g3
F0.04966524778182368
sba(innWeight
NNWeight
p96
(dp97
g3
F-0.012553781988783402
sba(innWeight
NNWeight
p98
(dp99
g3
F0.02095960001960293
sba(innWeight
NNWeight
p100
(dp101
g3
F0.005634331357733938
sba(innWeight
NNWeight
p102
(dp103
g3
F0.05881423870550525
sba(innWeight
NNWeight
p104
(dp105
g3
F0.01755390179064398
sba(innWeight
NNWeight
p106
(dp107
g3
F0.03079777549692301
sba(innWeight
NNWeight
p108
(dp109
g3
F-0.010716625745916494
sba(innWeight
NNWeight
p110
(dp111
g3
F0.08042847245426207
sba(innWeight
NNWeight
p112
(dp113
g3
F-0.03105736263526504
sba(innWeight
NNWeight
p114
(dp115
g3
F-0.04365468848058195
sba(innWeight
NNWeight
p116
(dp117
g3
F-0.044799766064669774
sba(innWeight
NNWeight
p118
(dp119
g3
F-0.007646485706748916
sba(innWeight
NNWeight
p120
(dp121
g3
F0.001119247454979706
sba(innWeight
NNWeight
p122
(dp123
g3
F0.011854228461720788
sba(innWeight
NNWeight
p124
(dp125
g3
F0.026690755225942137
sba(innWeight
NNWeight
p126
(dp127
g3
F-0.06676484739505313
sba(innWeight
NNWeight
p128
(dp129
g3
F-0.013060382967682214
sba(innWeight
NNWeight
p130
(dp131
g3
F-0.010607626391203166
sba(innWeight
NNWeight
p132
(dp133
g3
F0.08393790841040062
sba(innWeight
NNWeight
p134
(dp135
g3
F-0.02538548282821147
sba(innWeight
NNWeight
p136
(dp137
g3
F-0.008852279715656204
sba(innWeight
NNWeight
p138
(dp139
g3
F-0.09673765424443492
sba(innWeight
NNWeight
p140
(dp141
g3
F-0.02378594604704354
sba(innWeight
NNWeight
p142
(dp143
g3
F-0.01673763375335365
sba(innWeight
NNWeight
p144
(dp145
g3
F0.020739180194513214
sba(innWeight
NNWeight
p146
(dp147
g3
F0.04328573288297515
sba(innWeight
NNWeight
p148
(dp149
g3
F-0.05762031040529849
sba(innWeight
NNWeight
p150
(dp151
g3
F-0.06171200150813444
sba(innWeight
NNWeight
p152
(dp153
g3
F0.0342986020111532
sba(innWeight
NNWeight
p154
(dp155
g3
F0.019645210879733407
sba(innWeight
NNWeight
p156
(dp157
g3
F0.005664919690227968
sba(innWeight
NNWeight
p158
(dp159
g3
F0.03232062916312954
sba(innWeight
NNWeight
p160
(dp161
g3
F0.02065307346204991
sba(innWeight
NNWeight
p162
(dp163
g3
F-0.015943236836091133
sba(innWeight
NNWeight
p164
(dp165
g3
F-0.013378242796286442
sba(innWeight
NNWeight
p166
(dp167
g3
F-0.03509765507160438
sba(innWeight
NNWeight
p168
(dp169
g3
F-0.05359265930931914
sba(innWeight
NNWeight
p170
(dp171
g3
F0.029452644602728367
sba(innWeight
NNWeight
p172
(dp173
g3
F-0.03361095362058952
sba(innWeight
NNWeight
p174
(dp175
g3
F0.04041602956263169
sba(innWeight
NNWeight
p176
(dp177
g3
F0.03021285070672537
sba(innWeight
NNWeight
p178
(dp179
g3
F0.01295467566896472
sba(innWeight
NNWeight
p180
(dp181
g3
F-0.0055789685943341836
sba(innWeight
NNWeight
p182
(dp183
g3
F0.003912109222348864
sba(innWeight
NNWeight
p184
(dp185
g3
F0.007590879129300267
sba(innWeight
NNWeight
p186
(dp187
g3
F0.020948589865629162
sba(innWeight
NNWeight
p188
(dp189
g3
F-0.011550575320275825
sba(innWeight
NNWeight
p190
(dp191
g3
F0.057498010349413035
sba(innWeight
NNWeight
p192
(dp193
g3
F0.006792814650124841
sba(innWeight
NNWeight
p194
(dp195
g3
F0.03172568968135472
sba(innWeight
NNWeight
p196
(dp197
g3
F0.006978708412276308
sba(innWeight
NNWeight
p198
(dp199
g3
F0.01303799354426362
sba(innWeight
NNWeight
p200
(dp201
g3
F-0.0006503943297490078
sba(innWeight
NNWeight
p202
(dp203
g3
F-0.022936567853502548
sba(innWeight
NNWeight
p204
(dp205
g3
F0.0167319923083035
sba(innWeight
NNWeight
p206
(dp207
g3
F-0.05309907639955057
sba(innWeight
NNWeight
p208
(dp209
g3
F-0.03767901912508506
sba(innWeight
NNWeight
p210
(dp211
g3
F-0.014952930959512794
sba(innWeight
NNWeight
p212
(dp213
g3
F-0.01307623619292527
sba(innWeight
NNWeight
p214
(dp215
g3
F-0.015022431407844754
sba(innWeight
NNWeight
p216
(dp217
g3
F-0.05743853227968732
sba(innWeight
NNWeight
p218
(dp219
g3
F-0.04501190037137062
sba(innWeight
NNWeight
p220
(dp221
g3
F0.008936408198889856
sba(innWeight
NNWeight
p222
(dp223
g3
F-0.05691503154046804
sba(innWeight
NNWeight
p224
(dp225
g3
F0.017311503574106546
sba(innWeight
NNWeight
p226
(dp227
g3
F-0.02086450358766998
sba(innWeight
NNWeight
p228
(dp229
g3
F-0.0432223625979015
sba(innWeight
NNWeight
p230
(dp231
g3
F0.036010904004898175
sba(innWeight
NNWeight
p232
(dp233
g3
F-0.045397015792593226
sba(innWeight
NNWeight
p234
(dp235
g3
F0.010835600179569862
sba(innWeight
NNWeight
p236
(dp237
g3
F0.05821641142982665
sba(innWeight
NNWeight
p238
(dp239
g3
F-0.029267124040794668
sba(innWeight
NNWeight
p240
(dp241
g3
F0.016290032173382873
sba(innWeight
NNWeight
p242
(dp243
g3
F0.008563890962170626
sba(innWeight
NNWeight
p244
(dp245
g3
F-0.010320590039240823
sba(innWeight
NNWeight
p246
(dp247
g3
F-0.01044251789213842
sba(innWeight
NNWeight
p248
(dp249
g3
F0.029827907651965482
sba(innWeight
NNWeight
p250
(dp251
g3
F0.05446305295239148
sba(innWeight
NNWeight
p252
(dp253
g3
F0.03923308213002564
sba(innWeight
NNWeight
p254
(dp255
g3
F0.0429194148780617
sba(innWeight
NNWeight
p256
(dp257
g3
F-0.00753782492058921
sba(innWeight
NNWeight
p258
(dp259
g3
F-0.02615668713767477
sba(innWeight
NNWeight
p260
(dp261
g3
F-0.008066355000203704
sba(innWeight
NNWeight
p262
(dp263
g3
F0.007025340351560464
sba(innWeight
NNWeight
p264
(dp265
g3
F-0.020386604198865683
sba(innWeight
NNWeight
p266
(dp267
g3
F-0.013145928503805063
sba(innWeight
NNWeight
p268
(dp269
g3
F-0.003679732085492748
sba(innWeight
NNWeight
p270
(dp271
g3
F-0.03044882932153518
sba(innWeight
NNWeight
p272
(dp273
g3
F-0.054735427941909644
sba(innWeight
NNWeight
p274
(dp275
g3
F-0.017690971332271856
sba(innWeight
NNWeight
p276
(dp277
g3
F-0.018657890350546335
sba(innWeight
NNWeight
p278
(dp279
g3
F0.037677869265937726
sba(innWeight
NNWeight
p280
(dp281
g3
F-0.012553652803882057
sba(innWeight
NNWeight
p282
(dp283
g3
F-0.058723504022395887
sba(innWeight
NNWeight
p284
(dp285
g3
F0.028928463694636346
sba(innWeight
NNWeight
p286
(dp287
g3
F-0.017941592121094543
sba(innWeight
NNWeight
p288
(dp289
g3
F0.009366041815020295
sba(innWeight
NNWeight
p290
(dp291
g3
F-0.005012872896391142
sba(innWeight
NNWeight
p292
(dp293
g3
F-0.022613762050428376
sba(innWeight
NNWeight
p294
(dp295
g3
F0.0032993595573612023
sba(innWeight
NNWeight
p296
(dp297
g3
F0.006974009776296893
sba(innWeight
NNWeight
p298
(dp299
g3
F0.03219741064545842
sba(innWeight
NNWeight
p300
(dp301
g3
F-0.05662326621778446
sba(innWeight
NNWeight
p302
(dp303
g3
F-0.044896919498510345
sba(innWeight
NNWeight
p304
(dp305
g3
F-0.02525960450123896
sba(innWeight
NNWeight
p306
(dp307
g3
F-0.03169478483850364
sba(innWeight
NNWeight
p308
(dp309
g3
F-0.07356600784029405
sba(innWeight
NNWeight
p310
(dp311
g3
F0.05410621416726742
sba(innWeight
NNWeight
p312
(dp313
g3
F0.026672582043526537
sba(innWeight
NNWeight
p314
(dp315
g3
F0.051045119029761894
sba(innWeight
NNWeight
p316
(dp317
g3
F-0.07169664521179264
sba(innWeight
NNWeight
p318
(dp319
g3
F-0.05380112122396581
sba(innWeight
NNWeight
p320
(dp321
g3
F-0.0016224365681399653
sba(innWeight
NNWeight
p322
(dp323
g3
F-0.004762896699421603
sba(innWeight
NNWeight
p324
(dp325
g3
F0.01835671755324557
sba(innWeight
NNWeight
p326
(dp327
g3
F0.038253024521655014
sba(innWeight
NNWeight
p328
(dp329
g3
F-0.014818589641136663
sba(innWeight
NNWeight
p330
(dp331
g3
F-0.022044187746508487
sba(innWeight
NNWeight
p332
(dp333
g3
F-0.02784003098979147
sba(innWeight
NNWeight
p334
(dp335
g3
F0.02360719258546206
sba(innWeight
NNWeight
p336
(dp337
g3
F0.05786633079767606
sba(innWeight
NNWeight
p338
(dp339
g3
F0.027055590707049604
sba(innWeight
NNWeight
p340
(dp341
g3
F0.021129535318774838
sba(innWeight
NNWeight
p342
(dp343
g3
F0.07724880466898565
sba(innWeight
NNWeight
p344
(dp345
g3
F0.044424570188559054
sba(innWeight
NNWeight
p346
(dp347
g3
F0.06778227625685854
sba(innWeight
NNWeight
p348
(dp349
g3
F0.033617755060550064
sba(innWeight
NNWeight
p350
(dp351
g3
F0.05634673044852187
sba(innWeight
NNWeight
p352
(dp353
g3
F-0.04533220814665769
sba(innWeight
NNWeight
p354
(dp355
g3
F-0.04500624540329156
sba(innWeight
NNWeight
p356
(dp357
g3
F0.02881014674420693
sba(innWeight
NNWeight
p358
(dp359
g3
F0.03208982794409111
sba(innWeight
NNWeight
p360
(dp361
g3
F-0.046301291831253893
sba(innWeight
NNWeight
p362
(dp363
g3
F-0.04646379744702967
sba(innWeight
NNWeight
p364
(dp365
g3
F0.02640366091188575
sba(innWeight
NNWeight
p366
(dp367
g3
F0.045422041390335025
sba(innWeight
NNWeight
p368
(dp369
g3
F0.00889148198277168
sba(innWeight
NNWeight
p370
(dp371
g3
F-0.06068769233174557
sba(innWeight
NNWeight
p372
(dp373
g3
F0.06075739252277764
sba(innWeight
NNWeight
p374
(dp375
g3
F0.011334505311949112
sba(innWeight
NNWeight
p376
(dp377
g3
F0.03139438227865947
sba(innWeight
NNWeight
p378
(dp379
g3
F-0.0498839560341401
sba(innWeight
NNWeight
p380
(dp381
g3
F-0.027257184309036588
sba(innWeight
NNWeight
p382
(dp383
g3
F-0.07364008504071946
sba(innWeight
NNWeight
p384
(dp385
g3
F0.022628562116015313
sba(innWeight
NNWeight
p386
(dp387
g3
F-0.06012482690894725
sba(innWeight
NNWeight
p388
(dp389
g3
F-0.032567975100351185
sba(innWeight
NNWeight
p390
(dp391
g3
F0.022423767142622217
sba(innWeight
NNWeight
p392
(dp393
g3
F0.006731765178805316
sba(innWeight
NNWeight
p394
(dp395
g3
F0.02344530727885566
sba(innWeight
NNWeight
p396
(dp397
g3
F-0.059688871475554746
sba(innWeight
NNWeight
p398
(dp399
g3
F0.0522388208393475
sba(innWeight
NNWeight
p400
(dp401
g3
F0.01699261185849657
sba(innWeight
NNWeight
p402
(dp403
g3
F-0.06466019335978036
sba(innWeight
NNWeight
p404
(dp405
g3
F0.04818224692154739
sba(innWeight
NNWeight
p406
(dp407
g3
F-0.022405580627879992
sba(innWeight
NNWeight
p408
(dp409
g3
F0.05577513226412888
sba(innWeight
NNWeight
p410
(dp411
g3
F0.03240916905568618
sba(innWeight
NNWeight
p412
(dp413
g3
F0.01005706647831767
sba(innWeight
NNWeight
p414
(dp415
g3
F-0.024606169520552792
sba(innWeight
NNWeight
p416
(dp417
g3
F-0.03708278940890427
sba(innWeight
NNWeight
p418
(dp419
g3
F-0.007563500941813159
sba(innWeight
NNWeight
p420
(dp421
g3
F-0.04151792858496552
sba(innWeight
NNWeight
p422
(dp423
g3
F-0.04570987050615986
sba(innWeight
NNWeight
p424
(dp425
g3
F0.026183393958939233
sba(innWeight
NNWeight
p426
(dp427
g3
F0.01603742871858948
sba(innWeight
NNWeight
p428
(dp429
g3
F-0.025968354676768723
sba(innWeight
NNWeight
p430
(dp431
g3
F-0.02358369511143765
sba(innWeight
NNWeight
p432
(dp433
g3
F-0.05556263067559749
sba(innWeight
NNWeight
p434
(dp435
g3
F-0.021955931959521426
sba(innWeight
NNWeight
p436
(dp437
g3
F0.013936839510549422
sba(innWeight
NNWeight
p438
(dp439
g3
F-0.005554998614728246
sba(innWeight
NNWeight
p440
(dp441
g3
F-0.04912662031379064
sba(innWeight
NNWeight
p442
(dp443
g3
F0.00939551146106478
sba(innWeight
NNWeight
p444
(dp445
g3
F0.018263298443604206
sba(innWeight
NNWeight
p446
(dp447
g3
F-0.052415061915803564
sba(innWeight
NNWeight
p448
(dp449
g3
F0.016867734672202376
sba(innWeight
NNWeight
p450
(dp451
g3
F-0.06316690230155425
sba(innWeight
NNWeight
p452
(dp453
g3
F0.03529881344142357
sba(innWeight
NNWeight
p454
(dp455
g3
F0.04961251363969853
sba(innWeight
NNWeight
p456
(dp457
g3
F0.0393958457815495
sba(innWeight
NNWeight
p458
(dp459
g3
F-0.06931785951183343
sba(innWeight
NNWeight
p460
(dp461
g3
F0.040049622718018936
sba(innWeight
NNWeight
p462
(dp463
g3
F0.039571364851120144
sba(innWeight
NNWeight
p464
(dp465
g3
F-0.010187818444534638
sba(innWeight
NNWeight
p466
(dp467
g3
F-0.05314437873152286
sba(innWeight
NNWeight
p468
(dp469
g3
F-0.030160981664230212
sba(innWeight
NNWeight
p470
(dp471
g3
F0.019597366985166766
sba(innWeight
NNWeight
p472
(dp473
g3
F-0.015756943201278184
sba(innWeight
NNWeight
p474
(dp475
g3
F-0.05222980208970314
sba(innWeight
NNWeight
p476
(dp477
g3
F-0.02920004099045157
sba(innWeight
NNWeight
p478
(dp479
g3
F0.06235876229607981
sba(innWeight
NNWeight
p480
(dp481
g3
F0.047004725012436376
sba(innWeight
NNWeight
p482
(dp483
g3
F0.01087666188049265
sba(innWeight
NNWeight
p484
(dp485
g3
F0.024069105774474655
sba(innWeight
NNWeight
p486
(dp487
g3
F0.037714148033446304
sba(innWeight
NNWeight
p488
(dp489
g3
F0.04107205852319615
sba(innWeight
NNWeight
p490
(dp491
g3
F-0.01955789757642357
sba(innWeight
NNWeight
p492
(dp493
g3
F-0.01744229420171003
sba(innWeight
NNWeight
p494
(dp495
g3
F-0.0052416250898174865
sba(innWeight
NNWeight
p496
(dp497
g3
F-0.026077794344646767
sba(innWeight
NNWeight
p498
(dp499
g3
F-0.012815816913019376
sba(innWeight
NNWeight
p500
(dp501
g3
F0.03890182787235364
sba(innWeight
NNWeight
p502
(dp503
g3
F0.002351304989423994
sba(innWeight
NNWeight
p504
(dp505
g3
F-0.006602991811387283
sba(innWeight
NNWeight
p506
(dp507
g3
F-0.0012358265023672207
sba(innWeight
NNWeight
p508
(dp509
g3
F-0.028398405809962366
sba(innWeight
NNWeight
p510
(dp511
g3
F0.03118847808944213
sba(innWeight
NNWeight
p512
(dp513
g3
F0.022482895233836894
sba(innWeight
NNWeight
p514
(dp515
g3
F-0.012800985223222284
sba(innWeight
NNWeight
p516
(dp517
g3
F-0.010471958907763588
sba(innWeight
NNWeight
p518
(dp519
g3
F-0.011971686214325388
sba(innWeight
NNWeight
p520
(dp521
g3
F-0.015055598152606637
sba(innWeight
NNWeight
p522
(dp523
g3
F-0.028654636698406597
sba(innWeight
NNWeight
p524
(dp525
g3
F-0.013276914563476083
sba(innWeight
NNWeight
p526
(dp527
g3
F-0.04032009221641453
sba(innWeight
NNWeight
p528
(dp529
g3
F-0.012224701757981729
sba(innWeight
NNWeight
p530
(dp531
g3
F-0.036129642692919996
sba(innWeight
NNWeight
p532
(dp533
g3
F-0.03524969858987118
sba(innWeight
NNWeight
p534
(dp535
g3
F0.008941809713981536
sba(innWeight
NNWeight
p536
(dp537
g3
F-0.03903791596080636
sba(innWeight
NNWeight
p538
(dp539
g3
F-0.030561000237672515
sba(innWeight
NNWeight
p540
(dp541
g3
F-0.03476248284489141
sba(innWeight
NNWeight
p542
(dp543
g3
F-0.06969029490088775
sba(innWeight
NNWeight
p544
(dp545
g3
F0.022763149075014116
sba(innWeight
NNWeight
p546
(dp547
g3
F0.02168843905170178
sba(innWeight
NNWeight
p548
(dp549
g3
F-0.07738208168202973
sba(innWeight
NNWeight
p550
(dp551
g3
F-0.01608378313432664
sba(innWeight
NNWeight
p552
(dp553
g3
F0.034757204425573125
sba(innWeight
NNWeight
p554
(dp555
g3
F-0.03877628724556238
sba(innWeight
NNWeight
p556
(dp557
g3
F-0.02259127134977097
sba(innWeight
NNWeight
p558
(dp559
g3
F0.01667743228414189
sba(innWeight
NNWeight
p560
(dp561
g3
F-0.04069476717469931
sba(innWeight
NNWeight
p562
(dp563
g3
F-0.05556187031892921
sba(innWeight
NNWeight
p564
(dp565
g3
F-0.0002844562164172167
sba(innWeight
NNWeight
p566
(dp567
g3
F0.027555737100147103
sba(innWeight
NNWeight
p568
(dp569
g3
F0.03723382579310822
sba(innWeight
NNWeight
p570
(dp571
g3
F0.02133190044143819
sba(innWeight
NNWeight
p572
(dp573
g3
F-0.012713713244135106
sba(innWeight
NNWeight
p574
(dp575
g3
F0.019593538612518408
sba(innWeight
NNWeight
p576
(dp577
g3
F0.06850373474566797
sba(innWeight
NNWeight
p578
(dp579
g3
F-0.019173052367755107
sba(innWeight
NNWeight
p580
(dp581
g3
F0.06005993041572351
sba(innWeight
NNWeight
p582
(dp583
g3
F-0.02061400106576135
sba(innWeight
NNWeight
p584
(dp585
g3
F0.039790827880688905
sba(innWeight
NNWeight
p586
(dp587
g3
F0.020530529641792514
sba(innWeight
NNWeight
p588
(dp589
g3
F-0.03710388861738705
sba(innWeight
NNWeight
p590
(dp591
g3
F-0.013487886655548967
sba(innWeight
NNWeight
p592
(dp593
g3
F-0.015412565207254186
sba(innWeight
NNWeight
p594
(dp595
g3
F-0.027272948752130512
sba(innWeight
NNWeight
p596
(dp597
g3
F0.03454332737827392
sba(innWeight
NNWeight
p598
(dp599
g3
F-0.04829856737286235
sba(innWeight
NNWeight
p600
(dp601
g3
F0.0683326048277182
sba(innWeight
NNWeight
p602
(dp603
g3
F0.0634955836842669
sba(innWeight
NNWeight
p604
(dp605
g3
F0.015100540813677711
sba(innWeight
NNWeight
p606
(dp607
g3
F0.006124143533826035
sba(innWeight
NNWeight
p608
(dp609
g3
F0.007975247063137571
sba(innWeight
NNWeight
p610
(dp611
g3
F-0.04193238733820755
sba(innWeight
NNWeight
p612
(dp613
g3
F-0.008386887472036293
sba(innWeight
NNWeight
p614
(dp615
g3
F0.04458306717040108
sba(innWeight
NNWeight
p616
(dp617
g3
F-0.06311735469487029
sba(innWeight
NNWeight
p618
(dp619
g3
F0.06790699411712398
sba(innWeight
NNWeight
p620
(dp621
g3
F0.020967489676871894
sba(innWeight
NNWeight
p622
(dp623
g3
F0.028475213223288144
sba(innWeight
NNWeight
p624
(dp625
g3
F-0.05332468936192842
sba(innWeight
NNWeight
p626
(dp627
g3
F-0.055686631876163725
sba(innWeight
NNWeight
p628
(dp629
g3
F0.054833713438361055
sba(innWeight
NNWeight
p630
(dp631
g3
F0.07176196244883826
sba(innWeight
NNWeight
p632
(dp633
g3
F0.006314715563434556
sba(innWeight
NNWeight
p634
(dp635
g3
F-0.006715094916932317
sba(innWeight
NNWeight
p636
(dp637
g3
F-0.02839958457943021
sba(innWeight
NNWeight
p638
(dp639
g3
F0.05893731056668992
sba(innWeight
NNWeight
p640
(dp641
g3
F-0.04886736060426808
sba(innWeight
NNWeight
p642
(dp643
g3
F-0.00494994191211994
sba(innWeight
NNWeight
p644
(dp645
g3
F0.02003672943552448
sba(innWeight
NNWeight
p646
(dp647
g3
F-0.0048189208109644475
sba(innWeight
NNWeight
p648
(dp649
g3
F-0.0343785400153527
sba(innWeight
NNWeight
p650
(dp651
g3
F-0.033635515726259606
sba(innWeight
NNWeight
p652
(dp653
g3
F-0.011850395273192363
sba(innWeight
NNWeight
p654
(dp655
g3
F-0.012773745069828469
sba(innWeight
NNWeight
p656
(dp657
g3
F0.025901076694060665
sba(innWeight
NNWeight
p658
(dp659
g3
F0.012511419509759205
sba(innWeight
NNWeight
p660
(dp661
g3
F-0.004439388517834747
sba(innWeight
NNWeight
p662
(dp663
g3
F-0.02641930506429901
sba(innWeight
NNWeight
p664
(dp665
g3
F-0.007730897994999372
sba(innWeight
NNWeight
p666
(dp667
g3
F-0.031360278164300384
sba(innWeight
NNWeight
p668
(dp669
g3
F-0.055152652918954596
sba(innWeight
NNWeight
p670
(dp671
g3
F-0.0037138754207713142
sba(innWeight
NNWeight
p672
(dp673
g3
F-0.010081190792199518
sba(innWeight
NNWeight
p674
(dp675
g3
F0.03357089424479195
sba(innWeight
NNWeight
p676
(dp677
g3
F-0.06095320827563495
sba(innWeight
NNWeight
p678
(dp679
g3
F0.013649544424608457
sba(innWeight
NNWeight
p680
(dp681
g3
F-0.014079425487114668
sba(innWeight
NNWeight
p682
(dp683
g3
F0.11063110365388089
sba(innWeight
NNWeight
p684
(dp685
g3
F0.04891816863253334
sba(innWeight
NNWeight
p686
(dp687
g3
F0.04711621641927672
sba(innWeight
NNWeight
p688
(dp689
g3
F-0.017269679269916998
sba(innWeight
NNWeight
p690
(dp691
g3
F0.010498064604159349
sba(innWeight
NNWeight
p692
(dp693
g3
F-0.004457101804165789
sba(innWeight
NNWeight
p694
(dp695
g3
F-0.06442668282586281
sba(innWeight
NNWeight
p696
(dp697
g3
F-0.020733906807631753
sba(innWeight
NNWeight
p698
(dp699
g3
F-0.03499859123224408
sba(innWeight
NNWeight
p700
(dp701
g3
F0.023666016527587846
sba(innWeight
NNWeight
p702
(dp703
g3
F0.011545454232031783
sba(innWeight
NNWeight
p704
(dp705
g3
F-0.051216728048577416
sba(innWeight
NNWeight
p706
(dp707
g3
F0.04628937864340946
sba(innWeight
NNWeight
p708
(dp709
g3
F-0.02522102549494579
sba(innWeight
NNWeight
p710
(dp711
g3
F0.03896490515131529
sba(innWeight
NNWeight
p712
(dp713
g3
F0.02866374273697134
sba(innWeight
NNWeight
p714
(dp715
g3
F0.030718291956003063
sba(innWeight
NNWeight
p716
(dp717
g3
F0.006179032534149547
sba(innWeight
NNWeight
p718
(dp719
g3
F-0.00830878314520232
sba(innWeight
NNWeight
p720
(dp721
g3
F0.021444936219850188
sba(innWeight
NNWeight
p722
(dp723
g3
F0.0024779539753586152
sba(innWeight
NNWeight
p724
(dp725
g3
F0.02235507026197067
sba(innWeight
NNWeight
p726
(dp727
g3
F-0.004343229432022833
sba(innWeight
NNWeight
p728
(dp729
g3
F-0.017596542805272848
sba(innWeight
NNWeight
p730
(dp731
g3
F0.04350190496128959
sba(innWeight
NNWeight
p732
(dp733
g3
F0.008801552054888048
sba(innWeight
NNWeight
p734
(dp735
g3
F0.03321618529754744
sba(innWeight
NNWeight
p736
(dp737
g3
F0.007399448204102563
sba(innWeight
NNWeight
p738
(dp739
g3
F-0.024254108717166167
sba(innWeight
NNWeight
p740
(dp741
g3
F-0.015909265496390233
sba(innWeight
NNWeight
p742
(dp743
g3
F0.06617491666074506
sba(innWeight
NNWeight
p744
(dp745
g3
F0.010876147310500038
sba(innWeight
NNWeight
p746
(dp747
g3
F0.059669313344100645
sba(innWeight
NNWeight
p748
(dp749
g3
F-0.0035321542985859
sba(innWeight
NNWeight
p750
(dp751
g3
F0.025587099666963903
sba(innWeight
NNWeight
p752
(dp753
g3
F-0.021647435482705743
sba(innWeight
NNWeight
p754
(dp755
g3
F0.022166943787425612
sba(innWeight
NNWeight
p756
(dp757
g3
F-0.07799810766974212
sba(innWeight
NNWeight
p758
(dp759
g3
F0.04868718925112785
sba(innWeight
NNWeight
p760
(dp761
g3
F-0.018703792063249083
sba(innWeight
NNWeight
p762
(dp763
g3
F0.052283608656375095
sba(innWeight
NNWeight
p764
(dp765
g3
F-0.02599691259425892
sba(innWeight
NNWeight
p766
(dp767
g3
F0.030026280333785106
sba(innWeight
NNWeight
p768
(dp769
g3
F-0.05118576556161477
sba(innWeight
NNWeight
p770
(dp771
g3
F-0.0037306154761605984
sba(innWeight
NNWeight
p772
(dp773
g3
F0.02834312384953097
sba(innWeight
NNWeight
p774
(dp775
g3
F0.016276844713968498
sba(innWeight
NNWeight
p776
(dp777
g3
F0.013753184210843627
sba(innWeight
NNWeight
p778
(dp779
g3
F0.06048284249866891
sba(innWeight
NNWeight
p780
(dp781
g3
F0.03761598984126981
sba(innWeight
NNWeight
p782
(dp783
g3
F0.050574706267375744
sba(innWeight
NNWeight
p784
(dp785
g3
F-0.02655537976724199
sba(innWeight
NNWeight
p786
(dp787
g3
F0.02264992343563035
sba(innWeight
NNWeight
p788
(dp789
g3
F0.05779903649015947
sba(innWeight
NNWeight
p790
(dp791
g3
F0.02007672765964028
sba(innWeight
NNWeight
p792
(dp793
g3
F0.020150039874030017
sba(innWeight
NNWeight
p794
(dp795
g3
F-0.03999144811838924
sba(innWeight
NNWeight
p796
(dp797
g3
F0.031084730330166864
sba(innWeight
NNWeight
p798
(dp799
g3
F-0.0031813999971363185
sba(innWeight
NNWeight
p800
(dp801
g3
F0.01451382186850116
sba(innWeight
NNWeight
p802
(dp803
g3
F-0.003739308645238516
sba(innWeight
NNWeight
p804
(dp805
g3
F-0.03327815246313858
sba(innWeight
NNWeight
p806
(dp807
g3
F-0.03024650164794955
sba(innWeight
NNWeight
p808
(dp809
g3
F-0.010922055978351383
sba(innWeight
NNWeight
p810
(dp811
g3
F-0.03885886747862863
sba(innWeight
NNWeight
p812
(dp813
g3
F0.004674346828818535
sba(innWeight
NNWeight
p814
(dp815
g3
F-0.012802297331713374
sba(innWeight
NNWeight
p816
(dp817
g3
F-0.061722123280991435
sba(innWeight
NNWeight
p818
(dp819
g3
F-0.04519016383869369
sba(innWeight
NNWeight
p820
(dp821
g3
F0.01821610324004072
sba(innWeight
NNWeight
p822
(dp823
g3
F-0.002426000048907408
sba(innWeight
NNWeight
p824
(dp825
g3
F-0.02052550590101634
sba(innWeight
NNWeight
p826
(dp827
g3
F0.01687531443501114
sba(innWeight
NNWeight
p828
(dp829
g3
F0.010933182836518727
sba(innWeight
NNWeight
p830
(dp831
g3
F0.04337905217695423
sba(innWeight
NNWeight
p832
(dp833
g3
F-0.019272860549273168
sba(innWeight
NNWeight
p834
(dp835
g3
F0.05545594233330952
sba(innWeight
NNWeight
p836
(dp837
g3
F-0.018643517497219694
sba(innWeight
NNWeight
p838
(dp839
g3
F0.007178602790072449
sba(innWeight
NNWeight
p840
(dp841
g3
F0.03002217259109012
sba(innWeight
NNWeight
p842
(dp843
g3
F-0.008931307235973256
sba(innWeight
NNWeight
p844
(dp845
g3
F0.012841780364838523
sba(innWeight
NNWeight
p846
(dp847
g3
F0.031086416277045583
sba(innWeight
NNWeight
p848
(dp849
g3
F0.05607497649204024
sba(innWeight
NNWeight
p850
(dp851
g3
F-0.025205014968254034
sba(innWeight
NNWeight
p852
(dp853
g3
F0.00209499076763676
sba(innWeight
NNWeight
p854
(dp855
g3
F-0.05920162356509361
sba(innWeight
NNWeight
p856
(dp857
g3
F-0.046788607879665746
sba(innWeight
NNWeight
p858
(dp859
g3
F-0.014323209318131575
sba(innWeight
NNWeight
p860
(dp861
g3
F0.052008254304293844
sba(innWeight
NNWeight
p862
(dp863
g3
F-0.036503407267062124
sba(innWeight
NNWeight
p864
(dp865
g3
F-0.004927804794101827
sba(innWeight
NNWeight
p866
(dp867
g3
F0.021901437654953216
sba(innWeight
NNWeight
p868
(dp869
g3
F0.055369554116512704
sba(innWeight
NNWeight
p870
(dp871
g3
F-0.03911322473299876
sba(innWeight
NNWeight
p872
(dp873
g3
F-0.06323515070913813
sba(innWeight
NNWeight
p874
(dp875
g3
F0.06942468548868443
sba(innWeight
NNWeight
p876
(dp877
g3
F-0.04201348496342901
sba(innWeight
NNWeight
p878
(dp879
g3
F0.0070745658826488035
sba(innWeight
NNWeight
p880
(dp881
g3
F0.026441975415932226
sba(innWeight
NNWeight
p882
(dp883
g3
F0.047009040943907184
sba(innWeight
NNWeight
p884
(dp885
g3
F-0.04353330756186429
sba(innWeight
NNWeight
p886
(dp887
g3
F0.0016171310503905279
sba(innWeight
NNWeight
p888
(dp889
g3
F-0.00162755250722055
sba(innWeight
NNWeight
p890
(dp891
g3
F-0.025948724568906005
sba(innWeight
NNWeight
p892
(dp893
g3
F-0.010977301941074236
sba(innWeight
NNWeight
p894
(dp895
g3
F0.013314663716943292
sba(innWeight
NNWeight
p896
(dp897
g3
F-0.03997261705073834
sba(innWeight
NNWeight
p898
(dp899
g3
F-0.05834531741906136
sba(innWeight
NNWeight
p900
(dp901
g3
F-0.03270578251535754
sba(innWeight
NNWeight
p902
(dp903
g3
F0.036226567636376036
sba(innWeight
NNWeight
p904
(dp905
g3
F0.0026958113435037274
sba(innWeight
NNWeight
p906
(dp907
g3
F0.041122639938687026
sba(innWeight
NNWeight
p908
(dp909
g3
F-0.04181026581728127
sba(innWeight
NNWeight
p910
(dp911
g3
F-0.031867961956049184
sba(innWeight
NNWeight
p912
(dp913
g3
F-0.023269796602992398
sba(innWeight
NNWeight
p914
(dp915
g3
F0.05551092883349844
sba(innWeight
NNWeight
p916
(dp917
g3
F-0.04463393205982143
sba(innWeight
NNWeight
p918
(dp919
g3
F-0.055382118711738815
sba(innWeight
NNWeight
p920
(dp921
g3
F-0.04940431223372974
sba(innWeight
NNWeight
p922
(dp923
g3
F0.03365918818061714
sba(innWeight
NNWeight
p924
(dp925
g3
F-0.04266674557558852
sba(innWeight
NNWeight
p926
(dp927
g3
F0.046861022636834414
sba(innWeight
NNWeight
p928
(dp929
g3
F-0.0718382872656717
sba(innWeight
NNWeight
p930
(dp931
g3
F0.01563376929878479
sba(innWeight
NNWeight
p932
(dp933
g3
F0.004502825754854318
sba(innWeight
NNWeight
p934
(dp935
g3
F0.004959443858120744
sba(innWeight
NNWeight
p936
(dp937
g3
F0.002076061100816622
sba(innWeight
NNWeight
p938
(dp939
g3
F-0.06506025304530684
sba(innWeight
NNWeight
p940
(dp941
g3
F-0.026128031287704336
sba(innWeight
NNWeight
p942
(dp943
g3
F0.0837060883753371
sba(innWeight
NNWeight
p944
(dp945
g3
F0.0023248487170285993
sba(innWeight
NNWeight
p946
(dp947
g3
F0.06546553200055784
sba(innWeight
NNWeight
p948
(dp949
g3
F0.050994267670265415
sba(innWeight
NNWeight
p950
(dp951
g3
F0.031598332961894876
sba(innWeight
NNWeight
p952
(dp953
g3
F-0.02959188591607739
sba(innWeight
NNWeight
p954
(dp955
g3
F0.01192165769896596
sba(innWeight
NNWeight
p956
(dp957
g3
F-0.014329163900348533
sba(innWeight
NNWeight
p958
(dp959
g3
F-0.0001252807693596847
sba(innWeight
NNWeight
p960
(dp961
g3
F-0.053495769848413866
sba(innWeight
NNWeight
p962
(dp963
g3
F-0.007725988402655762
sba(innWeight
NNWeight
p964
(dp965
g3
F0.004260445411550632
sba(innWeight
NNWeight
p966
(dp967
g3
F0.019109049198930046
sba(innWeight
NNWeight
p968
(dp969
g3
F-0.05310307108525983
sba(innWeight
NNWeight
p970
(dp971
g3
F0.014689225392924877
sba(innWeight
NNWeight
p972
(dp973
g3
F-0.014075803499696771
sba(innWeight
NNWeight
p974
(dp975
g3
F-0.05201467953291387
sba(innWeight
NNWeight
p976
(dp977
g3
F0.031207601215722088
sba(innWeight
NNWeight
p978
(dp979
g3
F-0.03068278936964415
sba(innWeight
NNWeight
p980
(dp981
g3
F0.030461596124608976
sba(innWeight
NNWeight
p982
(dp983
g3
F-0.019547140748031037
sba(innWeight
NNWeight
p984
(dp985
g3
F-0.05329924107511462
sba(innWeight
NNWeight
p986
(dp987
g3
F-0.040138717781111506
sba(innWeight
NNWeight
p988
(dp989
g3
F-0.020113881281633734
sba(innWeight
NNWeight
p990
(dp991
g3
F-0.028026586078888884
sba(innWeight
NNWeight
p992
(dp993
g3
F0.008613270288297878
sba(innWeight
NNWeight
p994
(dp995
g3
F-0.04079865958819136
sba(innWeight
NNWeight
p996
(dp997
g3
F0.034232755241815974
sba(innWeight
NNWeight
p998
(dp999
g3
F0.02335818604775159
sba(innWeight
NNWeight
p1000
(dp1001
g3
F0.05903925475370205
sba(innWeight
NNWeight
p1002
(dp1003
g3
F-0.016620111523510676
sba(innWeight
NNWeight
p1004
(dp1005
g3
F-0.049332538513773304
sba(innWeight
NNWeight
p1006
(dp1007
g3
F-0.03264387645362931
sba(innWeight
NNWeight
p1008
(dp1009
g3
F0.02457015263425519
sba(innWeight
NNWeight
p1010
(dp1011
g3
F0.003925678748648928
sba(innWeight
NNWeight
p1012
(dp1013
g3
F-0.02739895104535477
sba(innWeight
NNWeight
p1014
(dp1015
g3
F-0.02617542373489602
sba(innWeight
NNWeight
p1016
(dp1017
g3
F0.03998244946847457
sba(innWeight
NNWeight
p1018
(dp1019
g3
F0.020669363319944685
sba(innWeight
NNWeight
p1020
(dp1021
g3
F0.010115993813000474
sba(innWeight
NNWeight
p1022
(dp1023
g3
F0.012789173822509383
sba(innWeight
NNWeight
p1024
(dp1025
g3
F-0.06250551678879128
sba(innWeight
NNWeight
p1026
(dp1027
g3
F0.00612840260232916
sba(innWeight
NNWeight
p1028
(dp1029
g3
F-0.05130229382826104
sba(innWeight
NNWeight
p1030
(dp1031
g3
F-0.054491473720873165
sba(innWeight
NNWeight
p1032
(dp1033
g3
F0.033336394769975804
sba(innWeight
NNWeight
p1034
(dp1035
g3
F0.013925346991390475
sba(innWeight
NNWeight
p1036
(dp1037
g3
F0.007520044551301023
sba(innWeight
NNWeight
p1038
(dp1039
g3
F-0.014812418721397918
sba(innWeight
NNWeight
p1040
(dp1041
g3
F0.019834589913768116
sba(innWeight
NNWeight
p1042
(dp1043
g3
F0.0392153895656983
sba(innWeight
NNWeight
p1044
(dp1045
g3
F-0.013075370600009075
sba(innWeight
NNWeight
p1046
(dp1047
g3
F-0.040805328750202874
sba(innWeight
NNWeight
p1048
(dp1049
g3
F-0.0199401446479935
sba(innWeight
NNWeight
p1050
(dp1051
g3
F-0.03236875491355723
sba(innWeight
NNWeight
p1052
(dp1053
g3
F-0.03077222511953985
sba(innWeight
NNWeight
p1054
(dp1055
g3
F-0.007195081219787239
sba(innWeight
NNWeight
p1056
(dp1057
g3
F-0.01588556170559709
sba(innWeight
NNWeight
p1058
(dp1059
g3
F-0.06260719392363348
sba(innWeight
NNWeight
p1060
(dp1061
g3
F0.04677080822255073
sba(innWeight
NNWeight
p1062
(dp1063
g3
F-0.015337499668621591
sba(innWeight
NNWeight
p1064
(dp1065
g3
F-0.02924701245855695
sba(innWeight
NNWeight
p1066
(dp1067
g3
F-0.03976869325922362
sba(innWeight
NNWeight
p1068
(dp1069
g3
F-0.02588567935778937
sba(innWeight
NNWeight
p1070
(dp1071
g3
F-0.05413707029785033
sba(innWeight
NNWeight
p1072
(dp1073
g3
F-0.038517580874887734
sba(innWeight
NNWeight
p1074
(dp1075
g3
F-0.03218755744925504
sba(innWeight
NNWeight
p1076
(dp1077
g3
F0.011704018201026196
sba(innWeight
NNWeight
p1078
(dp1079
g3
F0.03491773622649818
sba(innWeight
NNWeight
p1080
(dp1081
g3
F-0.03957349083952601
sba(innWeight
NNWeight
p1082
(dp1083
g3
F0.03001036262093638
sba(innWeight
NNWeight
p1084
(dp1085
g3
F0.031464671467307234
sba(innWeight
NNWeight
p1086
(dp1087
g3
F-0.004057077757099283
sba(innWeight
NNWeight
p1088
(dp1089
g3
F0.0754949776034094
sba(innWeight
NNWeight
p1090
(dp1091
g3
F0.05204902858689124
sba(innWeight
NNWeight
p1092
(dp1093
g3
F0.023041909415878813
sba(innWeight
NNWeight
p1094
(dp1095
g3
F-0.03468318229001211
sba(innWeight
NNWeight
p1096
(dp1097
g3
F-0.02244962043340005
sba(innWeight
NNWeight
p1098
(dp1099
g3
F-0.01824944957174413
sba(innWeight
NNWeight
p1100
(dp1101
g3
F0.0054213997288884526
sba(innWeight
NNWeight
p1102
(dp1103
g3
F0.0002549615052887163
sba(innWeight
NNWeight
p1104
(dp1105
g3
F0.015482833859473522
sba(innWeight
NNWeight
p1106
(dp1107
g3
F0.08419550421272219
sba(innWeight
NNWeight
p1108
(dp1109
g3
F0.055848279361682206
sba(innWeight
NNWeight
p1110
(dp1111
g3
F0.01824028141187773
sba(innWeight
NNWeight
p1112
(dp1113
g3
F0.004528602762393702
sba(innWeight
NNWeight
p1114
(dp1115
g3
F-0.039184668696427234
sba(innWeight
NNWeight
p1116
(dp1117
g3
F-0.0028608012172916773
sba(innWeight
NNWeight
p1118
(dp1119
g3
F-0.03241840059744554
sba(innWeight
NNWeight
p1120
(dp1121
g3
F-0.04450574339321292
sba(innWeight
NNWeight
p1122
(dp1123
g3
F0.052549596427639005
sba(innWeight
NNWeight
p1124
(dp1125
g3
F-0.025499969862023967
sba(innWeight
NNWeight
p1126
(dp1127
g3
F-0.005296869204061221
sba(innWeight
NNWeight
p1128
(dp1129
g3
F-0.0521189709980431
sba(innWeight
NNWeight
p1130
(dp1131
g3
F-0.009177129005279557
sba(innWeight
NNWeight
p1132
(dp1133
g3
F-0.03135522755703267
sba(innWeight
NNWeight
p1134
(dp1135
g3
F0.02447442351250757
sba(innWeight
NNWeight
p1136
(dp1137
g3
F-0.04130523167182401
sba(innWeight
NNWeight
p1138
(dp1139
g3
F-0.038270168779145484
sba(innWeight
NNWeight
p1140
(dp1141
g3
F0.0059676784090107425
sba(innWeight
NNWeight
p1142
(dp1143
g3
F0.015014024138274231
sba(innWeight
NNWeight
p1144
(dp1145
g3
F-0.0062649454558307465
sba(innWeight
NNWeight
p1146
(dp1147
g3
F0.029256372635331616
sba(innWeight
NNWeight
p1148
(dp1149
g3
F-0.06053213298377486
sba(innWeight
NNWeight
p1150
(dp1151
g3
F0.04463098741644079
sba(innWeight
NNWeight
p1152
(dp1153
g3
F-0.053275248220807134
sba(innWeight
NNWeight
p1154
(dp1155
g3
F0.013903432015573628
sba(innWeight
NNWeight
p1156
(dp1157
g3
F-0.017348378711369246
sba(innWeight
NNWeight
p1158
(dp1159
g3
F0.006214582357972296
sba(innWeight
NNWeight
p1160
(dp1161
g3
F-0.05076845067690134
sba(innWeight
NNWeight
p1162
(dp1163
g3
F0.03239588907348479
sba(innWeight
NNWeight
p1164
(dp1165
g3
F-0.0031462761135662206
sba(innWeight
NNWeight
p1166
(dp1167
g3
F0.012157527842566223
sba(innWeight
NNWeight
p1168
(dp1169
g3
F0.014456805001646587
sba(innWeight
NNWeight
p1170
(dp1171
g3
F0.03867753462466587
sba(innWeight
NNWeight
p1172
(dp1173
g3
F-0.034071392683320476
sba(innWeight
NNWeight
p1174
(dp1175
g3
F-0.06030317596990832
sba(innWeight
NNWeight
p1176
(dp1177
g3
F0.004540748180082056
sba(innWeight
NNWeight
p1178
(dp1179
g3
F0.05680236030829401
sba(innWeight
NNWeight
p1180
(dp1181
g3
F-0.012739410118124695
sba(innWeight
NNWeight
p1182
(dp1183
g3
F-0.03496086012172266
sba(innWeight
NNWeight
p1184
(dp1185
g3
F-0.03351469582779786
sba(innWeight
NNWeight
p1186
(dp1187
g3
F0.0022959146827576386
sba(innWeight
NNWeight
p1188
(dp1189
g3
F-0.0034543635034793166
sba(innWeight
NNWeight
p1190
(dp1191
g3
F-0.023314352429002486
sba(innWeight
NNWeight
p1192
(dp1193
g3
F-0.04884871064856187
sba(innWeight
NNWeight
p1194
(dp1195
g3
F0.02838316722435446
sba(innWeight
NNWeight
p1196
(dp1197
g3
F0.024055053882005115
sba(innWeight
NNWeight
p1198
(dp1199
g3
F0.0700178029259801
sba(innWeight
NNWeight
p1200
(dp1201
g3
F-0.0034708704401088036
sba(innWeight
NNWeight
p1202
(dp1203
g3
F-0.0006230914690350889
sba(innWeight
NNWeight
p1204
(dp1205
g3
F0.039943055624311066
sba(innWeight
NNWeight
p1206
(dp1207
g3
F-0.061037869984754724
sba(innWeight
NNWeight
p1208
(dp1209
g3
F-0.03388251257848192
sba(innWeight
NNWeight
p1210
(dp1211
g3
F-0.06639573512091552
sba(innWeight
NNWeight
p1212
(dp1213
g3
F-0.0462802913735078
sba(innWeight
NNWeight
p1214
(dp1215
g3
F-0.05706243374244052
sba(innWeight
NNWeight
p1216
(dp1217
g3
F-0.030285933093814093
sba(innWeight
NNWeight
p1218
(dp1219
g3
F0.040599898294192915
sba(innWeight
NNWeight
p1220
(dp1221
g3
F-0.0573988634275531
sba(innWeight
NNWeight
p1222
(dp1223
g3
F-0.0506583077045799
sba(innWeight
NNWeight
p1224
(dp1225
g3
F0.031239420188279906
sba(innWeight
NNWeight
p1226
(dp1227
g3
F0.0224239593340379
sba(innWeight
NNWeight
p1228
(dp1229
g3
F0.029385214990366275
sba(innWeight
NNWeight
p1230
(dp1231
g3
F-0.005292624526376823
sba(innWeight
NNWeight
p1232
(dp1233
g3
F-0.0013243158659828407
sba(innWeight
NNWeight
p1234
(dp1235
g3
F0.03508353099048537
sba(innWeight
NNWeight
p1236
(dp1237
g3
F0.06273757086732341
sba(innWeight
NNWeight
p1238
(dp1239
g3
F0.04682549276432859
sba(innWeight
NNWeight
p1240
(dp1241
g3
F-0.015938782140132286
sba(innWeight
NNWeight
p1242
(dp1243
g3
F0.0034705862099691704
sba(innWeight
NNWeight
p1244
(dp1245
g3
F-0.004050284713127614
sba(innWeight
NNWeight
p1246
(dp1247
g3
F-0.04574054635379391
sba(innWeight
NNWeight
p1248
(dp1249
g3
F0.0193913700595675
sba(innWeight
NNWeight
p1250
(dp1251
g3
F0.013835602745178841
sba(innWeight
NNWeight
p1252
(dp1253
g3
F0.08351010116285111
sba(innWeight
NNWeight
p1254
(dp1255
g3
F-0.005352888945392803
sba(innWeight
NNWeight
p1256
(dp1257
g3
F0.014815641652590333
sba(innWeight
NNWeight
p1258
(dp1259
g3
F-0.07065585772202458
sba(innWeight
NNWeight
p1260
(dp1261
g3
F-0.0035173082114251255
sba(innWeight
NNWeight
p1262
(dp1263
g3
F0.04044161438926849
sba(innWeight
NNWeight
p1264
(dp1265
g3
F0.07032264469504709
sba(innWeight
NNWeight
p1266
(dp1267
g3
F-0.07359773010231187
sba(innWeight
NNWeight
p1268
(dp1269
g3
F-0.042471259132396064
sba(innWeight
NNWeight
p1270
(dp1271
g3
F0.0411031820984477
sba(innWeight
NNWeight
p1272
(dp1273
g3
F-0.002253990692321495
sba(innWeight
NNWeight
p1274
(dp1275
g3
F-0.06550427969647497
sba(innWeight
NNWeight
p1276
(dp1277
g3
F0.008024732596349206
sba(innWeight
NNWeight
p1278
(dp1279
g3
F-0.013872754591797876
sba(innWeight
NNWeight
p1280
(dp1281
g3
F0.016078037089976648
sba(innWeight
NNWeight
p1282
(dp1283
g3
F0.04695214200533149
sba(innWeight
NNWeight
p1284
(dp1285
g3
F-0.028381921540584214
sba(innWeight
NNWeight
p1286
(dp1287
g3
F0.06529643196214308
sba(innWeight
NNWeight
p1288
(dp1289
g3
F-0.049993370828383635
sba(innWeight
NNWeight
p1290
(dp1291
g3
F0.04033301781254287
sba(innWeight
NNWeight
p1292
(dp1293
g3
F-0.0538130117799663
sba(innWeight
NNWeight
p1294
(dp1295
g3
F0.006836092801256535
sba(innWeight
NNWeight
p1296
(dp1297
g3
F0.04783857366716099
sba(innWeight
NNWeight
p1298
(dp1299
g3
F0.04387432687701363
sba(innWeight
NNWeight
p1300
(dp1301
g3
F0.07522885645696717
sba(innWeight
NNWeight
p1302
(dp1303
g3
F-0.005453416878706469
sba(innWeight
NNWeight
p1304
(dp1305
g3
F-0.01267949329943714
sba(innWeight
NNWeight
p1306
(dp1307
g3
F-0.03998837886218487
sba(innWeight
NNWeight
p1308
(dp1309
g3
F0.03618585021195728
sba(innWeight
NNWeight
p1310
(dp1311
g3
F0.006161109899152942
sba(innWeight
NNWeight
p1312
(dp1313
g3
F0.04027110461009732
sba(innWeight
NNWeight
p1314
(dp1315
g3
F0.062137445189519754
sba(innWeight
NNWeight
p1316
(dp1317
g3
F-0.029742245346028276
sba(innWeight
NNWeight
p1318
(dp1319
g3
F-0.040369833445133944
sba(innWeight
NNWeight
p1320
(dp1321
g3
F-0.03866523302764911
sba(innWeight
NNWeight
p1322
(dp1323
g3
F0.050821241235660335
sba(innWeight
NNWeight
p1324
(dp1325
g3
F0.023916944233652912
sba(innWeight
NNWeight
p1326
(dp1327
g3
F-0.05172169835958376
sba(innWeight
NNWeight
p1328
(dp1329
g3
F0.013769371529889118
sba(innWeight
NNWeight
p1330
(dp1331
g3
F-0.05172797554954715
sba(innWeight
NNWeight
p1332
(dp1333
g3
F-0.029644350093054595
sba(innWeight
NNWeight
p1334
(dp1335
g3
F0.043453996983165474
sba(innWeight
NNWeight
p1336
(dp1337
g3
F-0.005671188323514861
sba(innWeight
NNWeight
p1338
(dp1339
g3
F-0.02506710191403331
sba(innWeight
NNWeight
p1340
(dp1341
g3
F-0.03606572628828236
sba(innWeight
NNWeight
p1342
(dp1343
g3
F0.02612346928683035
sba(innWeight
NNWeight
p1344
(dp1345
g3
F-0.025635707925178514
sba(innWeight
NNWeight
p1346
(dp1347
g3
F0.034013774707308576
sba(innWeight
NNWeight
p1348
(dp1349
g3
F0.045054705039335674
sba(innWeight
NNWeight
p1350
(dp1351
g3
F-0.00013909845398782673
sba(innWeight
NNWeight
p1352
(dp1353
g3
F-0.005212608422532782
sba(innWeight
NNWeight
p1354
(dp1355
g3
F-0.054242257535674264
sba(innWeight
NNWeight
p1356
(dp1357
g3
F-0.03741653186087586
sba(innWeight
NNWeight
p1358
(dp1359
g3
F0.051230095852548244
sba(innWeight
NNWeight
p1360
(dp1361
g3
F0.014383347459681952
sba(innWeight
NNWeight
p1362
(dp1363
g3
F-0.050576900574793006
sba(innWeight
NNWeight
p1364
(dp1365
g3
F0.022033812955673242
sba(innWeight
NNWeight
p1366
(dp1367
g3
F-0.04169961158757579
sba(innWeight
NNWeight
p1368
(dp1369
g3
F0.033207489728857884
sba(innWeight
NNWeight
p1370
(dp1371
g3
F0.016716718421989546
sba(innWeight
NNWeight
p1372
(dp1373
g3
F-0.028721727493931322
sba(innWeight
NNWeight
p1374
(dp1375
g3
F0.007465831693265814
sba(innWeight
NNWeight
p1376
(dp1377
g3
F-0.03290559971501219
sba(innWeight
NNWeight
p1378
(dp1379
g3
F0.03368464201805717
sba(innWeight
NNWeight
p1380
(dp1381
g3
F0.03703100844611769
sba(innWeight
NNWeight
p1382
(dp1383
g3
F0.04580521732288495
sba(innWeight
NNWeight
p1384
(dp1385
g3
F-0.0002887667857103044
sba(innWeight
NNWeight
p1386
(dp1387
g3
F-0.0010387112041845873
sba(innWeight
NNWeight
p1388
(dp1389
g3
F0.04788963333956178
sba(innWeight
NNWeight
p1390
(dp1391
g3
F-0.05733903140278548
sba(innWeight
NNWeight
p1392
(dp1393
g3
F-0.03661531289498013
sba(innWeight
NNWeight
p1394
(dp1395
g3
F-0.008819140347860405
sba(innWeight
NNWeight
p1396
(dp1397
g3
F0.04984780444878524
sba(innWeight
NNWeight
p1398
(dp1399
g3
F0.04100540525167948
sba(innWeight
NNWeight
p1400
(dp1401
g3
F0.009898649590445825
sba(innWeight
NNWeight
p1402
(dp1403
g3
F-0.03136219787644977
sba(innWeight
NNWeight
p1404
(dp1405
g3
F0.05391248442643081
sba(innWeight
NNWeight
p1406
(dp1407
g3
F0.08016255425683204
sba(innWeight
NNWeight
p1408
(dp1409
g3
F0.02493968727779581
sba(innWeight
NNWeight
p1410
(dp1411
g3
F0.048951428385410896
sba(innWeight
NNWeight
p1412
(dp1413
g3
F-0.042445502511601695
sba(innWeight
NNWeight
p1414
(dp1415
g3
F0.060167695976235114
sba(innWeight
NNWeight
p1416
(dp1417
g3
F-0.02811690721517042
sba(innWeight
NNWeight
p1418
(dp1419
g3
F0.03663105138410141
sba(innWeight
NNWeight
p1420
(dp1421
g3
F-0.023640521789316683
sba(innWeight
NNWeight
p1422
(dp1423
g3
F0.07370884749969668
sba(innWeight
NNWeight
p1424
(dp1425
g3
F-0.02000997187989593
sba(innWeight
NNWeight
p1426
(dp1427
g3
F0.03992754374229812
sba(innWeight
NNWeight
p1428
(dp1429
g3
F-0.009432869525353441
sba(innWeight
NNWeight
p1430
(dp1431
g3
F-0.04739924219906891
sba(innWeight
NNWeight
p1432
(dp1433
g3
F0.05615782824531527
sba(innWeight
NNWeight
p1434
(dp1435
g3
F-0.007988814665105471
sba(innWeight
NNWeight
p1436
(dp1437
g3
F-0.024374959934411036
sba(innWeight
NNWeight
p1438
(dp1439
g3
F0.03660941199806446
sba(innWeight
NNWeight
p1440
(dp1441
g3
F0.035669505844115296
sba(innWeight
NNWeight
p1442
(dp1443
g3
F0.08409263794238149
sba(innWeight
NNWeight
p1444
(dp1445
g3
F-0.04089818506054999
sba(innWeight
NNWeight
p1446
(dp1447
g3
F-0.0066864601802372565
sba(innWeight
NNWeight
p1448
(dp1449
g3
F-0.02671728146736995
sba(innWeight
NNWeight
p1450
(dp1451
g3
F0.00603461668278341
sba(innWeight
NNWeight
p1452
(dp1453
g3
F-0.016667623714232607
sba(innWeight
NNWeight
p1454
(dp1455
g3
F0.0004065512751322314
sba(innWeight
NNWeight
p1456
(dp1457
g3
F0.006781687572729295
sba(innWeight
NNWeight
p1458
(dp1459
g3
F0.0055074047561283835
sba(innWeight
NNWeight
p1460
(dp1461
g3
F0.03304147384897924
sba(innWeight
NNWeight
p1462
(dp1463
g3
F-0.05536096988080966
sba(innWeight
NNWeight
p1464
(dp1465
g3
F0.03909874897372058
sba(innWeight
NNWeight
p1466
(dp1467
g3
F0.028132775357966208
sba(innWeight
NNWeight
p1468
(dp1469
g3
F0.01197550519594254
sba(innWeight
NNWeight
p1470
(dp1471
g3
F0.09321356242356205
sba(innWeight
NNWeight
p1472
(dp1473
g3
F0.05571881472920163
sba(innWeight
NNWeight
p1474
(dp1475
g3
F-0.03926605757339684
sba(innWeight
NNWeight
p1476
(dp1477
g3
F-0.04402116940150351
sba(innWeight
NNWeight
p1478
(dp1479
g3
F-0.04484467907002868
sba(innWeight
NNWeight
p1480
(dp1481
g3
F-0.038139388436559764
sba(innWeight
NNWeight
p1482
(dp1483
g3
F-0.027305667451020695
sba(innWeight
NNWeight
p1484
(dp1485
g3
F0.045883823939048815
sba(innWeight
NNWeight
p1486
(dp1487
g3
F-0.021898643305541116
sba(innWeight
NNWeight
p1488
(dp1489
g3
F-0.008922832712321319
sba(innWeight
NNWeight
p1490
(dp1491
g3
F0.034319368698137565
sba(innWeight
NNWeight
p1492
(dp1493
g3
F-0.018035796922091306
sba(innWeight
NNWeight
p1494
(dp1495
g3
F0.010804964604171338
sba(innWeight
NNWeight
p1496
(dp1497
g3
F-0.04673618839568219
sba(innWeight
NNWeight
p1498
(dp1499
g3
F0.05545460565213618
sba(innWeight
NNWeight
p1500
(dp1501
g3
F-0.037995236698456974
sba(innWeight
NNWeight
p1502
(dp1503
g3
F0.004125873782096109
sba(innWeight
NNWeight
p1504
(dp1505
g3
F0.0003793505548470431
sba(innWeight
NNWeight
p1506
(dp1507
g3
F-0.050861577871234666
sba(innWeight
NNWeight
p1508
(dp1509
g3
F-0.030988433294135084
sba(innWeight
NNWeight
p1510
(dp1511
g3
F0.007072420065955572
sba(innWeight
NNWeight
p1512
(dp1513
g3
F0.048418187508471794
sba(innWeight
NNWeight
p1514
(dp1515
g3
F-0.046142344409428014
sba(innWeight
NNWeight
p1516
(dp1517
g3
F0.012445756995749405
sba(innWeight
NNWeight
p1518
(dp1519
g3
F0.052717968286326536
sba(innWeight
NNWeight
p1520
(dp1521
g3
F0.04188875074226851
sba(innWeight
NNWeight
p1522
(dp1523
g3
F0.017286026526502726
sba(innWeight
NNWeight
p1524
(dp1525
g3
F0.009259647774734878
sba(innWeight
NNWeight
p1526
(dp1527
g3
F-0.017139138812826187
sba(innWeight
NNWeight
p1528
(dp1529
g3
F0.05330723471322282
sba(innWeight
NNWeight
p1530
(dp1531
g3
F-0.01967271750720426
sba(innWeight
NNWeight
p1532
(dp1533
g3
F-0.018748137794873516
sba(innWeight
NNWeight
p1534
(dp1535
g3
F-0.03786806236862146
sba(innWeight
NNWeight
p1536
(dp1537
g3
F-0.012645588454222983
sba(innWeight
NNWeight
p1538
(dp1539
g3
F0.07202644206483995
sba(innWeight
NNWeight
p1540
(dp1541
g3
F0.026642856770482896
sba(innWeight
NNWeight
p1542
(dp1543
g3
F-0.01846167613453065
sba(innWeight
NNWeight
p1544
(dp1545
g3
F-0.08372115851526318
sba(innWeight
NNWeight
p1546
(dp1547
g3
F0.002825461450963787
sba(innWeight
NNWeight
p1548
(dp1549
g3
F0.0036348584661096864
sba(innWeight
NNWeight
p1550
(dp1551
g3
F-0.032329930338288355
sba(innWeight
NNWeight
p1552
(dp1553
g3
F0.029691983841464355
sba(innWeight
NNWeight
p1554
(dp1555
g3
F-0.01663119040655478
sba(innWeight
NNWeight
p1556
(dp1557
g3
F0.03443781598228617
sba(innWeight
NNWeight
p1558
(dp1559
g3
F0.0768031402635042
sba(innWeight
NNWeight
p1560
(dp1561
g3
F0.0004187515965273625
sba(innWeight
NNWeight
p1562
(dp1563
g3
F0.013899879140852004
sba(innWeight
NNWeight
p1564
(dp1565
g3
F0.07043437531791628
sba(innWeight
NNWeight
p1566
(dp1567
g3
F0.008717431289533603
sba(innWeight
NNWeight
p1568
(dp1569
g3
F0.016884426729820035
sba(innWeight
NNWeight
p1570
(dp1571
g3
F0.01894551276012631
sba(innWeight
NNWeight
p1572
(dp1573
g3
F-0.03160268151153928
sba(innWeight
NNWeight
p1574
(dp1575
g3
F-0.019607426287701
sba(innWeight
NNWeight
p1576
(dp1577
g3
F0.04318847943665253
sba(innWeight
NNWeight
p1578
(dp1579
g3
F0.02344337052370119
sba(innWeight
NNWeight
p1580
(dp1581
g3
F-0.014945947498466233
sba(innWeight
NNWeight
p1582
(dp1583
g3
F0.006690810545393147
sba(innWeight
NNWeight
p1584
(dp1585
g3
F-0.03622876044167571
sba(innWeight
NNWeight
p1586
(dp1587
g3
F0.046745202339064915
sba(innWeight
NNWeight
p1588
(dp1589
g3
F-0.015052718138147817
sba(innWeight
NNWeight
p1590
(dp1591
g3
F-0.013538507098938076
sba(innWeight
NNWeight
p1592
(dp1593
g3
F-0.06493648615914814
sba(innWeight
NNWeight
p1594
(dp1595
g3
F-0.0038448498484582724
sba(innWeight
NNWeight
p1596
(dp1597
g3
F0.023967575151290277
sba(innWeight
NNWeight
p1598
(dp1599
g3
F-0.043885884977854825
sba(innWeight
NNWeight
p1600
(dp1601
g3
F-0.018097959100514763
sba(innWeight
NNWeight
p1602
(dp1603
g3
F0.06404225724718965
sba(innWeight
NNWeight
p1604
(dp1605
g3
F0.005733759151021838
sba(innWeight
NNWeight
p1606
(dp1607
g3
F-0.0505691736514869
sba(innWeight
NNWeight
p1608
(dp1609
g3
F-0.03225524903626188
sba(innWeight
NNWeight
p1610
(dp1611
g3
F-0.02572596856916834
sba(innWeight
NNWeight
p1612
(dp1613
g3
F0.0266619284209903
sba(innWeight
NNWeight
p1614
(dp1615
g3
F-0.0906927476732568
sba(innWeight
NNWeight
p1616
(dp1617
g3
F-0.03723885888458591
sba(innWeight
NNWeight
p1618
(dp1619
g3
F-0.030692395627750838
sba(innWeight
NNWeight
p1620
(dp1621
g3
F0.047024208782617066
sba(innWeight
NNWeight
p1622
(dp1623
g3
F-0.009085453470269287
sba(innWeight
NNWeight
p1624
(dp1625
g3
F0.03960143565704059
sba(innWeight
NNWeight
p1626
(dp1627
g3
F-0.021959216722416085
sba(innWeight
NNWeight
p1628
(dp1629
g3
F-0.007920438027911016
sba(innWeight
NNWeight
p1630
(dp1631
g3
F-0.07824450074960712
sba(innWeight
NNWeight
p1632
(dp1633
g3
F0.06679760670603574
sba(innWeight
NNWeight
p1634
(dp1635
g3
F-0.05586325785341564
sba(innWeight
NNWeight
p1636
(dp1637
g3
F-0.05268501161875023
sba(innWeight
NNWeight
p1638
(dp1639
g3
F0.05441538441409417
sba(innWeight
NNWeight
p1640
(dp1641
g3
F0.022968416401958406
sba(innWeight
NNWeight
p1642
(dp1643
g3
F-0.06078973007827233
sba(innWeight
NNWeight
p1644
(dp1645
g3
F0.03792075633975024
sba(innWeight
NNWeight
p1646
(dp1647
g3
F0.01663181977562944
sba(innWeight
NNWeight
p1648
(dp1649
g3
F0.003274964660714085
sba(innWeight
NNWeight
p1650
(dp1651
g3
F0.03349139791448127
sba(innWeight
NNWeight
p1652
(dp1653
g3
F-0.005849173780085259
sba(innWeight
NNWeight
p1654
(dp1655
g3
F0.022776686483645434
sba(innWeight
NNWeight
p1656
(dp1657
g3
F-0.04768116653257418
sba(innWeight
NNWeight
p1658
(dp1659
g3
F-0.03387844430620568
sba(innWeight
NNWeight
p1660
(dp1661
g3
F0.05443829097513707
sba(innWeight
NNWeight
p1662
(dp1663
g3
F-0.02482398230779699
sba(innWeight
NNWeight
p1664
(dp1665
g3
F-0.012228664012089253
sba(innWeight
NNWeight
p1666
(dp1667
g3
F0.05663378143760984
sba(innWeight
NNWeight
p1668
(dp1669
g3
F-0.02492948312056441
sba(innWeight
NNWeight
p1670
(dp1671
g3
F-0.033883635232309646
sba(innWeight
NNWeight
p1672
(dp1673
g3
F0.022987982201624593
sba(innWeight
NNWeight
p1674
(dp1675
g3
F-0.019203288682726354
sba(innWeight
NNWeight
p1676
(dp1677
g3
F0.006518777451162468
sba(innWeight
NNWeight
p1678
(dp1679
g3
F0.004050347064909961
sba(innWeight
NNWeight
p1680
(dp1681
g3
F-0.061969776821651064
sba(innWeight
NNWeight
p1682
(dp1683
g3
F-0.0023178343138967714
sba(innWeight
NNWeight
p1684
(dp1685
g3
F-0.016040936850114287
sba(innWeight
NNWeight
p1686
(dp1687
g3
F-0.004280863882149746
sba(innWeight
NNWeight
p1688
(dp1689
g3
F-0.029429559286668808
sba(innWeight
NNWeight
p1690
(dp1691
g3
F0.05827465227523249
sba(innWeight
NNWeight
p1692
(dp1693
g3
F-0.014517526780409755
sba(innWeight
NNWeight
p1694
(dp1695
g3
F0.0547251895839106
sba(innWeight
NNWeight
p1696
(dp1697
g3
F-0.03246574923015594
sba(innWeight
NNWeight
p1698
(dp1699
g3
F0.007816776278225749
sba(innWeight
NNWeight
p1700
(dp1701
g3
F0.0041194604761641595
sba(innWeight
NNWeight
p1702
(dp1703
g3
F0.02661788963385916
sba(innWeight
NNWeight
p1704
(dp1705
g3
F-0.036445530754559224
sba(innWeight
NNWeight
p1706
(dp1707
g3
F-0.054028898176254635
sba(innWeight
NNWeight
p1708
(dp1709
g3
F0.044645255185216136
sba(innWeight
NNWeight
p1710
(dp1711
g3
F0.0327885119383594
sba(innWeight
NNWeight
p1712
(dp1713
g3
F0.021942048747937065
sba(innWeight
NNWeight
p1714
(dp1715
g3
F0.02314260966223619
sba(innWeight
NNWeight
p1716
(dp1717
g3
F0.05841878753284632
sba(innWeight
NNWeight
p1718
(dp1719
g3
F0.005959423270978775
sba(innWeight
NNWeight
p1720
(dp1721
g3
F-0.005670480350156221
sba(innWeight
NNWeight
p1722
(dp1723
g3
F-0.030462823788218102
sba(innWeight
NNWeight
p1724
(dp1725
g3
F0.024708889504535408
sba(innWeight
NNWeight
p1726
(dp1727
g3
F0.05104128787178547
sba(innWeight
NNWeight
p1728
(dp1729
g3
F-0.06605380146467116
sba(innWeight
NNWeight
p1730
(dp1731
g3
F0.0007273174232072274
sba(innWeight
NNWeight
p1732
(dp1733
g3
F-0.029308768759904714
sba(innWeight
NNWeight
p1734
(dp1735
g3
F-0.020837308245182505
sba(innWeight
NNWeight
p1736
(dp1737
g3
F0.025198958935209657
sba(innWeight
NNWeight
p1738
(dp1739
g3
F0.04510742144842021
sba(innWeight
NNWeight
p1740
(dp1741
g3
F-0.010039157098479601
sba(innWeight
NNWeight
p1742
(dp1743
g3
F0.05369772680380219
sba(innWeight
NNWeight
p1744
(dp1745
g3
F0.012902217207848685
sba(innWeight
NNWeight
p1746
(dp1747
g3
F0.01566369447383403
sba(innWeight
NNWeight
p1748
(dp1749
g3
F0.029382741918809928
sba(innWeight
NNWeight
p1750
(dp1751
g3
F0.0027461999803288263
sba(innWeight
NNWeight
p1752
(dp1753
g3
F0.03687864787319174
sba(innWeight
NNWeight
p1754
(dp1755
g3
F-0.01527273005044159
sba(innWeight
NNWeight
p1756
(dp1757
g3
F-0.061437816311635765
sba(innWeight
NNWeight
p1758
(dp1759
g3
F0.013009030707464422
sba(innWeight
NNWeight
p1760
(dp1761
g3
F-0.020708088551905483
sba(innWeight
NNWeight
p1762
(dp1763
g3
F-0.027914985985374608
sba(innWeight
NNWeight
p1764
(dp1765
g3
F-0.03569901721488791
sba(innWeight
NNWeight
p1766
(dp1767
g3
F-0.0001493078361146062
sba(innWeight
NNWeight
p1768
(dp1769
g3
F-0.03117298391857908
sba(innWeight
NNWeight
p1770
(dp1771
g3
F0.00865972418563047
sba(innWeight
NNWeight
p1772
(dp1773
g3
F-0.03188459585047812
sba(innWeight
NNWeight
p1774
(dp1775
g3
F-0.027878301550816234
sba(innWeight
NNWeight
p1776
(dp1777
g3
F0.0021128192658252916
sba(innWeight
NNWeight
p1778
(dp1779
g3
F-0.06655443838190411
sba(innWeight
NNWeight
p1780
(dp1781
g3
F0.010988981177609837
sba(innWeight
NNWeight
p1782
(dp1783
g3
F-0.051084052986579406
sba(innWeight
NNWeight
p1784
(dp1785
g3
F-0.007678258313613766
sba(innWeight
NNWeight
p1786
(dp1787
g3
F0.0016949688243750617
sba(innWeight
NNWeight
p1788
(dp1789
g3
F-0.018037594690512478
sba(innWeight
NNWeight
p1790
(dp1791
g3
F-0.0007677269074156825
sba(innWeight
NNWeight
p1792
(dp1793
g3
F0.04179105028566061
sba(innWeight
NNWeight
p1794
(dp1795
g3
F-0.08326977949215328
sba(innWeight
NNWeight
p1796
(dp1797
g3
F0.04682905120376698
sba(innWeight
NNWeight
p1798
(dp1799
g3
F0.01517870156046631
sba(innWeight
NNWeight
p1800
(dp1801
g3
F0.03609189433174179
sba(innWeight
NNWeight
p1802
(dp1803
g3
F0.018220841296001968
sba(innWeight
NNWeight
p1804
(dp1805
g3
F0.03488053113830954
sba(innWeight
NNWeight
p1806
(dp1807
g3
F0.03444366992590704
sba(innWeight
NNWeight
p1808
(dp1809
g3
F0.0035199791195730545
sba(innWeight
NNWeight
p1810
(dp1811
g3
F0.02486747961706811
sba(innWeight
NNWeight
p1812
(dp1813
g3
F-0.01459220920645559
sba(innWeight
NNWeight
p1814
(dp1815
g3
F0.0010239514270136431
sba(innWeight
NNWeight
p1816
(dp1817
g3
F-0.05016761429980879
sba(innWeight
NNWeight
p1818
(dp1819
g3
F-0.04088314773246047
sba(innWeight
NNWeight
p1820
(dp1821
g3
F-0.07575618383639193
sba(innWeight
NNWeight
p1822
(dp1823
g3
F-0.05648568090338522
sba(innWeight
NNWeight
p1824
(dp1825
g3
F-0.028965407655235472
sba(innWeight
NNWeight
p1826
(dp1827
g3
F0.01872428309413105
sba(innWeight
NNWeight
p1828
(dp1829
g3
F-0.046069430289741524
sba(innWeight
NNWeight
p1830
(dp1831
g3
F0.007489781305658343
sba(innWeight
NNWeight
p1832
(dp1833
g3
F-0.014322216562597462
sba(innWeight
NNWeight
p1834
(dp1835
g3
F0.05164616068424341
sba(innWeight
NNWeight
p1836
(dp1837
g3
F0.03662550552949627
sba(innWeight
NNWeight
p1838
(dp1839
g3
F0.023546571124637577
sba(innWeight
NNWeight
p1840
(dp1841
g3
F-0.0011898501818481857
sba(innWeight
NNWeight
p1842
(dp1843
g3
F-0.03658375263246089
sba(innWeight
NNWeight
p1844
(dp1845
g3
F0.02869183836873747
sba(innWeight
NNWeight
p1846
(dp1847
g3
F-0.006736486299321891
sba(innWeight
NNWeight
p1848
(dp1849
g3
F-0.009008274029697378
sba(innWeight
NNWeight
p1850
(dp1851
g3
F0.022370810015068535
sba(innWeight
NNWeight
p1852
(dp1853
g3
F-0.06926526286226926
sba(innWeight
NNWeight
p1854
(dp1855
g3
F-0.03516755492421122
sba(innWeight
NNWeight
p1856
(dp1857
g3
F0.06532267443602463
sba(innWeight
NNWeight
p1858
(dp1859
g3
F0.030352326393259334
sba(innWeight
NNWeight
p1860
(dp1861
g3
F-0.0245731302413644
sba(innWeight
NNWeight
p1862
(dp1863
g3
F-0.038562852394034425
sba(innWeight
NNWeight
p1864
(dp1865
g3
F0.009064732719864329
sba(innWeight
NNWeight
p1866
(dp1867
g3
F0.03654069441330319
sba(innWeight
NNWeight
p1868
(dp1869
g3
F0.04591519812733381
sba(innWeight
NNWeight
p1870
(dp1871
g3
F-0.003789482260571346
sba(innWeight
NNWeight
p1872
(dp1873
g3
F-0.05700700463257519
sba(innWeight
NNWeight
p1874
(dp1875
g3
F0.047936454849693604
sba(innWeight
NNWeight
p1876
(dp1877
g3
F0.053367370464088064
sba(innWeight
NNWeight
p1878
(dp1879
g3
F-0.0024772356739222712
sba(innWeight
NNWeight
p1880
(dp1881
g3
F-0.04134360111500794
sba(innWeight
NNWeight
p1882
(dp1883
g3
F-0.01590811328394179
sba(innWeight
NNWeight
p1884
(dp1885
g3
F0.02577564496506702
sba(innWeight
NNWeight
p1886
(dp1887
g3
F-0.06105339900365943
sba(innWeight
NNWeight
p1888
(dp1889
g3
F0.012844599129540607
sba(innWeight
NNWeight
p1890
(dp1891
g3
F0.011300750429600166
sba(innWeight
NNWeight
p1892
(dp1893
g3
F-0.03543193003803379
sba(innWeight
NNWeight
p1894
(dp1895
g3
F0.06721342884785694
sba(innWeight
NNWeight
p1896
(dp1897
g3
F0.020866796744829375
sba(innWeight
NNWeight
p1898
(dp1899
g3
F0.04765633951118545
sba(innWeight
NNWeight
p1900
(dp1901
g3
F0.018779386963032735
sba(innWeight
NNWeight
p1902
(dp1903
g3
F0.019896486158189175
sba(innWeight
NNWeight
p1904
(dp1905
g3
F0.009996217002537408
sba(innWeight
NNWeight
p1906
(dp1907
g3
F-0.024087898565558367
sba(innWeight
NNWeight
p1908
(dp1909
g3
F-0.06379587567003854
sba(innWeight
NNWeight
p1910
(dp1911
g3
F0.04638629541288859
sba(innWeight
NNWeight
p1912
(dp1913
g3
F0.027851446421118687
sba(innWeight
NNWeight
p1914
(dp1915
g3
F-0.0006999128192361309
sba(innWeight
NNWeight
p1916
(dp1917
g3
F0.03802130835673858
sba(innWeight
NNWeight
p1918
(dp1919
g3
F0.06962620377718048
sba(innWeight
NNWeight
p1920
(dp1921
g3
F0.023495270630334335
sba(innWeight
NNWeight
p1922
(dp1923
g3
F-0.05450647281432399
sba(innWeight
NNWeight
p1924
(dp1925
g3
F0.014852046710872313
sba(innWeight
NNWeight
p1926
(dp1927
g3
F-0.02409670255689943
sba(innWeight
NNWeight
p1928
(dp1929
g3
F0.041913614991817436
sba(innWeight
NNWeight
p1930
(dp1931
g3
F0.04683082720250952
sba(innWeight
NNWeight
p1932
(dp1933
g3
F-0.012282668070314294
sba(innWeight
NNWeight
p1934
(dp1935
g3
F0.01705226829953718
sba(innWeight
NNWeight
p1936
(dp1937
g3
F0.001307004359167556
sba(innWeight
NNWeight
p1938
(dp1939
g3
F0.015737866642772505
sba(innWeight
NNWeight
p1940
(dp1941
g3
F0.017382067908634505
sba(innWeight
NNWeight
p1942
(dp1943
g3
F0.040441406938609606
sba(innWeight
NNWeight
p1944
(dp1945
g3
F0.039353953711503166
sba(innWeight
NNWeight
p1946
(dp1947
g3
F0.048723273702456195
sba(innWeight
NNWeight
p1948
(dp1949
g3
F-0.0711016215004815
sba(innWeight
NNWeight
p1950
(dp1951
g3
F-0.0038936099536966318
sba(innWeight
NNWeight
p1952
(dp1953
g3
F-0.009260041318728193
sba(innWeight
NNWeight
p1954
(dp1955
g3
F-0.014042027986433678
sba(innWeight
NNWeight
p1956
(dp1957
g3
F0.022966873120869428
sba(innWeight
NNWeight
p1958
(dp1959
g3
F0.022313950899423715
sba(innWeight
NNWeight
p1960
(dp1961
g3
F-0.019085432825270324
sba(innWeight
NNWeight
p1962
(dp1963
g3
F-0.03977923346385922
sba(innWeight
NNWeight
p1964
(dp1965
g3
F0.07395762878393823
sba(innWeight
NNWeight
p1966
(dp1967
g3
F-0.021527596687261476
sba(innWeight
NNWeight
p1968
(dp1969
g3
F0.016762182116454017
sba(innWeight
NNWeight
p1970
(dp1971
g3
F-0.03243705586795432
sba(innWeight
NNWeight
p1972
(dp1973
g3
F0.01769824145007141
sba(innWeight
NNWeight
p1974
(dp1975
g3
F-0.0017460534105764368
sba(innWeight
NNWeight
p1976
(dp1977
g3
F-0.04538832663549731
sba(innWeight
NNWeight
p1978
(dp1979
g3
F-0.0257778268424177
sba(innWeight
NNWeight
p1980
(dp1981
g3
F0.033089414045429
sba(innWeight
NNWeight
p1982
(dp1983
g3
F-0.0038323496759181323
sba(innWeight
NNWeight
p1984
(dp1985
g3
F0.03783241337518523
sba(innWeight
NNWeight
p1986
(dp1987
g3
F-0.0015737180330822346
sba(innWeight
NNWeight
p1988
(dp1989
g3
F-0.013157260605072605
sba(innWeight
NNWeight
p1990
(dp1991
g3
F0.031009469165865323
sba(innWeight
NNWeight
p1992
(dp1993
g3
F0.019486513646840155
sba(innWeight
NNWeight
p1994
(dp1995
g3
F-0.0104751151558279
sba(innWeight
NNWeight
p1996
(dp1997
g3
F-0.028456135313543716
sba(innWeight
NNWeight
p1998
(dp1999
g3
F0.05138274972246232
sba(innWeight
NNWeight
p2000
(dp2001
g3
F-0.035852549205881344
sba(innWeight
NNWeight
p2002
(dp2003
g3
F-0.05664575854259088
sba(innWeight
NNWeight
p2004
(dp2005
g3
F-0.02083592076811876
sba(innWeight
NNWeight
p2006
(dp2007
g3
F-9.296290865179989e-05
sba(innWeight
NNWeight
p2008
(dp2009
g3
F-0.0096109751650863
sba(innWeight
NNWeight
p2010
(dp2011
g3
F-0.054984413577696
sba(innWeight
NNWeight
p2012
(dp2013
g3
F-0.009211115804723974
sba(innWeight
NNWeight
p2014
(dp2015
g3
F-0.043623993831483576
sba(innWeight
NNWeight
p2016
(dp2017
g3
F0.005107178258580947
sba(innWeight
NNWeight
p2018
(dp2019
g3
F-0.04949367732748393
sba(innWeight
NNWeight
p2020
(dp2021
g3
F-0.0002913410478928571
sba.