(lp0
(iweight
Weight
p1
(dp2
S'val'
p3
F0.029028827767070154
sba(iweight
Weight
p4
(dp5
g3
F0.007402516208018729
sba(iweight
Weight
p6
(dp7
g3
F0.016528892133504038
sba(iweight
Weight
p8
(dp9
g3
F-0.045059484252038706
sba(iweight
Weight
p10
(dp11
g3
F0.04769280671755616
sba(iweight
Weight
p12
(dp13
g3
F0.04127586649613261
sba(iweight
Weight
p14
(dp15
g3
F0.0012988201415186308
sba(iweight
Weight
p16
(dp17
g3
F0.0033041835493286213
sba(iweight
Weight
p18
(dp19
g3
F0.0283557822346735
sba(iweight
Weight
p20
(dp21
g3
F-0.02854918488989181
sba(iweight
Weight
p22
(dp23
g3
F0.0380655247466061
sba(iweight
Weight
p24
(dp25
g3
F-0.004288848968403603
sba(iweight
Weight
p26
(dp27
g3
F0.045116577040011
sba(iweight
Weight
p28
(dp29
g3
F-0.015577004839147902
sba(iweight
Weight
p30
(dp31
g3
F0.007658586150527869
sba(iweight
Weight
p32
(dp33
g3
F-0.045816633323820743
sba(iweight
Weight
p34
(dp35
g3
F0.024272607730183294
sba(iweight
Weight
p36
(dp37
g3
F-0.005649468595519747
sba(iweight
Weight
p38
(dp39
g3
F-0.029754403326903447
sba(iweight
Weight
p40
(dp41
g3
F0.009552260489867681
sba(iweight
Weight
p42
(dp43
g3
F-0.02694599129109039
sba(iweight
Weight
p44
(dp45
g3
F-0.017587066305992216
sba(iweight
Weight
p46
(dp47
g3
F-0.036930188970753855
sba(iweight
Weight
p48
(dp49
g3
F0.004461168450487063
sba(iweight
Weight
p50
(dp51
g3
F0.02540846526038966
sba(iweight
Weight
p52
(dp53
g3
F0.0180407449129813
sba(iweight
Weight
p54
(dp55
g3
F-0.03833524924341474
sba(iweight
Weight
p56
(dp57
g3
F-0.013127977951643789
sba(iweight
Weight
p58
(dp59
g3
F-0.03403639411897859
sba(iweight
Weight
p60
(dp61
g3
F0.009769609087182319
sba(iweight
Weight
p62
(dp63
g3
F-0.012876639774918576
sba(iweight
Weight
p64
(dp65
g3
F0.0016342575219123413
sba(iweight
Weight
p66
(dp67
g3
F-0.022895854747816236
sba(iweight
Weight
p68
(dp69
g3
F-0.034618161163434406
sba(iweight
Weight
p70
(dp71
g3
F0.04891171195563859
sba(iweight
Weight
p72
(dp73
g3
F-0.011191027974426872
sba(iweight
Weight
p74
(dp75
g3
F-0.021645462631616832
sba(iweight
Weight
p76
(dp77
g3
F0.030029583490977563
sba(iweight
Weight
p78
(dp79
g3
F-0.034297845351830496
sba(iweight
Weight
p80
(dp81
g3
F0.008862357942168941
sba(iweight
Weight
p82
(dp83
g3
F0.03960077379369568
sba(iweight
Weight
p84
(dp85
g3
F-0.03522956198139807
sba(iweight
Weight
p86
(dp87
g3
F0.044807857301262126
sba(iweight
Weight
p88
(dp89
g3
F0.003066171117137573
sba(iweight
Weight
p90
(dp91
g3
F-0.0056459216677042685
sba(iweight
Weight
p92
(dp93
g3
F-0.006447379252427443
sba(iweight
Weight
p94
(dp95
g3
F0.0059382417100672935
sba(iweight
Weight
p96
(dp97
g3
F-0.040527267022458915
sba(iweight
Weight
p98
(dp99
g3
F0.027184374043473448
sba(iweight
Weight
p100
(dp101
g3
F-0.022519984609697886
sba(iweight
Weight
p102
(dp103
g3
F-0.02027198606027142
sba(iweight
Weight
p104
(dp105
g3
F-0.048957618642356975
sba(iweight
Weight
p106
(dp107
g3
F-0.03455941706555037
sba(iweight
Weight
p108
(dp109
g3
F0.008978080213580365
sba(iweight
Weight
p110
(dp111
g3
F0.007249445094996154
sba(iweight
Weight
p112
(dp113
g3
F-0.007295893169483714
sba(iweight
Weight
p114
(dp115
g3
F-0.027853083693020933
sba(iweight
Weight
p116
(dp117
g3
F-0.02074881752572623
sba(iweight
Weight
p118
(dp119
g3
F-0.006004390382537162
sba(iweight
Weight
p120
(dp121
g3
F0.037191422667604015
sba(iweight
Weight
p122
(dp123
g3
F-0.01604375093581314
sba(iweight
Weight
p124
(dp125
g3
F-0.03609633539241149
sba(iweight
Weight
p126
(dp127
g3
F0.009856245054007985
sba(iweight
Weight
p128
(dp129
g3
F0.023079419459795802
sba(iweight
Weight
p130
(dp131
g3
F0.026572280096290958
sba(iweight
Weight
p132
(dp133
g3
F-0.023769022558083632
sba(iweight
Weight
p134
(dp135
g3
F0.010998690818835134
sba(iweight
Weight
p136
(dp137
g3
F0.012448899236769673
sba(iweight
Weight
p138
(dp139
g3
F-0.03673442584019966
sba(iweight
Weight
p140
(dp141
g3
F-0.04533473153094665
sba(iweight
Weight
p142
(dp143
g3
F0.04201896217942444
sba(iweight
Weight
p144
(dp145
g3
F0.0370830550905092
sba(iweight
Weight
p146
(dp147
g3
F-0.04108709279803772
sba(iweight
Weight
p148
(dp149
g3
F-0.012479822919350814
sba(iweight
Weight
p150
(dp151
g3
F-0.005134861521515355
sba(iweight
Weight
p152
(dp153
g3
F-0.005886292356284917
sba(iweight
Weight
p154
(dp155
g3
F-0.018923983308963156
sba(iweight
Weight
p156
(dp157
g3
F0.047335492560182324
sba(iweight
Weight
p158
(dp159
g3
F0.043503691931199774
sba(iweight
Weight
p160
(dp161
g3
F0.021091003885051165
sba(iweight
Weight
p162
(dp163
g3
F-0.0372868239397055
sba(iweight
Weight
p164
(dp165
g3
F-0.004421391887165937
sba(iweight
Weight
p166
(dp167
g3
F0.018485851534645683
sba(iweight
Weight
p168
(dp169
g3
F0.0034998088870249024
sba(iweight
Weight
p170
(dp171
g3
F0.029109535819952695
sba(iweight
Weight
p172
(dp173
g3
F-0.01979106373531049
sba(iweight
Weight
p174
(dp175
g3
F-0.03389066312004645
sba(iweight
Weight
p176
(dp177
g3
F-0.0272863916211482
sba(iweight
Weight
p178
(dp179
g3
F0.013713300887049596
sba(iweight
Weight
p180
(dp181
g3
F-0.00739998997421738
sba(iweight
Weight
p182
(dp183
g3
F0.02748008167482724
sba(iweight
Weight
p184
(dp185
g3
F-0.044566718370793325
sba(iweight
Weight
p186
(dp187
g3
F-9.353970354983865e-05
sba(iweight
Weight
p188
(dp189
g3
F0.007265658713706958
sba(iweight
Weight
p190
(dp191
g3
F0.03247989543782683
sba(iweight
Weight
p192
(dp193
g3
F-0.015622590956948446
sba(iweight
Weight
p194
(dp195
g3
F0.0483365878797269
sba(iweight
Weight
p196
(dp197
g3
F-0.001018322332610111
sba(iweight
Weight
p198
(dp199
g3
F0.034721505265215016
sba(iweight
Weight
p200
(dp201
g3
F-0.02336901699402231
sba(iweight
Weight
p202
(dp203
g3
F-0.037286138463378596
sba(iweight
Weight
p204
(dp205
g3
F0.04795050723964959
sba(iweight
Weight
p206
(dp207
g3
F-0.039352180282677666
sba(iweight
Weight
p208
(dp209
g3
F-0.03048679166334083
sba(iweight
Weight
p210
(dp211
g3
F-0.04023555621526518
sba(iweight
Weight
p212
(dp213
g3
F-0.03002675962343492
sba(iweight
Weight
p214
(dp215
g3
F-0.004099482271458766
sba(iweight
Weight
p216
(dp217
g3
F0.039036795190757395
sba(iweight
Weight
p218
(dp219
g3
F0.04020885404855939
sba(iweight
Weight
p220
(dp221
g3
F-0.03201786250823251
sba(iweight
Weight
p222
(dp223
g3
F0.021398301743836712
sba(iweight
Weight
p224
(dp225
g3
F0.04208373120370745
sba(iweight
Weight
p226
(dp227
g3
F-0.03559979902758329
sba(iweight
Weight
p228
(dp229
g3
F-0.00902401209235284
sba(iweight
Weight
p230
(dp231
g3
F0.04889276631446591
sba(iweight
Weight
p232
(dp233
g3
F-0.021005051073868963
sba(iweight
Weight
p234
(dp235
g3
F-0.015003303958190162
sba(iweight
Weight
p236
(dp237
g3
F-0.003024884640440573
sba(iweight
Weight
p238
(dp239
g3
F-0.027855698240305062
sba(iweight
Weight
p240
(dp241
g3
F0.0008010776072549741
sba(iweight
Weight
p242
(dp243
g3
F0.010371259165711123
sba(iweight
Weight
p244
(dp245
g3
F0.012435906890796279
sba(iweight
Weight
p246
(dp247
g3
F-0.042078633820039346
sba(iweight
Weight
p248
(dp249
g3
F-0.034356600218981605
sba(iweight
Weight
p250
(dp251
g3
F0.03921896587289269
sba(iweight
Weight
p252
(dp253
g3
F-0.008886621579107768
sba(iweight
Weight
p254
(dp255
g3
F-0.03396429967084227
sba(iweight
Weight
p256
(dp257
g3
F-0.03446071711513506
sba(iweight
Weight
p258
(dp259
g3
F-0.011693214350688319
sba(iweight
Weight
p260
(dp261
g3
F-0.005774269104275087
sba(iweight
Weight
p262
(dp263
g3
F0.0030179453611134167
sba(iweight
Weight
p264
(dp265
g3
F0.02163948769901716
sba(iweight
Weight
p266
(dp267
g3
F0.006737488993795571
sba(iweight
Weight
p268
(dp269
g3
F0.016188185714186898
sba(iweight
Weight
p270
(dp271
g3
F-0.0036047012987218243
sba(iweight
Weight
p272
(dp273
g3
F0.03631580771646993
sba(iweight
Weight
p274
(dp275
g3
F-0.010100762606987768
sba(iweight
Weight
p276
(dp277
g3
F-0.045213457077862375
sba(iweight
Weight
p278
(dp279
g3
F0.003033632067951564
sba(iweight
Weight
p280
(dp281
g3
F0.03554128291442587
sba(iweight
Weight
p282
(dp283
g3
F-0.049677785543273935
sba(iweight
Weight
p284
(dp285
g3
F-0.03404647770681873
sba(iweight
Weight
p286
(dp287
g3
F0.035577362145422134
sba(iweight
Weight
p288
(dp289
g3
F-0.01189150649804227
sba(iweight
Weight
p290
(dp291
g3
F-0.045741657503642334
sba(iweight
Weight
p292
(dp293
g3
F0.007113631057296444
sba(iweight
Weight
p294
(dp295
g3
F-0.026647224865339905
sba(iweight
Weight
p296
(dp297
g3
F0.007905528922917394
sba(iweight
Weight
p298
(dp299
g3
F0.02715932921494312
sba(iweight
Weight
p300
(dp301
g3
F0.025351430282364973
sba(iweight
Weight
p302
(dp303
g3
F-0.0008422421347909604
sba(iweight
Weight
p304
(dp305
g3
F-0.02813017607314662
sba(iweight
Weight
p306
(dp307
g3
F-0.048938854496316644
sba(iweight
Weight
p308
(dp309
g3
F0.03849047469497027
sba(iweight
Weight
p310
(dp311
g3
F-0.018526695044293807
sba(iweight
Weight
p312
(dp313
g3
F0.010693423151399852
sba.