(lp0
(innWeight
NNWeight
p1
(dp2
S'val'
p3
F-0.011288474484676915
sba(innWeight
NNWeight
p4
(dp5
g3
F0.011909089322180967
sba(innWeight
NNWeight
p6
(dp7
g3
F0.021016346946489153
sba(innWeight
NNWeight
p8
(dp9
g3
F0.017783685059633125
sba(innWeight
NNWeight
p10
(dp11
g3
F-0.048821734382383214
sba(innWeight
NNWeight
p12
(dp13
g3
F0.010420684255728186
sba(innWeight
NNWeight
p14
(dp15
g3
F0.020875669700639976
sba(innWeight
NNWeight
p16
(dp17
g3
F-0.029355626088355992
sba(innWeight
NNWeight
p18
(dp19
g3
F0.0138254108960841
sba(innWeight
NNWeight
p20
(dp21
g3
F-0.005194722386602679
sba(innWeight
NNWeight
p22
(dp23
g3
F-0.009303201634555803
sba(innWeight
NNWeight
p24
(dp25
g3
F0.008902188942287914
sba(innWeight
NNWeight
p26
(dp27
g3
F-0.04030501348751664
sba(innWeight
NNWeight
p28
(dp29
g3
F-0.03694944496935048
sba(innWeight
NNWeight
p30
(dp31
g3
F-0.028878358871622836
sba(innWeight
NNWeight
p32
(dp33
g3
F-0.02598306485623222
sba(innWeight
NNWeight
p34
(dp35
g3
F-0.013975606190529634
sba(innWeight
NNWeight
p36
(dp37
g3
F0.023139291539550435
sba(innWeight
NNWeight
p38
(dp39
g3
F0.04672932651857489
sba(innWeight
NNWeight
p40
(dp41
g3
F-0.022269118833406744
sba(innWeight
NNWeight
p42
(dp43
g3
F-0.04497736631680214
sba(innWeight
NNWeight
p44
(dp45
g3
F-0.03923967666664255
sba(innWeight
NNWeight
p46
(dp47
g3
F-0.0023465088134714263
sba(innWeight
NNWeight
p48
(dp49
g3
F0.03456034999498592
sba(innWeight
NNWeight
p50
(dp51
g3
F0.023772701670618058
sba(innWeight
NNWeight
p52
(dp53
g3
F-0.04901001870411073
sba(innWeight
NNWeight
p54
(dp55
g3
F0.04550649524016941
sba(innWeight
NNWeight
p56
(dp57
g3
F0.048387458061992496
sba(innWeight
NNWeight
p58
(dp59
g3
F-0.0015909992179383048
sba(innWeight
NNWeight
p60
(dp61
g3
F-0.024004109056416447
sba(innWeight
NNWeight
p62
(dp63
g3
F-0.0330832102908589
sba(innWeight
NNWeight
p64
(dp65
g3
F0.0224798779878283
sba(innWeight
NNWeight
p66
(dp67
g3
F0.011666298591032576
sba(innWeight
NNWeight
p68
(dp69
g3
F0.0492012358538841
sba(innWeight
NNWeight
p70
(dp71
g3
F-0.015826302030717453
sba(innWeight
NNWeight
p72
(dp73
g3
F-0.013470356143837226
sba(innWeight
NNWeight
p74
(dp75
g3
F0.030817439111399694
sba(innWeight
NNWeight
p76
(dp77
g3
F-0.01630148547620467
sba(innWeight
NNWeight
p78
(dp79
g3
F0.014060671912323675
sba(innWeight
NNWeight
p80
(dp81
g3
F0.03420555575182612
sba(innWeight
NNWeight
p82
(dp83
g3
F0.0066358489971313
sba(innWeight
NNWeight
p84
(dp85
g3
F-0.04575842991587667
sba(innWeight
NNWeight
p86
(dp87
g3
F0.04944824448147355
sba(innWeight
NNWeight
p88
(dp89
g3
F0.006232177014444596
sba(innWeight
NNWeight
p90
(dp91
g3
F-0.001310639708557082
sba(innWeight
NNWeight
p92
(dp93
g3
F-0.045721717692143206
sba(innWeight
NNWeight
p94
(dp95
g3
F0.012883010805626694
sba(innWeight
NNWeight
p96
(dp97
g3
F0.007153641256500787
sba(innWeight
NNWeight
p98
(dp99
g3
F0.017217017053200525
sba(innWeight
NNWeight
p100
(dp101
g3
F-0.023689743313187062
sba(innWeight
NNWeight
p102
(dp103
g3
F0.048431680402726864
sba(innWeight
NNWeight
p104
(dp105
g3
F0.009160344833184564
sba(innWeight
NNWeight
p106
(dp107
g3
F-0.017859160553347433
sba(innWeight
NNWeight
p108
(dp109
g3
F-0.005136910495561953
sba(innWeight
NNWeight
p110
(dp111
g3
F-0.02265512487101308
sba(innWeight
NNWeight
p112
(dp113
g3
F-0.039779896152152494
sba(innWeight
NNWeight
p114
(dp115
g3
F0.01643933013607335
sba(innWeight
NNWeight
p116
(dp117
g3
F-0.016430666047625008
sba(innWeight
NNWeight
p118
(dp119
g3
F0.007763197723101134
sba(innWeight
NNWeight
p120
(dp121
g3
F-0.015830033516984223
sba(innWeight
NNWeight
p122
(dp123
g3
F-0.03023815944357694
sba(innWeight
NNWeight
p124
(dp125
g3
F-0.0441247780842631
sba(innWeight
NNWeight
p126
(dp127
g3
F-0.007582805608398036
sba(innWeight
NNWeight
p128
(dp129
g3
F-0.03770408497033317
sba(innWeight
NNWeight
p130
(dp131
g3
F0.006030947906339468
sba(innWeight
NNWeight
p132
(dp133
g3
F0.014792717222810904
sba(innWeight
NNWeight
p134
(dp135
g3
F-0.03621649134089055
sba(innWeight
NNWeight
p136
(dp137
g3
F-0.006289419497738114
sba(innWeight
NNWeight
p138
(dp139
g3
F-0.03958490109189178
sba(innWeight
NNWeight
p140
(dp141
g3
F-0.04498080016609031
sba(innWeight
NNWeight
p142
(dp143
g3
F-0.0024624340848240834
sba(innWeight
NNWeight
p144
(dp145
g3
F-0.03734377496666077
sba(innWeight
NNWeight
p146
(dp147
g3
F-0.00142683025783249
sba(innWeight
NNWeight
p148
(dp149
g3
F-0.012193691121728623
sba(innWeight
NNWeight
p150
(dp151
g3
F0.013861962674919116
sba(innWeight
NNWeight
p152
(dp153
g3
F0.00891087817763554
sba(innWeight
NNWeight
p154
(dp155
g3
F-0.00025729584223573856
sba(innWeight
NNWeight
p156
(dp157
g3
F-0.012319163681928258
sba(innWeight
NNWeight
p158
(dp159
g3
F-0.04026258926470566
sba(innWeight
NNWeight
p160
(dp161
g3
F-0.009133387172185791
sba(innWeight
NNWeight
p162
(dp163
g3
F-0.031732652276056
sba(innWeight
NNWeight
p164
(dp165
g3
F-0.023328544861091628
sba(innWeight
NNWeight
p166
(dp167
g3
F-0.006669479322996386
sba(innWeight
NNWeight
p168
(dp169
g3
F-0.04694544570247268
sba(innWeight
NNWeight
p170
(dp171
g3
F0.028674139112094977
sba(innWeight
NNWeight
p172
(dp173
g3
F-0.029486720775778342
sba(innWeight
NNWeight
p174
(dp175
g3
F0.010016851816316986
sba(innWeight
NNWeight
p176
(dp177
g3
F0.003984349677446708
sba(innWeight
NNWeight
p178
(dp179
g3
F-0.023365547971772205
sba(innWeight
NNWeight
p180
(dp181
g3
F0.0021806925443095706
sba(innWeight
NNWeight
p182
(dp183
g3
F0.02408005613673936
sba(innWeight
NNWeight
p184
(dp185
g3
F-0.0482072070628934
sba(innWeight
NNWeight
p186
(dp187
g3
F-0.03741907661280791
sba(innWeight
NNWeight
p188
(dp189
g3
F-0.04893459769234176
sba(innWeight
NNWeight
p190
(dp191
g3
F0.004680311414533555
sba(innWeight
NNWeight
p192
(dp193
g3
F0.03460080322074478
sba(innWeight
NNWeight
p194
(dp195
g3
F0.02848044472228265
sba(innWeight
NNWeight
p196
(dp197
g3
F0.023932672587460593
sba(innWeight
NNWeight
p198
(dp199
g3
F0.02723425701766522
sba(innWeight
NNWeight
p200
(dp201
g3
F-0.01905617657312543
sba(innWeight
NNWeight
p202
(dp203
g3
F-0.0360481388663269
sba(innWeight
NNWeight
p204
(dp205
g3
F0.00043883490944331973
sba(innWeight
NNWeight
p206
(dp207
g3
F-0.023462263998386537
sba(innWeight
NNWeight
p208
(dp209
g3
F-0.007491583222996668
sba(innWeight
NNWeight
p210
(dp211
g3
F0.025793193285004623
sba(innWeight
NNWeight
p212
(dp213
g3
F-0.03874799155324243
sba(innWeight
NNWeight
p214
(dp215
g3
F-0.00917348938006537
sba(innWeight
NNWeight
p216
(dp217
g3
F-0.03791482965958214
sba(innWeight
NNWeight
p218
(dp219
g3
F0.0327570746734791
sba(innWeight
NNWeight
p220
(dp221
g3
F0.03963949018003415
sba(innWeight
NNWeight
p222
(dp223
g3
F-0.0021495501449945833
sba(innWeight
NNWeight
p224
(dp225
g3
F0.024792363878794767
sba(innWeight
NNWeight
p226
(dp227
g3
F-0.01644965740906158
sba(innWeight
NNWeight
p228
(dp229
g3
F-0.012452870112255177
sba(innWeight
NNWeight
p230
(dp231
g3
F0.007509962550280181
sba(innWeight
NNWeight
p232
(dp233
g3
F0.02087007007842663
sba(innWeight
NNWeight
p234
(dp235
g3
F-0.0012329527987199774
sba(innWeight
NNWeight
p236
(dp237
g3
F0.02935367920859965
sba(innWeight
NNWeight
p238
(dp239
g3
F0.020722503793356217
sba(innWeight
NNWeight
p240
(dp241
g3
F-0.018246438120347163
sba(innWeight
NNWeight
p242
(dp243
g3
F0.010596856728816106
sba(innWeight
NNWeight
p244
(dp245
g3
F0.03453534224430743
sba(innWeight
NNWeight
p246
(dp247
g3
F-0.014978966903333658
sba(innWeight
NNWeight
p248
(dp249
g3
F0.04358015440755191
sba(innWeight
NNWeight
p250
(dp251
g3
F0.03872966294209834
sba(innWeight
NNWeight
p252
(dp253
g3
F0.020612873167441027
sba(innWeight
NNWeight
p254
(dp255
g3
F0.042869750656023026
sba(innWeight
NNWeight
p256
(dp257
g3
F-0.03513051810228638
sba(innWeight
NNWeight
p258
(dp259
g3
F-0.01078391043660546
sba(innWeight
NNWeight
p260
(dp261
g3
F0.016828880273096404
sba(innWeight
NNWeight
p262
(dp263
g3
F0.010687916099427142
sba(innWeight
NNWeight
p264
(dp265
g3
F0.03349572951726132
sba(innWeight
NNWeight
p266
(dp267
g3
F0.018691339447261625
sba(innWeight
NNWeight
p268
(dp269
g3
F-0.04645391131418413
sba(innWeight
NNWeight
p270
(dp271
g3
F-0.029955052236063175
sba(innWeight
NNWeight
p272
(dp273
g3
F-0.014649615379412728
sba(innWeight
NNWeight
p274
(dp275
g3
F-0.001335829199763039
sba(innWeight
NNWeight
p276
(dp277
g3
F0.03535570627309326
sba(innWeight
NNWeight
p278
(dp279
g3
F-0.0202218820762336
sba(innWeight
NNWeight
p280
(dp281
g3
F0.03394177786894316
sba(innWeight
NNWeight
p282
(dp283
g3
F0.03000757672363069
sba(innWeight
NNWeight
p284
(dp285
g3
F-0.04896836631700074
sba(innWeight
NNWeight
p286
(dp287
g3
F-0.013926188153967622
sba(innWeight
NNWeight
p288
(dp289
g3
F0.0020286826743813216
sba(innWeight
NNWeight
p290
(dp291
g3
F-0.0074381576540886955
sba(innWeight
NNWeight
p292
(dp293
g3
F-0.03955925045340417
sba(innWeight
NNWeight
p294
(dp295
g3
F0.01633706854833159
sba(innWeight
NNWeight
p296
(dp297
g3
F0.04885529253838375
sba(innWeight
NNWeight
p298
(dp299
g3
F0.036243584116778825
sba(innWeight
NNWeight
p300
(dp301
g3
F0.0018400905123795886
sba(innWeight
NNWeight
p302
(dp303
g3
F-0.009809348757300452
sba(innWeight
NNWeight
p304
(dp305
g3
F-0.043533687453718745
sba(innWeight
NNWeight
p306
(dp307
g3
F-0.029979280968498712
sba(innWeight
NNWeight
p308
(dp309
g3
F0.0210534631055492
sba(innWeight
NNWeight
p310
(dp311
g3
F-0.02164782733761508
sba(innWeight
NNWeight
p312
(dp313
g3
F-0.028013953729952457
sba.