(lp0
(innWeight
NNWeight
p1
(dp2
S'val'
p3
F0.00250829530363198
sba(innWeight
NNWeight
p4
(dp5
g3
F-0.008950643946349935
sba(innWeight
NNWeight
p6
(dp7
g3
F0.012103054038153883
sba(innWeight
NNWeight
p8
(dp9
g3
F-0.04009322291268508
sba(innWeight
NNWeight
p10
(dp11
g3
F-0.01288180903010312
sba(innWeight
NNWeight
p12
(dp13
g3
F0.019657940918834396
sba(innWeight
NNWeight
p14
(dp15
g3
F0.009734440830244773
sba(innWeight
NNWeight
p16
(dp17
g3
F0.018099374236858003
sba(innWeight
NNWeight
p18
(dp19
g3
F-0.03258180015521405
sba(innWeight
NNWeight
p20
(dp21
g3
F0.04937861667771201
sba(innWeight
NNWeight
p22
(dp23
g3
F-0.005114435087712344
sba(innWeight
NNWeight
p24
(dp25
g3
F-0.010659283173628166
sba(innWeight
NNWeight
p26
(dp27
g3
F0.0051991591966841335
sba(innWeight
NNWeight
p28
(dp29
g3
F-0.041030678460465424
sba(innWeight
NNWeight
p30
(dp31
g3
F0.0125230293988018
sba(innWeight
NNWeight
p32
(dp33
g3
F-0.030761294053456546
sba(innWeight
NNWeight
p34
(dp35
g3
F-0.02121255367392797
sba(innWeight
NNWeight
p36
(dp37
g3
F0.040356207836443725
sba(innWeight
NNWeight
p38
(dp39
g3
F-0.0020164114468412043
sba(innWeight
NNWeight
p40
(dp41
g3
F0.0002005592212596663
sba(innWeight
NNWeight
p42
(dp43
g3
F0.002299682857158647
sba(innWeight
NNWeight
p44
(dp45
g3
F-0.031276628489804094
sba(innWeight
NNWeight
p46
(dp47
g3
F-0.04341130369030334
sba(innWeight
NNWeight
p48
(dp49
g3
F0.004686368719582968
sba(innWeight
NNWeight
p50
(dp51
g3
F-0.026987748241583433
sba(innWeight
NNWeight
p52
(dp53
g3
F0.044061898609754305
sba(innWeight
NNWeight
p54
(dp55
g3
F-0.012822720550854982
sba(innWeight
NNWeight
p56
(dp57
g3
F0.017808344868201997
sba(innWeight
NNWeight
p58
(dp59
g3
F-0.016558841545398106
sba(innWeight
NNWeight
p60
(dp61
g3
F-0.04169606195518847
sba(innWeight
NNWeight
p62
(dp63
g3
F0.0011978567821822829
sba(innWeight
NNWeight
p64
(dp65
g3
F-0.02799182211737904
sba(innWeight
NNWeight
p66
(dp67
g3
F0.03307197624077468
sba(innWeight
NNWeight
p68
(dp69
g3
F0.016865927529386673
sba(innWeight
NNWeight
p70
(dp71
g3
F0.044378574431780726
sba(innWeight
NNWeight
p72
(dp73
g3
F0.021535303458091994
sba(innWeight
NNWeight
p74
(dp75
g3
F-0.023638561461644114
sba(innWeight
NNWeight
p76
(dp77
g3
F-0.021254202502375155
sba(innWeight
NNWeight
p78
(dp79
g3
F0.031172539663117494
sba(innWeight
NNWeight
p80
(dp81
g3
F-0.032195372363235435
sba(innWeight
NNWeight
p82
(dp83
g3
F0.021609733874162953
sba(innWeight
NNWeight
p84
(dp85
g3
F-0.01801496345298904
sba(innWeight
NNWeight
p86
(dp87
g3
F0.012966413506201547
sba(innWeight
NNWeight
p88
(dp89
g3
F0.04268848450127789
sba(innWeight
NNWeight
p90
(dp91
g3
F0.018160282895536884
sba(innWeight
NNWeight
p92
(dp93
g3
F0.023727737353751145
sba(innWeight
NNWeight
p94
(dp95
g3
F-0.043461258135072595
sba(innWeight
NNWeight
p96
(dp97
g3
F0.0018348217241207722
sba(innWeight
NNWeight
p98
(dp99
g3
F-0.014820151125680026
sba(innWeight
NNWeight
p100
(dp101
g3
F0.0006164144846833475
sba(innWeight
NNWeight
p102
(dp103
g3
F0.0021649187134698323
sba(innWeight
NNWeight
p104
(dp105
g3
F0.029612736401477616
sba(innWeight
NNWeight
p106
(dp107
g3
F0.04275687008099405
sba(innWeight
NNWeight
p108
(dp109
g3
F-0.02538082754224067
sba(innWeight
NNWeight
p110
(dp111
g3
F0.010189600501514386
sba(innWeight
NNWeight
p112
(dp113
g3
F0.02920563654374563
sba(innWeight
NNWeight
p114
(dp115
g3
F-0.026543891893626527
sba(innWeight
NNWeight
p116
(dp117
g3
F-0.008228911369495084
sba(innWeight
NNWeight
p118
(dp119
g3
F0.0489054677061751
sba(innWeight
NNWeight
p120
(dp121
g3
F-0.03260027873323932
sba(innWeight
NNWeight
p122
(dp123
g3
F-0.03730939700806179
sba(innWeight
NNWeight
p124
(dp125
g3
F0.02882169386683007
sba(innWeight
NNWeight
p126
(dp127
g3
F-0.02636386100435899
sba(innWeight
NNWeight
p128
(dp129
g3
F0.0229026131967347
sba(innWeight
NNWeight
p130
(dp131
g3
F-0.013505393680784617
sba(innWeight
NNWeight
p132
(dp133
g3
F-0.0011938913978387202
sba(innWeight
NNWeight
p134
(dp135
g3
F-0.027971976829420733
sba(innWeight
NNWeight
p136
(dp137
g3
F-0.03524067602038935
sba(innWeight
NNWeight
p138
(dp139
g3
F-0.030229986329708282
sba(innWeight
NNWeight
p140
(dp141
g3
F-0.003178184682164287
sba(innWeight
NNWeight
p142
(dp143
g3
F-0.03123251844217856
sba(innWeight
NNWeight
p144
(dp145
g3
F0.010742474577257001
sba(innWeight
NNWeight
p146
(dp147
g3
F-0.04663065973409896
sba(innWeight
NNWeight
p148
(dp149
g3
F-0.02512924625478953
sba(innWeight
NNWeight
p150
(dp151
g3
F-0.022605377499222968
sba(innWeight
NNWeight
p152
(dp153
g3
F-0.011568178209497904
sba(innWeight
NNWeight
p154
(dp155
g3
F-0.028642302862582316
sba(innWeight
NNWeight
p156
(dp157
g3
F-0.021904222270822307
sba(innWeight
NNWeight
p158
(dp159
g3
F-0.01865393462810624
sba(innWeight
NNWeight
p160
(dp161
g3
F0.030402682810636475
sba(innWeight
NNWeight
p162
(dp163
g3
F0.02349619620464123
sba(innWeight
NNWeight
p164
(dp165
g3
F0.016509906322205836
sba(innWeight
NNWeight
p166
(dp167
g3
F0.008324564989197147
sba(innWeight
NNWeight
p168
(dp169
g3
F-0.011265646996349988
sba(innWeight
NNWeight
p170
(dp171
g3
F-0.047954901942985254
sba(innWeight
NNWeight
p172
(dp173
g3
F0.014047789615813567
sba(innWeight
NNWeight
p174
(dp175
g3
F0.022390854312709832
sba(innWeight
NNWeight
p176
(dp177
g3
F-0.0010429558235970139
sba(innWeight
NNWeight
p178
(dp179
g3
F0.04489543122788106
sba(innWeight
NNWeight
p180
(dp181
g3
F-0.0031928592468274176
sba(innWeight
NNWeight
p182
(dp183
g3
F-0.011736447317702037
sba(innWeight
NNWeight
p184
(dp185
g3
F-0.014097479772267885
sba(innWeight
NNWeight
p186
(dp187
g3
F-0.022874211161709335
sba(innWeight
NNWeight
p188
(dp189
g3
F0.04619427988516217
sba(innWeight
NNWeight
p190
(dp191
g3
F-0.023427643445964208
sba(innWeight
NNWeight
p192
(dp193
g3
F0.014553541067451504
sba(innWeight
NNWeight
p194
(dp195
g3
F-0.013318635080991537
sba(innWeight
NNWeight
p196
(dp197
g3
F0.015593752702349606
sba(innWeight
NNWeight
p198
(dp199
g3
F0.006301019597246904
sba(innWeight
NNWeight
p200
(dp201
g3
F-0.018932298697639318
sba(innWeight
NNWeight
p202
(dp203
g3
F-0.02042417261230659
sba(innWeight
NNWeight
p204
(dp205
g3
F0.011856623551855983
sba(innWeight
NNWeight
p206
(dp207
g3
F0.0045034029462922235
sba(innWeight
NNWeight
p208
(dp209
g3
F-0.005718700562715052
sba(innWeight
NNWeight
p210
(dp211
g3
F0.010094819536630906
sba(innWeight
NNWeight
p212
(dp213
g3
F-0.039690276513171543
sba(innWeight
NNWeight
p214
(dp215
g3
F0.04097613758289717
sba(innWeight
NNWeight
p216
(dp217
g3
F0.031547221870975084
sba(innWeight
NNWeight
p218
(dp219
g3
F-0.027480070477177
sba(innWeight
NNWeight
p220
(dp221
g3
F-0.044280110637552376
sba(innWeight
NNWeight
p222
(dp223
g3
F-0.0477038690898445
sba(innWeight
NNWeight
p224
(dp225
g3
F0.029235305828688975
sba(innWeight
NNWeight
p226
(dp227
g3
F0.04249170730459881
sba(innWeight
NNWeight
p228
(dp229
g3
F0.04460751998705286
sba(innWeight
NNWeight
p230
(dp231
g3
F0.04553224552848915
sba(innWeight
NNWeight
p232
(dp233
g3
F0.026088437276705147
sba(innWeight
NNWeight
p234
(dp235
g3
F-0.04457764858535408
sba(innWeight
NNWeight
p236
(dp237
g3
F-0.04373088656330129
sba(innWeight
NNWeight
p238
(dp239
g3
F0.03105634883792572
sba(innWeight
NNWeight
p240
(dp241
g3
F0.01495866651463409
sba(innWeight
NNWeight
p242
(dp243
g3
F0.04271570962378405
sba(innWeight
NNWeight
p244
(dp245
g3
F-0.01650481895303022
sba(innWeight
NNWeight
p246
(dp247
g3
F-0.023296289105035697
sba(innWeight
NNWeight
p248
(dp249
g3
F-0.047703791164709256
sba(innWeight
NNWeight
p250
(dp251
g3
F0.03586758831853463
sba(innWeight
NNWeight
p252
(dp253
g3
F-0.0004169099330659676
sba(innWeight
NNWeight
p254
(dp255
g3
F0.036056361488086164
sba(innWeight
NNWeight
p256
(dp257
g3
F-0.0003266102077344457
sba(innWeight
NNWeight
p258
(dp259
g3
F0.033872983046659144
sba(innWeight
NNWeight
p260
(dp261
g3
F0.016171857016218483
sba(innWeight
NNWeight
p262
(dp263
g3
F0.035717803474147984
sba(innWeight
NNWeight
p264
(dp265
g3
F0.031858793051132685
sba(innWeight
NNWeight
p266
(dp267
g3
F0.046114177834113805
sba(innWeight
NNWeight
p268
(dp269
g3
F0.0409221367837817
sba(innWeight
NNWeight
p270
(dp271
g3
F-0.036231641097571855
sba(innWeight
NNWeight
p272
(dp273
g3
F-0.0319161914214721
sba(innWeight
NNWeight
p274
(dp275
g3
F-0.01857032150590394
sba(innWeight
NNWeight
p276
(dp277
g3
F-0.03866411530199376
sba(innWeight
NNWeight
p278
(dp279
g3
F0.04676067658328153
sba(innWeight
NNWeight
p280
(dp281
g3
F-0.03272365396052553
sba(innWeight
NNWeight
p282
(dp283
g3
F0.043286573505045056
sba(innWeight
NNWeight
p284
(dp285
g3
F-0.009259396940914022
sba(innWeight
NNWeight
p286
(dp287
g3
F-0.017226431505790063
sba(innWeight
NNWeight
p288
(dp289
g3
F0.04313046295597999
sba(innWeight
NNWeight
p290
(dp291
g3
F0.018563659041747095
sba(innWeight
NNWeight
p292
(dp293
g3
F-0.029933069176445472
sba(innWeight
NNWeight
p294
(dp295
g3
F-0.04593850297219302
sba(innWeight
NNWeight
p296
(dp297
g3
F0.03667448970564833
sba(innWeight
NNWeight
p298
(dp299
g3
F-0.03217574917147836
sba(innWeight
NNWeight
p300
(dp301
g3
F0.030413494869064653
sba(innWeight
NNWeight
p302
(dp303
g3
F0.04667488515059537
sba(innWeight
NNWeight
p304
(dp305
g3
F-0.048852924673080805
sba(innWeight
NNWeight
p306
(dp307
g3
F-0.0014707567150786473
sba(innWeight
NNWeight
p308
(dp309
g3
F0.03011225150187994
sba(innWeight
NNWeight
p310
(dp311
g3
F0.007560949159180131
sba(innWeight
NNWeight
p312
(dp313
g3
F-0.006625590278606453
sba.