(lp0
(innWeight
NNWeight
p1
(dp2
S'val'
p3
F0.03186664306983301
sba(innWeight
NNWeight
p4
(dp5
g3
F0.0044985081940825174
sba(innWeight
NNWeight
p6
(dp7
g3
F0.02461334878167251
sba(innWeight
NNWeight
p8
(dp9
g3
F0.0010839726204413295
sba(innWeight
NNWeight
p10
(dp11
g3
F0.02886432494160845
sba(innWeight
NNWeight
p12
(dp13
g3
F0.0377913308805393
sba(innWeight
NNWeight
p14
(dp15
g3
F0.006243816749913314
sba(innWeight
NNWeight
p16
(dp17
g3
F-0.011826272998605353
sba(innWeight
NNWeight
p18
(dp19
g3
F-0.042330649214681076
sba(innWeight
NNWeight
p20
(dp21
g3
F0.016035987049893324
sba(innWeight
NNWeight
p22
(dp23
g3
F-0.019253360430250856
sba(innWeight
NNWeight
p24
(dp25
g3
F0.015588402611414419
sba(innWeight
NNWeight
p26
(dp27
g3
F0.016306193209988083
sba(innWeight
NNWeight
p28
(dp29
g3
F-0.005555154019858505
sba(innWeight
NNWeight
p30
(dp31
g3
F-0.018329196009207793
sba(innWeight
NNWeight
p32
(dp33
g3
F0.04652006888473169
sba(innWeight
NNWeight
p34
(dp35
g3
F0.047237760897867125
sba(innWeight
NNWeight
p36
(dp37
g3
F0.04663083839575155
sba(innWeight
NNWeight
p38
(dp39
g3
F0.03878949179150161
sba(innWeight
NNWeight
p40
(dp41
g3
F-0.03913706720023333
sba(innWeight
NNWeight
p42
(dp43
g3
F-0.043732277898950275
sba(innWeight
NNWeight
p44
(dp45
g3
F0.0475564537107612
sba(innWeight
NNWeight
p46
(dp47
g3
F0.0227592602653689
sba(innWeight
NNWeight
p48
(dp49
g3
F0.03140844385524372
sba(innWeight
NNWeight
p50
(dp51
g3
F0.04042674446829599
sba(innWeight
NNWeight
p52
(dp53
g3
F0.01222786525654452
sba(innWeight
NNWeight
p54
(dp55
g3
F-0.032448618977463504
sba(innWeight
NNWeight
p56
(dp57
g3
F0.03565216493013219
sba(innWeight
NNWeight
p58
(dp59
g3
F0.04897714818796964
sba(innWeight
NNWeight
p60
(dp61
g3
F-0.03339533584747804
sba(innWeight
NNWeight
p62
(dp63
g3
F-0.043854161939283626
sba(innWeight
NNWeight
p64
(dp65
g3
F0.020354605534600983
sba(innWeight
NNWeight
p66
(dp67
g3
F-0.0030546672074909533
sba(innWeight
NNWeight
p68
(dp69
g3
F0.03335724920059173
sba(innWeight
NNWeight
p70
(dp71
g3
F-0.001608595630668919
sba(innWeight
NNWeight
p72
(dp73
g3
F0.0045230029916231386
sba(innWeight
NNWeight
p74
(dp75
g3
F-0.045073598643204225
sba(innWeight
NNWeight
p76
(dp77
g3
F-0.031281484705949526
sba(innWeight
NNWeight
p78
(dp79
g3
F0.020893285760809285
sba(innWeight
NNWeight
p80
(dp81
g3
F-0.026406706894827985
sba(innWeight
NNWeight
p82
(dp83
g3
F0.01290210202032353
sba(innWeight
NNWeight
p84
(dp85
g3
F-0.013858761333651284
sba(innWeight
NNWeight
p86
(dp87
g3
F0.011016592141072628
sba(innWeight
NNWeight
p88
(dp89
g3
F-0.00733684957476502
sba(innWeight
NNWeight
p90
(dp91
g3
F-0.040891191239743885
sba(innWeight
NNWeight
p92
(dp93
g3
F0.028745603853996278
sba(innWeight
NNWeight
p94
(dp95
g3
F0.027830449693514548
sba(innWeight
NNWeight
p96
(dp97
g3
F-0.0440878068110851
sba(innWeight
NNWeight
p98
(dp99
g3
F0.020336829878790787
sba(innWeight
NNWeight
p100
(dp101
g3
F0.04765556380889429
sba(innWeight
NNWeight
p102
(dp103
g3
F0.032306008612541647
sba(innWeight
NNWeight
p104
(dp105
g3
F-0.027625586443248182
sba(innWeight
NNWeight
p106
(dp107
g3
F-0.02053709475811328
sba(innWeight
NNWeight
p108
(dp109
g3
F-0.04059873083166549
sba(innWeight
NNWeight
p110
(dp111
g3
F-0.007145863941874098
sba(innWeight
NNWeight
p112
(dp113
g3
F-0.0016212799344358254
sba(innWeight
NNWeight
p114
(dp115
g3
F-0.004756508030712955
sba(innWeight
NNWeight
p116
(dp117
g3
F0.001798036432253744
sba(innWeight
NNWeight
p118
(dp119
g3
F-0.04181424500369027
sba(innWeight
NNWeight
p120
(dp121
g3
F-0.01160039415922354
sba(innWeight
NNWeight
p122
(dp123
g3
F0.0009377264640045481
sba(innWeight
NNWeight
p124
(dp125
g3
F-0.04990485789791711
sba(innWeight
NNWeight
p126
(dp127
g3
F0.0024739112597167317
sba(innWeight
NNWeight
p128
(dp129
g3
F0.03792576766252132
sba(innWeight
NNWeight
p130
(dp131
g3
F-0.017014766376035287
sba(innWeight
NNWeight
p132
(dp133
g3
F0.030395542769328165
sba(innWeight
NNWeight
p134
(dp135
g3
F-0.015379418531630946
sba(innWeight
NNWeight
p136
(dp137
g3
F0.03213295696327352
sba(innWeight
NNWeight
p138
(dp139
g3
F0.022276725821738546
sba(innWeight
NNWeight
p140
(dp141
g3
F0.049259790847536615
sba(innWeight
NNWeight
p142
(dp143
g3
F-0.022346139646692253
sba(innWeight
NNWeight
p144
(dp145
g3
F-0.05075390205383896
sba(innWeight
NNWeight
p146
(dp147
g3
F0.010678090292453384
sba(innWeight
NNWeight
p148
(dp149
g3
F-0.04152536720546285
sba(innWeight
NNWeight
p150
(dp151
g3
F-0.049163517533621574
sba(innWeight
NNWeight
p152
(dp153
g3
F-0.04225619533026446
sba(innWeight
NNWeight
p154
(dp155
g3
F-0.04277629086234291
sba(innWeight
NNWeight
p156
(dp157
g3
F0.02740953529563438
sba(innWeight
NNWeight
p158
(dp159
g3
F0.0435322396603048
sba(innWeight
NNWeight
p160
(dp161
g3
F-0.00822774034911424
sba(innWeight
NNWeight
p162
(dp163
g3
F-0.01973904510176927
sba(innWeight
NNWeight
p164
(dp165
g3
F0.01888776886726171
sba(innWeight
NNWeight
p166
(dp167
g3
F-0.025470797624209972
sba(innWeight
NNWeight
p168
(dp169
g3
F-0.02674545169735591
sba(innWeight
NNWeight
p170
(dp171
g3
F-0.019887260456402905
sba(innWeight
NNWeight
p172
(dp173
g3
F0.021502745554930675
sba(innWeight
NNWeight
p174
(dp175
g3
F0.03650073379404959
sba(innWeight
NNWeight
p176
(dp177
g3
F0.017043026422876594
sba(innWeight
NNWeight
p178
(dp179
g3
F-0.004858954797681683
sba(innWeight
NNWeight
p180
(dp181
g3
F0.03780077369555966
sba(innWeight
NNWeight
p182
(dp183
g3
F-0.031174544897982118
sba(innWeight
NNWeight
p184
(dp185
g3
F-0.034824729770190535
sba(innWeight
NNWeight
p186
(dp187
g3
F-0.04171676536474316
sba(innWeight
NNWeight
p188
(dp189
g3
F0.031090030456799554
sba(innWeight
NNWeight
p190
(dp191
g3
F-0.0464181003558787
sba(innWeight
NNWeight
p192
(dp193
g3
F0.00838371802838857
sba(innWeight
NNWeight
p194
(dp195
g3
F-0.0011581496109831675
sba(innWeight
NNWeight
p196
(dp197
g3
F0.028441279070379123
sba(innWeight
NNWeight
p198
(dp199
g3
F0.010660644589350472
sba(innWeight
NNWeight
p200
(dp201
g3
F0.0428255039505078
sba(innWeight
NNWeight
p202
(dp203
g3
F-0.046047101810564275
sba(innWeight
NNWeight
p204
(dp205
g3
F0.016651726355095643
sba(innWeight
NNWeight
p206
(dp207
g3
F0.03520662718428787
sba(innWeight
NNWeight
p208
(dp209
g3
F-0.013244515538251168
sba(innWeight
NNWeight
p210
(dp211
g3
F-0.04310909125662085
sba(innWeight
NNWeight
p212
(dp213
g3
F-0.026985728088401214
sba(innWeight
NNWeight
p214
(dp215
g3
F0.024118849786992448
sba(innWeight
NNWeight
p216
(dp217
g3
F-0.04247003847068817
sba(innWeight
NNWeight
p218
(dp219
g3
F-0.054043859071955754
sba(innWeight
NNWeight
p220
(dp221
g3
F-0.004649037782362516
sba(innWeight
NNWeight
p222
(dp223
g3
F-0.015935483390032697
sba(innWeight
NNWeight
p224
(dp225
g3
F-0.035652369673538194
sba(innWeight
NNWeight
p226
(dp227
g3
F-0.018047571067206197
sba(innWeight
NNWeight
p228
(dp229
g3
F-0.03213946495191563
sba(innWeight
NNWeight
p230
(dp231
g3
F-0.018849836700937803
sba(innWeight
NNWeight
p232
(dp233
g3
F-0.04553432368690301
sba(innWeight
NNWeight
p234
(dp235
g3
F0.04447477512773294
sba(innWeight
NNWeight
p236
(dp237
g3
F0.021043662143539418
sba(innWeight
NNWeight
p238
(dp239
g3
F0.05319453026097879
sba(innWeight
NNWeight
p240
(dp241
g3
F-0.019227199846734738
sba(innWeight
NNWeight
p242
(dp243
g3
F0.043921867591669016
sba(innWeight
NNWeight
p244
(dp245
g3
F0.012023991858442223
sba(innWeight
NNWeight
p246
(dp247
g3
F-0.026041255640085324
sba(innWeight
NNWeight
p248
(dp249
g3
F-0.0235693744856799
sba(innWeight
NNWeight
p250
(dp251
g3
F0.017871746306547164
sba(innWeight
NNWeight
p252
(dp253
g3
F0.04259539170617417
sba(innWeight
NNWeight
p254
(dp255
g3
F-0.0051199965696827636
sba(innWeight
NNWeight
p256
(dp257
g3
F0.001364778663895603
sba(innWeight
NNWeight
p258
(dp259
g3
F0.03844715843259229
sba(innWeight
NNWeight
p260
(dp261
g3
F-0.027083526552807338
sba(innWeight
NNWeight
p262
(dp263
g3
F-0.009341548049179232
sba(innWeight
NNWeight
p264
(dp265
g3
F0.047381077450977416
sba(innWeight
NNWeight
p266
(dp267
g3
F-0.020542403985145695
sba(innWeight
NNWeight
p268
(dp269
g3
F0.031548440903085444
sba(innWeight
NNWeight
p270
(dp271
g3
F-0.024426848656408467
sba(innWeight
NNWeight
p272
(dp273
g3
F-0.02770733624022054
sba(innWeight
NNWeight
p274
(dp275
g3
F0.017362959416655447
sba(innWeight
NNWeight
p276
(dp277
g3
F-0.030090793451480892
sba(innWeight
NNWeight
p278
(dp279
g3
F-0.01073842690706677
sba(innWeight
NNWeight
p280
(dp281
g3
F-0.04675606964888222
sba(innWeight
NNWeight
p282
(dp283
g3
F-0.04392899091424977
sba(innWeight
NNWeight
p284
(dp285
g3
F0.008992045308699643
sba(innWeight
NNWeight
p286
(dp287
g3
F-0.04235617951970479
sba(innWeight
NNWeight
p288
(dp289
g3
F0.01900494168907035
sba(innWeight
NNWeight
p290
(dp291
g3
F-0.02051038184091561
sba(innWeight
NNWeight
p292
(dp293
g3
F0.013160590502002897
sba(innWeight
NNWeight
p294
(dp295
g3
F0.02021696925426002
sba(innWeight
NNWeight
p296
(dp297
g3
F0.04293974251242907
sba(innWeight
NNWeight
p298
(dp299
g3
F0.033693104896110986
sba(innWeight
NNWeight
p300
(dp301
g3
F-0.023593429403715865
sba(innWeight
NNWeight
p302
(dp303
g3
F0.01856532187059882
sba(innWeight
NNWeight
p304
(dp305
g3
F0.0490467876582651
sba(innWeight
NNWeight
p306
(dp307
g3
F0.021058881391450818
sba(innWeight
NNWeight
p308
(dp309
g3
F-0.0014120799456407722
sba(innWeight
NNWeight
p310
(dp311
g3
F-0.02890028940868168
sba(innWeight
NNWeight
p312
(dp313
g3
F-0.01661785081649443
sba(innWeight
NNWeight
p314
(dp315
g3
F0.03255418661517236
sba(innWeight
NNWeight
p316
(dp317
g3
F0.04592031485362947
sba(innWeight
NNWeight
p318
(dp319
g3
F-0.02248001500336704
sba(innWeight
NNWeight
p320
(dp321
g3
F-0.03626483896682109
sba(innWeight
NNWeight
p322
(dp323
g3
F0.016229293949535494
sba(innWeight
NNWeight
p324
(dp325
g3
F-0.028533354848543566
sba(innWeight
NNWeight
p326
(dp327
g3
F-0.043299431392376964
sba(innWeight
NNWeight
p328
(dp329
g3
F0.011348056794702941
sba(innWeight
NNWeight
p330
(dp331
g3
F-0.004269864055975348
sba(innWeight
NNWeight
p332
(dp333
g3
F-0.03529369995838471
sba(innWeight
NNWeight
p334
(dp335
g3
F0.018131044627188266
sba(innWeight
NNWeight
p336
(dp337
g3
F0.004016629149391793
sba(innWeight
NNWeight
p338
(dp339
g3
F0.03172374615958714
sba(innWeight
NNWeight
p340
(dp341
g3
F-0.037691777972581504
sba(innWeight
NNWeight
p342
(dp343
g3
F-0.007168445007972649
sba(innWeight
NNWeight
p344
(dp345
g3
F-0.037607607441522264
sba(innWeight
NNWeight
p346
(dp347
g3
F-0.007324910510286412
sba(innWeight
NNWeight
p348
(dp349
g3
F-0.04521111688276061
sba(innWeight
NNWeight
p350
(dp351
g3
F-0.007875003268083504
sba(innWeight
NNWeight
p352
(dp353
g3
F0.018319622640243612
sba(innWeight
NNWeight
p354
(dp355
g3
F-0.043120334706626115
sba(innWeight
NNWeight
p356
(dp357
g3
F0.048542274327399916
sba(innWeight
NNWeight
p358
(dp359
g3
F-0.002368852943761667
sba(innWeight
NNWeight
p360
(dp361
g3
F-0.044741418298511484
sba(innWeight
NNWeight
p362
(dp363
g3
F-0.010262222946311806
sba(innWeight
NNWeight
p364
(dp365
g3
F0.034568025405616855
sba(innWeight
NNWeight
p366
(dp367
g3
F-0.026713955053840135
sba(innWeight
NNWeight
p368
(dp369
g3
F-0.033806940589921244
sba(innWeight
NNWeight
p370
(dp371
g3
F-0.02234916144410184
sba(innWeight
NNWeight
p372
(dp373
g3
F-0.0024517293075543758
sba(innWeight
NNWeight
p374
(dp375
g3
F0.03493448786234508
sba(innWeight
NNWeight
p376
(dp377
g3
F0.008166873362287977
sba(innWeight
NNWeight
p378
(dp379
g3
F-0.0468676957481733
sba(innWeight
NNWeight
p380
(dp381
g3
F0.008480841953413953
sba(innWeight
NNWeight
p382
(dp383
g3
F0.027660513322044965
sba(innWeight
NNWeight
p384
(dp385
g3
F-0.010367424068410505
sba(innWeight
NNWeight
p386
(dp387
g3
F-0.007879108439335886
sba(innWeight
NNWeight
p388
(dp389
g3
F-0.03246454710512099
sba(innWeight
NNWeight
p390
(dp391
g3
F-0.016103902165233264
sba(innWeight
NNWeight
p392
(dp393
g3
F-0.04726326482293242
sba(innWeight
NNWeight
p394
(dp395
g3
F0.010477316415435868
sba(innWeight
NNWeight
p396
(dp397
g3
F-0.014025999286866025
sba(innWeight
NNWeight
p398
(dp399
g3
F0.008737745553198607
sba(innWeight
NNWeight
p400
(dp401
g3
F-0.00381153462853778
sba(innWeight
NNWeight
p402
(dp403
g3
F0.011871922674864784
sba(innWeight
NNWeight
p404
(dp405
g3
F-0.0308206421892468
sba(innWeight
NNWeight
p406
(dp407
g3
F0.010421156149642709
sba(innWeight
NNWeight
p408
(dp409
g3
F-0.040018522102283176
sba(innWeight
NNWeight
p410
(dp411
g3
F0.03973048842658941
sba(innWeight
NNWeight
p412
(dp413
g3
F0.01071018842718267
sba(innWeight
NNWeight
p414
(dp415
g3
F0.0013270280823606362
sba(innWeight
NNWeight
p416
(dp417
g3
F0.035188197450258925
sba(innWeight
NNWeight
p418
(dp419
g3
F-0.009421886356791259
sba(innWeight
NNWeight
p420
(dp421
g3
F-0.03460060303994288
sba(innWeight
NNWeight
p422
(dp423
g3
F-0.015866441232301343
sba(innWeight
NNWeight
p424
(dp425
g3
F-0.0009083574633187414
sba(innWeight
NNWeight
p426
(dp427
g3
F-0.03763232037377768
sba(innWeight
NNWeight
p428
(dp429
g3
F-0.04867157615719692
sba(innWeight
NNWeight
p430
(dp431
g3
F-0.034811948878289346
sba(innWeight
NNWeight
p432
(dp433
g3
F-0.02565370469974752
sba(innWeight
NNWeight
p434
(dp435
g3
F0.00755464766220907
sba(innWeight
NNWeight
p436
(dp437
g3
F-0.03420328831262644
sba(innWeight
NNWeight
p438
(dp439
g3
F-0.04018827930185876
sba(innWeight
NNWeight
p440
(dp441
g3
F-0.011575743781969041
sba(innWeight
NNWeight
p442
(dp443
g3
F-0.015331647533794235
sba(innWeight
NNWeight
p444
(dp445
g3
F0.011356943780799506
sba(innWeight
NNWeight
p446
(dp447
g3
F0.03946040636970368
sba(innWeight
NNWeight
p448
(dp449
g3
F7.586975344486942e-05
sba(innWeight
NNWeight
p450
(dp451
g3
F-0.007321205623548474
sba(innWeight
NNWeight
p452
(dp453
g3
F0.04272865808289553
sba(innWeight
NNWeight
p454
(dp455
g3
F0.01973427409693937
sba(innWeight
NNWeight
p456
(dp457
g3
F-0.03696444816653259
sba(innWeight
NNWeight
p458
(dp459
g3
F0.029314604192843076
sba(innWeight
NNWeight
p460
(dp461
g3
F-0.04426314948190598
sba(innWeight
NNWeight
p462
(dp463
g3
F0.0021819504889966958
sba(innWeight
NNWeight
p464
(dp465
g3
F-0.039537505467319115
sba(innWeight
NNWeight
p466
(dp467
g3
F0.03089100667419008
sba(innWeight
NNWeight
p468
(dp469
g3
F0.033002434810399765
sba(innWeight
NNWeight
p470
(dp471
g3
F-0.02547451759745818
sba(innWeight
NNWeight
p472
(dp473
g3
F-0.03697053765944898
sba(innWeight
NNWeight
p474
(dp475
g3
F0.04213527446793188
sba(innWeight
NNWeight
p476
(dp477
g3
F-0.03069852508306759
sba(innWeight
NNWeight
p478
(dp479
g3
F0.04172876917859875
sba(innWeight
NNWeight
p480
(dp481
g3
F0.0009303633608824475
sba(innWeight
NNWeight
p482
(dp483
g3
F-0.0067863301501574855
sba(innWeight
NNWeight
p484
(dp485
g3
F-0.0040896699207739595
sba(innWeight
NNWeight
p486
(dp487
g3
F-0.00680696408835503
sba(innWeight
NNWeight
p488
(dp489
g3
F0.04806476482252006
sba(innWeight
NNWeight
p490
(dp491
g3
F0.04195599091352685
sba(innWeight
NNWeight
p492
(dp493
g3
F0.013800286072720875
sba(innWeight
NNWeight
p494
(dp495
g3
F0.020167678064840606
sba(innWeight
NNWeight
p496
(dp497
g3
F0.03866715350083069
sba(innWeight
NNWeight
p498
(dp499
g3
F-0.012674516168820092
sba(innWeight
NNWeight
p500
(dp501
g3
F0.007263004232721227
sba(innWeight
NNWeight
p502
(dp503
g3
F-0.03868440910532526
sba(innWeight
NNWeight
p504
(dp505
g3
F0.014066356166471523
sba(innWeight
NNWeight
p506
(dp507
g3
F0.043299114310258395
sba(innWeight
NNWeight
p508
(dp509
g3
F0.02315297091866261
sba(innWeight
NNWeight
p510
(dp511
g3
F-0.040291567694913794
sba(innWeight
NNWeight
p512
(dp513
g3
F-0.03230403136003291
sba(innWeight
NNWeight
p514
(dp515
g3
F-0.02799939017845986
sba(innWeight
NNWeight
p516
(dp517
g3
F0.025205054712985068
sba(innWeight
NNWeight
p518
(dp519
g3
F0.04444867049408256
sba(innWeight
NNWeight
p520
(dp521
g3
F-0.04593370105106858
sba(innWeight
NNWeight
p522
(dp523
g3
F0.03222832243567004
sba(innWeight
NNWeight
p524
(dp525
g3
F-0.044196976679824536
sba(innWeight
NNWeight
p526
(dp527
g3
F0.02860841730636698
sba(innWeight
NNWeight
p528
(dp529
g3
F-0.02831549715616371
sba(innWeight
NNWeight
p530
(dp531
g3
F-0.02783278095854618
sba(innWeight
NNWeight
p532
(dp533
g3
F0.0453655034973213
sba(innWeight
NNWeight
p534
(dp535
g3
F-0.032092901871712654
sba(innWeight
NNWeight
p536
(dp537
g3
F0.013860959127054508
sba(innWeight
NNWeight
p538
(dp539
g3
F-0.025142401604040854
sba(innWeight
NNWeight
p540
(dp541
g3
F0.022919791528015668
sba(innWeight
NNWeight
p542
(dp543
g3
F-0.04419871615793001
sba(innWeight
NNWeight
p544
(dp545
g3
F0.0037794246466025714
sba(innWeight
NNWeight
p546
(dp547
g3
F-0.003360519272204174
sba(innWeight
NNWeight
p548
(dp549
g3
F-0.04091689919799484
sba(innWeight
NNWeight
p550
(dp551
g3
F-0.03369677382597639
sba(innWeight
NNWeight
p552
(dp553
g3
F-0.009562294456096082
sba(innWeight
NNWeight
p554
(dp555
g3
F0.0128311569400511
sba(innWeight
NNWeight
p556
(dp557
g3
F-0.045145164040591844
sba(innWeight
NNWeight
p558
(dp559
g3
F0.009009565456750013
sba(innWeight
NNWeight
p560
(dp561
g3
F-0.022715565781777584
sba(innWeight
NNWeight
p562
(dp563
g3
F0.04729938673790236
sba(innWeight
NNWeight
p564
(dp565
g3
F0.0006156970810820293
sba(innWeight
NNWeight
p566
(dp567
g3
F0.026225078760463063
sba(innWeight
NNWeight
p568
(dp569
g3
F-0.04800054419484744
sba(innWeight
NNWeight
p570
(dp571
g3
F0.042593800952739125
sba(innWeight
NNWeight
p572
(dp573
g3
F0.01348097059808926
sba(innWeight
NNWeight
p574
(dp575
g3
F0.016743121581662863
sba(innWeight
NNWeight
p576
(dp577
g3
F0.044831582512434145
sba(innWeight
NNWeight
p578
(dp579
g3
F0.0137681145561779
sba(innWeight
NNWeight
p580
(dp581
g3
F-0.031817732211972656
sba(innWeight
NNWeight
p582
(dp583
g3
F-0.04175812769432679
sba(innWeight
NNWeight
p584
(dp585
g3
F-0.043351088138198546
sba(innWeight
NNWeight
p586
(dp587
g3
F-0.046965966128680245
sba(innWeight
NNWeight
p588
(dp589
g3
F0.006630481707491443
sba(innWeight
NNWeight
p590
(dp591
g3
F-0.0035052363650856155
sba(innWeight
NNWeight
p592
(dp593
g3
F-0.0471865693927074
sba(innWeight
NNWeight
p594
(dp595
g3
F0.0383204245333791
sba(innWeight
NNWeight
p596
(dp597
g3
F0.007568601764610111
sba(innWeight
NNWeight
p598
(dp599
g3
F0.029783935619697343
sba(innWeight
NNWeight
p600
(dp601
g3
F0.004479228833805292
sba(innWeight
NNWeight
p602
(dp603
g3
F0.024677595435931697
sba(innWeight
NNWeight
p604
(dp605
g3
F-0.04065154295070967
sba(innWeight
NNWeight
p606
(dp607
g3
F0.011446789250042978
sba(innWeight
NNWeight
p608
(dp609
g3
F-0.024618455047201265
sba(innWeight
NNWeight
p610
(dp611
g3
F-0.013842972307877111
sba(innWeight
NNWeight
p612
(dp613
g3
F0.004874274423941602
sba(innWeight
NNWeight
p614
(dp615
g3
F0.000915243365556711
sba(innWeight
NNWeight
p616
(dp617
g3
F-0.03914459784053774
sba(innWeight
NNWeight
p618
(dp619
g3
F0.003950334505635974
sba(innWeight
NNWeight
p620
(dp621
g3
F0.04185494555455444
sba(innWeight
NNWeight
p622
(dp623
g3
F0.019990948642601394
sba(innWeight
NNWeight
p624
(dp625
g3
F-0.04179112391629745
sba(innWeight
NNWeight
p626
(dp627
g3
F-0.0048088354831283524
sba(innWeight
NNWeight
p628
(dp629
g3
F-0.025309890385914302
sba(innWeight
NNWeight
p630
(dp631
g3
F0.028937370328801976
sba(innWeight
NNWeight
p632
(dp633
g3
F-0.024334698952500976
sba(innWeight
NNWeight
p634
(dp635
g3
F0.04991916261551897
sba(innWeight
NNWeight
p636
(dp637
g3
F-0.026060275161782193
sba(innWeight
NNWeight
p638
(dp639
g3
F0.03691046786114708
sba(innWeight
NNWeight
p640
(dp641
g3
F-0.03728857498902417
sba(innWeight
NNWeight
p642
(dp643
g3
F-0.0358382565268729
sba(innWeight
NNWeight
p644
(dp645
g3
F0.02694128278898739
sba(innWeight
NNWeight
p646
(dp647
g3
F0.0008514892945555491
sba(innWeight
NNWeight
p648
(dp649
g3
F-0.01911855602971403
sba(innWeight
NNWeight
p650
(dp651
g3
F0.027100729969401494
sba(innWeight
NNWeight
p652
(dp653
g3
F-0.01077037973016413
sba(innWeight
NNWeight
p654
(dp655
g3
F0.020117508567829026
sba(innWeight
NNWeight
p656
(dp657
g3
F-0.04033292241374938
sba(innWeight
NNWeight
p658
(dp659
g3
F-0.025430551353667678
sba(innWeight
NNWeight
p660
(dp661
g3
F0.04573052515642736
sba(innWeight
NNWeight
p662
(dp663
g3
F-0.019264498105493105
sba(innWeight
NNWeight
p664
(dp665
g3
F-0.03625411027441422
sba(innWeight
NNWeight
p666
(dp667
g3
F-0.03483386493240415
sba(innWeight
NNWeight
p668
(dp669
g3
F0.04787438257752979
sba(innWeight
NNWeight
p670
(dp671
g3
F0.043351678505583496
sba(innWeight
NNWeight
p672
(dp673
g3
F-0.019848708865008478
sba(innWeight
NNWeight
p674
(dp675
g3
F-0.02009458101511282
sba(innWeight
NNWeight
p676
(dp677
g3
F0.04669482610873067
sba(innWeight
NNWeight
p678
(dp679
g3
F-0.009192774886198182
sba(innWeight
NNWeight
p680
(dp681
g3
F0.0047048392253950895
sba(innWeight
NNWeight
p682
(dp683
g3
F0.02022627672002091
sba(innWeight
NNWeight
p684
(dp685
g3
F-0.022099359830984374
sba(innWeight
NNWeight
p686
(dp687
g3
F0.03803690398862985
sba(innWeight
NNWeight
p688
(dp689
g3
F-0.03571964180911084
sba(innWeight
NNWeight
p690
(dp691
g3
F-0.03361308636255976
sba(innWeight
NNWeight
p692
(dp693
g3
F0.04279723720413599
sba(innWeight
NNWeight
p694
(dp695
g3
F-0.007410286687116341
sba(innWeight
NNWeight
p696
(dp697
g3
F0.04070903222984535
sba(innWeight
NNWeight
p698
(dp699
g3
F-0.01571085746627433
sba(innWeight
NNWeight
p700
(dp701
g3
F-0.0113287097218818
sba(innWeight
NNWeight
p702
(dp703
g3
F0.02629297763945829
sba(innWeight
NNWeight
p704
(dp705
g3
F0.04616287763273461
sba(innWeight
NNWeight
p706
(dp707
g3
F-0.04519651465789
sba(innWeight
NNWeight
p708
(dp709
g3
F-0.0012680095166587883
sba(innWeight
NNWeight
p710
(dp711
g3
F-0.03291528715423504
sba(innWeight
NNWeight
p712
(dp713
g3
F0.018428467460049957
sba(innWeight
NNWeight
p714
(dp715
g3
F0.04850020048149868
sba(innWeight
NNWeight
p716
(dp717
g3
F0.016879794571729164
sba(innWeight
NNWeight
p718
(dp719
g3
F0.012072388636637654
sba(innWeight
NNWeight
p720
(dp721
g3
F0.015068189996971175
sba(innWeight
NNWeight
p722
(dp723
g3
F-0.01129249427390649
sba(innWeight
NNWeight
p724
(dp725
g3
F0.006416020209805374
sba(innWeight
NNWeight
p726
(dp727
g3
F0.005596881801713474
sba(innWeight
NNWeight
p728
(dp729
g3
F-0.045186034855201715
sba(innWeight
NNWeight
p730
(dp731
g3
F0.004632261243889893
sba(innWeight
NNWeight
p732
(dp733
g3
F0.007703952661804382
sba(innWeight
NNWeight
p734
(dp735
g3
F-0.013761617950555088
sba(innWeight
NNWeight
p736
(dp737
g3
F-0.0230729411626756
sba(innWeight
NNWeight
p738
(dp739
g3
F-0.019889915876480275
sba(innWeight
NNWeight
p740
(dp741
g3
F0.02751132746424584
sba(innWeight
NNWeight
p742
(dp743
g3
F-0.01283582100747543
sba(innWeight
NNWeight
p744
(dp745
g3
F0.029991812862306913
sba(innWeight
NNWeight
p746
(dp747
g3
F-0.0475329465364258
sba(innWeight
NNWeight
p748
(dp749
g3
F-0.04165296062128707
sba(innWeight
NNWeight
p750
(dp751
g3
F0.04853117162589415
sba(innWeight
NNWeight
p752
(dp753
g3
F-0.04094537331543951
sba(innWeight
NNWeight
p754
(dp755
g3
F0.025865388923777197
sba(innWeight
NNWeight
p756
(dp757
g3
F0.05106555405324337
sba(innWeight
NNWeight
p758
(dp759
g3
F-0.04225397389614919
sba(innWeight
NNWeight
p760
(dp761
g3
F0.04593676899757472
sba(innWeight
NNWeight
p762
(dp763
g3
F-0.012587913470515473
sba(innWeight
NNWeight
p764
(dp765
g3
F0.033795414975898615
sba(innWeight
NNWeight
p766
(dp767
g3
F-0.03253477746713208
sba(innWeight
NNWeight
p768
(dp769
g3
F-0.03710672090944784
sba(innWeight
NNWeight
p770
(dp771
g3
F0.04521769630392827
sba(innWeight
NNWeight
p772
(dp773
g3
F0.02751130573164813
sba(innWeight
NNWeight
p774
(dp775
g3
F-0.01948777613414652
sba(innWeight
NNWeight
p776
(dp777
g3
F-0.02422821431202683
sba(innWeight
NNWeight
p778
(dp779
g3
F-0.01645269991035507
sba(innWeight
NNWeight
p780
(dp781
g3
F0.021070986735903876
sba(innWeight
NNWeight
p782
(dp783
g3
F-0.03487237650421256
sba(innWeight
NNWeight
p784
(dp785
g3
F0.0012326156877823303
sba(innWeight
NNWeight
p786
(dp787
g3
F-0.011532464322147936
sba(innWeight
NNWeight
p788
(dp789
g3
F0.04048822660298078
sba(innWeight
NNWeight
p790
(dp791
g3
F0.042313711802753444
sba(innWeight
NNWeight
p792
(dp793
g3
F-0.004302814850834374
sba(innWeight
NNWeight
p794
(dp795
g3
F0.03050864244839164
sba(innWeight
NNWeight
p796
(dp797
g3
F0.023898858666170853
sba(innWeight
NNWeight
p798
(dp799
g3
F0.007432575728733833
sba(innWeight
NNWeight
p800
(dp801
g3
F-0.033570849685678285
sba(innWeight
NNWeight
p802
(dp803
g3
F-0.042191007225501155
sba(innWeight
NNWeight
p804
(dp805
g3
F-0.026823492829860716
sba(innWeight
NNWeight
p806
(dp807
g3
F0.004449818049903906
sba(innWeight
NNWeight
p808
(dp809
g3
F0.03459991202579955
sba(innWeight
NNWeight
p810
(dp811
g3
F-0.01697890381516236
sba(innWeight
NNWeight
p812
(dp813
g3
F-0.0215027680409894
sba(innWeight
NNWeight
p814
(dp815
g3
F0.04660979283085239
sba(innWeight
NNWeight
p816
(dp817
g3
F-0.02761234469089159
sba(innWeight
NNWeight
p818
(dp819
g3
F0.04272572642221897
sba(innWeight
NNWeight
p820
(dp821
g3
F0.011832070109853961
sba(innWeight
NNWeight
p822
(dp823
g3
F-0.002977465544206319
sba(innWeight
NNWeight
p824
(dp825
g3
F0.04237962426817456
sba(innWeight
NNWeight
p826
(dp827
g3
F-0.024591103167812867
sba(innWeight
NNWeight
p828
(dp829
g3
F0.01662191321883704
sba(innWeight
NNWeight
p830
(dp831
g3
F0.005521090013927982
sba(innWeight
NNWeight
p832
(dp833
g3
F-0.04892005657044805
sba(innWeight
NNWeight
p834
(dp835
g3
F-0.012453724323312161
sba(innWeight
NNWeight
p836
(dp837
g3
F0.05163356277355094
sba(innWeight
NNWeight
p838
(dp839
g3
F0.03931932878840777
sba(innWeight
NNWeight
p840
(dp841
g3
F-0.01641517745051402
sba(innWeight
NNWeight
p842
(dp843
g3
F-0.04520284780790839
sba(innWeight
NNWeight
p844
(dp845
g3
F-0.009223183625543271
sba(innWeight
NNWeight
p846
(dp847
g3
F0.03834595278746147
sba(innWeight
NNWeight
p848
(dp849
g3
F-0.02771299178693732
sba(innWeight
NNWeight
p850
(dp851
g3
F0.013760887053409752
sba(innWeight
NNWeight
p852
(dp853
g3
F-0.009827824961296031
sba(innWeight
NNWeight
p854
(dp855
g3
F-0.04553912427551157
sba(innWeight
NNWeight
p856
(dp857
g3
F0.03803870555674503
sba(innWeight
NNWeight
p858
(dp859
g3
F-0.02904442796491017
sba(innWeight
NNWeight
p860
(dp861
g3
F-0.010273724023350812
sba(innWeight
NNWeight
p862
(dp863
g3
F-0.045911463090737833
sba(innWeight
NNWeight
p864
(dp865
g3
F-0.020098320108046647
sba(innWeight
NNWeight
p866
(dp867
g3
F0.029366888422190894
sba(innWeight
NNWeight
p868
(dp869
g3
F0.033507212488727345
sba(innWeight
NNWeight
p870
(dp871
g3
F0.014178813616018488
sba(innWeight
NNWeight
p872
(dp873
g3
F0.006346285287192237
sba(innWeight
NNWeight
p874
(dp875
g3
F-0.034842774904720514
sba(innWeight
NNWeight
p876
(dp877
g3
F-0.024946367229835686
sba(innWeight
NNWeight
p878
(dp879
g3
F0.021704502739409444
sba(innWeight
NNWeight
p880
(dp881
g3
F0.040828680087103976
sba(innWeight
NNWeight
p882
(dp883
g3
F0.004624795250052448
sba(innWeight
NNWeight
p884
(dp885
g3
F-0.011281641036269177
sba(innWeight
NNWeight
p886
(dp887
g3
F-0.011232114365723772
sba(innWeight
NNWeight
p888
(dp889
g3
F0.008489107997193272
sba(innWeight
NNWeight
p890
(dp891
g3
F-0.009148352035649584
sba(innWeight
NNWeight
p892
(dp893
g3
F0.02576918855524533
sba(innWeight
NNWeight
p894
(dp895
g3
F0.020872669545919428
sba(innWeight
NNWeight
p896
(dp897
g3
F-0.005327770099509162
sba(innWeight
NNWeight
p898
(dp899
g3
F-0.03734657730011785
sba(innWeight
NNWeight
p900
(dp901
g3
F0.009428145264716555
sba(innWeight
NNWeight
p902
(dp903
g3
F-0.04462753461497835
sba(innWeight
NNWeight
p904
(dp905
g3
F-0.003929248430883101
sba(innWeight
NNWeight
p906
(dp907
g3
F0.013972750791742998
sba(innWeight
NNWeight
p908
(dp909
g3
F0.01807724124324973
sba(innWeight
NNWeight
p910
(dp911
g3
F-0.0435870093387631
sba(innWeight
NNWeight
p912
(dp913
g3
F-0.005228374579726568
sba(innWeight
NNWeight
p914
(dp915
g3
F0.030783557016357266
sba(innWeight
NNWeight
p916
(dp917
g3
F-0.031427741120940655
sba(innWeight
NNWeight
p918
(dp919
g3
F0.04484407787422497
sba(innWeight
NNWeight
p920
(dp921
g3
F0.040635303316881866
sba(innWeight
NNWeight
p922
(dp923
g3
F0.0023171610524082456
sba(innWeight
NNWeight
p924
(dp925
g3
F-0.02915186018052256
sba(innWeight
NNWeight
p926
(dp927
g3
F0.025942637235547315
sba(innWeight
NNWeight
p928
(dp929
g3
F0.03437964841825849
sba(innWeight
NNWeight
p930
(dp931
g3
F0.004080676128877307
sba(innWeight
NNWeight
p932
(dp933
g3
F-0.0032134801185891883
sba(innWeight
NNWeight
p934
(dp935
g3
F-0.052252643669983556
sba(innWeight
NNWeight
p936
(dp937
g3
F-0.0018957733361694372
sba(innWeight
NNWeight
p938
(dp939
g3
F-0.03048258937234671
sba(innWeight
NNWeight
p940
(dp941
g3
F-0.03322973386082376
sba(innWeight
NNWeight
p942
(dp943
g3
F-0.01595554474431692
sba(innWeight
NNWeight
p944
(dp945
g3
F0.04129306067649426
sba(innWeight
NNWeight
p946
(dp947
g3
F-0.028354490128278523
sba(innWeight
NNWeight
p948
(dp949
g3
F-0.041749091831375124
sba(innWeight
NNWeight
p950
(dp951
g3
F-0.022344774733439918
sba(innWeight
NNWeight
p952
(dp953
g3
F0.04336834459054858
sba(innWeight
NNWeight
p954
(dp955
g3
F0.04347836097788997
sba(innWeight
NNWeight
p956
(dp957
g3
F0.01732578210207242
sba(innWeight
NNWeight
p958
(dp959
g3
F0.01196031811205693
sba(innWeight
NNWeight
p960
(dp961
g3
F-0.034827073076773477
sba(innWeight
NNWeight
p962
(dp963
g3
F0.029821262585959064
sba(innWeight
NNWeight
p964
(dp965
g3
F-0.04004808850076819
sba(innWeight
NNWeight
p966
(dp967
g3
F0.006676072470391953
sba(innWeight
NNWeight
p968
(dp969
g3
F-0.03578746023630754
sba(innWeight
NNWeight
p970
(dp971
g3
F-0.03231936582774199
sba(innWeight
NNWeight
p972
(dp973
g3
F0.010491993953174161
sba(innWeight
NNWeight
p974
(dp975
g3
F-0.0026067505977879868
sba(innWeight
NNWeight
p976
(dp977
g3
F0.04782432125997963
sba(innWeight
NNWeight
p978
(dp979
g3
F0.02892798450438132
sba(innWeight
NNWeight
p980
(dp981
g3
F0.0204051154097144
sba(innWeight
NNWeight
p982
(dp983
g3
F0.015757820171924824
sba(innWeight
NNWeight
p984
(dp985
g3
F0.005240815869178037
sba(innWeight
NNWeight
p986
(dp987
g3
F0.008976132083920998
sba(innWeight
NNWeight
p988
(dp989
g3
F0.0027788714995731247
sba(innWeight
NNWeight
p990
(dp991
g3
F0.03515780454057246
sba(innWeight
NNWeight
p992
(dp993
g3
F-0.023152313976775803
sba(innWeight
NNWeight
p994
(dp995
g3
F0.0077642198654134815
sba(innWeight
NNWeight
p996
(dp997
g3
F-0.00812093584603441
sba(innWeight
NNWeight
p998
(dp999
g3
F-0.01134838423857327
sba(innWeight
NNWeight
p1000
(dp1001
g3
F-0.017122738926946685
sba(innWeight
NNWeight
p1002
(dp1003
g3
F0.03839932944336374
sba(innWeight
NNWeight
p1004
(dp1005
g3
F-0.025566543608303998
sba(innWeight
NNWeight
p1006
(dp1007
g3
F0.04829753580116056
sba(innWeight
NNWeight
p1008
(dp1009
g3
F-0.0061679999453226626
sba(innWeight
NNWeight
p1010
(dp1011
g3
F-0.04464069131229439
sba(innWeight
NNWeight
p1012
(dp1013
g3
F-0.055277739873766364
sba(innWeight
NNWeight
p1014
(dp1015
g3
F0.026088834984853274
sba(innWeight
NNWeight
p1016
(dp1017
g3
F0.04193997306235459
sba(innWeight
NNWeight
p1018
(dp1019
g3
F-0.0073795305536735415
sba(innWeight
NNWeight
p1020
(dp1021
g3
F0.04444711156143459
sba(innWeight
NNWeight
p1022
(dp1023
g3
F-0.026455801432554646
sba(innWeight
NNWeight
p1024
(dp1025
g3
F-0.03579938890897649
sba(innWeight
NNWeight
p1026
(dp1027
g3
F-0.01397270260111877
sba(innWeight
NNWeight
p1028
(dp1029
g3
F0.027800223105476984
sba(innWeight
NNWeight
p1030
(dp1031
g3
F0.04461628039861732
sba(innWeight
NNWeight
p1032
(dp1033
g3
F-0.03216714467991245
sba(innWeight
NNWeight
p1034
(dp1035
g3
F-0.03175794067207098
sba(innWeight
NNWeight
p1036
(dp1037
g3
F0.017492163719853376
sba(innWeight
NNWeight
p1038
(dp1039
g3
F-0.013433750180715992
sba(innWeight
NNWeight
p1040
(dp1041
g3
F0.04325289580793105
sba(innWeight
NNWeight
p1042
(dp1043
g3
F-0.020704814404410413
sba(innWeight
NNWeight
p1044
(dp1045
g3
F-0.012164234656867244
sba(innWeight
NNWeight
p1046
(dp1047
g3
F0.01516201912940892
sba(innWeight
NNWeight
p1048
(dp1049
g3
F0.04086573841554134
sba(innWeight
NNWeight
p1050
(dp1051
g3
F-0.03527519112082745
sba(innWeight
NNWeight
p1052
(dp1053
g3
F0.043227707468898556
sba(innWeight
NNWeight
p1054
(dp1055
g3
F-0.05031950565257537
sba(innWeight
NNWeight
p1056
(dp1057
g3
F0.029152928718624852
sba(innWeight
NNWeight
p1058
(dp1059
g3
F-0.024271683690872983
sba(innWeight
NNWeight
p1060
(dp1061
g3
F0.007262720950721182
sba(innWeight
NNWeight
p1062
(dp1063
g3
F0.004979913525168867
sba(innWeight
NNWeight
p1064
(dp1065
g3
F0.0070786778243327455
sba(innWeight
NNWeight
p1066
(dp1067
g3
F-0.022547608969428073
sba(innWeight
NNWeight
p1068
(dp1069
g3
F0.020999558626083287
sba(innWeight
NNWeight
p1070
(dp1071
g3
F0.01795116485806012
sba(innWeight
NNWeight
p1072
(dp1073
g3
F0.011531538700281027
sba(innWeight
NNWeight
p1074
(dp1075
g3
F0.04863898078562983
sba(innWeight
NNWeight
p1076
(dp1077
g3
F-0.04571326330014513
sba(innWeight
NNWeight
p1078
(dp1079
g3
F0.022258858421663794
sba(innWeight
NNWeight
p1080
(dp1081
g3
F-0.0294776457166132
sba(innWeight
NNWeight
p1082
(dp1083
g3
F-0.03762507310214121
sba(innWeight
NNWeight
p1084
(dp1085
g3
F0.013601005733015916
sba(innWeight
NNWeight
p1086
(dp1087
g3
F-0.025702819709974928
sba(innWeight
NNWeight
p1088
(dp1089
g3
F0.015839817812158232
sba(innWeight
NNWeight
p1090
(dp1091
g3
F0.0027547461011728116
sba(innWeight
NNWeight
p1092
(dp1093
g3
F0.04739665929520759
sba(innWeight
NNWeight
p1094
(dp1095
g3
F-0.029150451404540156
sba(innWeight
NNWeight
p1096
(dp1097
g3
F-0.004381124365150212
sba(innWeight
NNWeight
p1098
(dp1099
g3
F0.0445960011895465
sba(innWeight
NNWeight
p1100
(dp1101
g3
F-0.03332543195554291
sba(innWeight
NNWeight
p1102
(dp1103
g3
F-0.00684337455079077
sba(innWeight
NNWeight
p1104
(dp1105
g3
F-0.010403641555915034
sba(innWeight
NNWeight
p1106
(dp1107
g3
F0.03564283508363858
sba(innWeight
NNWeight
p1108
(dp1109
g3
F-0.018135800748829086
sba(innWeight
NNWeight
p1110
(dp1111
g3
F0.028851310358950867
sba(innWeight
NNWeight
p1112
(dp1113
g3
F0.04545406248512434
sba(innWeight
NNWeight
p1114
(dp1115
g3
F0.017652257598368654
sba(innWeight
NNWeight
p1116
(dp1117
g3
F0.009154790450470789
sba(innWeight
NNWeight
p1118
(dp1119
g3
F0.005731405144313015
sba(innWeight
NNWeight
p1120
(dp1121
g3
F0.002069742956199102
sba(innWeight
NNWeight
p1122
(dp1123
g3
F-0.027989427918362897
sba(innWeight
NNWeight
p1124
(dp1125
g3
F-0.0139666838809339
sba(innWeight
NNWeight
p1126
(dp1127
g3
F-0.00853442386499978
sba(innWeight
NNWeight
p1128
(dp1129
g3
F0.020900799638967384
sba(innWeight
NNWeight
p1130
(dp1131
g3
F0.00320423661498485
sba(innWeight
NNWeight
p1132
(dp1133
g3
F0.008349063059481812
sba(innWeight
NNWeight
p1134
(dp1135
g3
F-0.050940196758345664
sba(innWeight
NNWeight
p1136
(dp1137
g3
F-0.005585476683066036
sba(innWeight
NNWeight
p1138
(dp1139
g3
F-0.024346273598665667
sba(innWeight
NNWeight
p1140
(dp1141
g3
F-0.024144752111583956
sba(innWeight
NNWeight
p1142
(dp1143
g3
F-0.008191343207064323
sba(innWeight
NNWeight
p1144
(dp1145
g3
F-0.012244891032758567
sba(innWeight
NNWeight
p1146
(dp1147
g3
F-0.038863561059945595
sba(innWeight
NNWeight
p1148
(dp1149
g3
F-0.010765691879205083
sba(innWeight
NNWeight
p1150
(dp1151
g3
F0.03922476759252365
sba(innWeight
NNWeight
p1152
(dp1153
g3
F0.008478959168955255
sba(innWeight
NNWeight
p1154
(dp1155
g3
F-0.046178049692095116
sba(innWeight
NNWeight
p1156
(dp1157
g3
F0.024603297157778637
sba(innWeight
NNWeight
p1158
(dp1159
g3
F0.04042563441810674
sba(innWeight
NNWeight
p1160
(dp1161
g3
F0.006112119856202801
sba(innWeight
NNWeight
p1162
(dp1163
g3
F-0.005536098679593081
sba(innWeight
NNWeight
p1164
(dp1165
g3
F-0.038092442551119064
sba(innWeight
NNWeight
p1166
(dp1167
g3
F0.032493910194367835
sba(innWeight
NNWeight
p1168
(dp1169
g3
F-0.027971009563603162
sba(innWeight
NNWeight
p1170
(dp1171
g3
F0.04436010608179478
sba(innWeight
NNWeight
p1172
(dp1173
g3
F0.034118229670027984
sba(innWeight
NNWeight
p1174
(dp1175
g3
F0.02129308632212336
sba(innWeight
NNWeight
p1176
(dp1177
g3
F-0.04614719637481675
sba(innWeight
NNWeight
p1178
(dp1179
g3
F0.05147027613349331
sba(innWeight
NNWeight
p1180
(dp1181
g3
F-0.001916214557695638
sba(innWeight
NNWeight
p1182
(dp1183
g3
F-0.04363933529803298
sba(innWeight
NNWeight
p1184
(dp1185
g3
F-0.025159330654551306
sba(innWeight
NNWeight
p1186
(dp1187
g3
F-0.03500697725829459
sba(innWeight
NNWeight
p1188
(dp1189
g3
F0.02354092436607174
sba(innWeight
NNWeight
p1190
(dp1191
g3
F0.016139478702657084
sba(innWeight
NNWeight
p1192
(dp1193
g3
F0.0013738285489839027
sba(innWeight
NNWeight
p1194
(dp1195
g3
F0.03355299624796261
sba(innWeight
NNWeight
p1196
(dp1197
g3
F-0.0037465128427244983
sba(innWeight
NNWeight
p1198
(dp1199
g3
F0.02379789601547276
sba(innWeight
NNWeight
p1200
(dp1201
g3
F-0.011882955838303
sba(innWeight
NNWeight
p1202
(dp1203
g3
F-0.028535791399577785
sba(innWeight
NNWeight
p1204
(dp1205
g3
F0.01588611586760473
sba(innWeight
NNWeight
p1206
(dp1207
g3
F0.04101978298343358
sba(innWeight
NNWeight
p1208
(dp1209
g3
F0.04999009410701199
sba(innWeight
NNWeight
p1210
(dp1211
g3
F-0.031692342917628694
sba(innWeight
NNWeight
p1212
(dp1213
g3
F-0.030340739060839807
sba(innWeight
NNWeight
p1214
(dp1215
g3
F-0.03055663243834506
sba(innWeight
NNWeight
p1216
(dp1217
g3
F-0.0002570768179240891
sba(innWeight
NNWeight
p1218
(dp1219
g3
F-0.03591573193146458
sba(innWeight
NNWeight
p1220
(dp1221
g3
F-0.0009918512189779562
sba(innWeight
NNWeight
p1222
(dp1223
g3
F0.030092803718762304
sba(innWeight
NNWeight
p1224
(dp1225
g3
F-0.004209873478262675
sba(innWeight
NNWeight
p1226
(dp1227
g3
F-0.01969614789201973
sba(innWeight
NNWeight
p1228
(dp1229
g3
F-0.02085121216287576
sba(innWeight
NNWeight
p1230
(dp1231
g3
F-0.024409110648687695
sba(innWeight
NNWeight
p1232
(dp1233
g3
F-0.03772716429957497
sba(innWeight
NNWeight
p1234
(dp1235
g3
F-0.006865082169996414
sba(innWeight
NNWeight
p1236
(dp1237
g3
F-0.020879617137738657
sba(innWeight
NNWeight
p1238
(dp1239
g3
F0.0006433323991289924
sba(innWeight
NNWeight
p1240
(dp1241
g3
F0.012126911078902954
sba(innWeight
NNWeight
p1242
(dp1243
g3
F0.01860699761529803
sba(innWeight
NNWeight
p1244
(dp1245
g3
F0.01008022754814485
sba(innWeight
NNWeight
p1246
(dp1247
g3
F0.020214251077087943
sba(innWeight
NNWeight
p1248
(dp1249
g3
F0.021163074152491735
sba(innWeight
NNWeight
p1250
(dp1251
g3
F-0.008267299825518546
sba(innWeight
NNWeight
p1252
(dp1253
g3
F-0.003428639109131641
sba(innWeight
NNWeight
p1254
(dp1255
g3
F-0.04284055846669384
sba(innWeight
NNWeight
p1256
(dp1257
g3
F0.03863220131874668
sba(innWeight
NNWeight
p1258
(dp1259
g3
F0.04475809438636757
sba(innWeight
NNWeight
p1260
(dp1261
g3
F0.027731311165942157
sba(innWeight
NNWeight
p1262
(dp1263
g3
F0.05112432124835731
sba(innWeight
NNWeight
p1264
(dp1265
g3
F-0.023380556425676432
sba(innWeight
NNWeight
p1266
(dp1267
g3
F-0.04455266830088778
sba(innWeight
NNWeight
p1268
(dp1269
g3
F0.01789168564608172
sba(innWeight
NNWeight
p1270
(dp1271
g3
F0.04497552248978347
sba(innWeight
NNWeight
p1272
(dp1273
g3
F-0.009567573431616374
sba(innWeight
NNWeight
p1274
(dp1275
g3
F0.003928806349433192
sba(innWeight
NNWeight
p1276
(dp1277
g3
F-0.0006479866453618832
sba(innWeight
NNWeight
p1278
(dp1279
g3
F-0.04544950012394209
sba(innWeight
NNWeight
p1280
(dp1281
g3
F-0.029178144358348423
sba(innWeight
NNWeight
p1282
(dp1283
g3
F0.036630107904701684
sba(innWeight
NNWeight
p1284
(dp1285
g3
F-0.009347313944392964
sba(innWeight
NNWeight
p1286
(dp1287
g3
F-0.004918663965793521
sba(innWeight
NNWeight
p1288
(dp1289
g3
F-0.026582163602486143
sba(innWeight
NNWeight
p1290
(dp1291
g3
F0.004962958241698814
sba(innWeight
NNWeight
p1292
(dp1293
g3
F0.03419024210373901
sba(innWeight
NNWeight
p1294
(dp1295
g3
F0.020544734098110105
sba(innWeight
NNWeight
p1296
(dp1297
g3
F0.01251030877459365
sba(innWeight
NNWeight
p1298
(dp1299
g3
F-0.017268391807723705
sba(innWeight
NNWeight
p1300
(dp1301
g3
F-0.04485090231858642
sba(innWeight
NNWeight
p1302
(dp1303
g3
F-0.0236292226696015
sba(innWeight
NNWeight
p1304
(dp1305
g3
F-0.04536361243483079
sba(innWeight
NNWeight
p1306
(dp1307
g3
F0.01707417977916914
sba(innWeight
NNWeight
p1308
(dp1309
g3
F0.03732057067761981
sba(innWeight
NNWeight
p1310
(dp1311
g3
F-0.03934654546338673
sba(innWeight
NNWeight
p1312
(dp1313
g3
F-0.024811589360421903
sba(innWeight
NNWeight
p1314
(dp1315
g3
F-0.03949856492625747
sba(innWeight
NNWeight
p1316
(dp1317
g3
F0.026619338374545245
sba(innWeight
NNWeight
p1318
(dp1319
g3
F0.0233395183570284
sba(innWeight
NNWeight
p1320
(dp1321
g3
F0.03228682840437293
sba(innWeight
NNWeight
p1322
(dp1323
g3
F0.012879050525484825
sba(innWeight
NNWeight
p1324
(dp1325
g3
F0.01725173395606438
sba(innWeight
NNWeight
p1326
(dp1327
g3
F0.048077132715052796
sba(innWeight
NNWeight
p1328
(dp1329
g3
F-0.045026054418508314
sba(innWeight
NNWeight
p1330
(dp1331
g3
F0.011309655620879554
sba(innWeight
NNWeight
p1332
(dp1333
g3
F0.01732015774295924
sba(innWeight
NNWeight
p1334
(dp1335
g3
F0.0281272374091425
sba(innWeight
NNWeight
p1336
(dp1337
g3
F-0.017543814149919616
sba(innWeight
NNWeight
p1338
(dp1339
g3
F-0.010876509026769359
sba(innWeight
NNWeight
p1340
(dp1341
g3
F-0.04539726698685451
sba(innWeight
NNWeight
p1342
(dp1343
g3
F-0.04230966458757582
sba(innWeight
NNWeight
p1344
(dp1345
g3
F-0.016470155117525826
sba(innWeight
NNWeight
p1346
(dp1347
g3
F-0.0067967672791857964
sba(innWeight
NNWeight
p1348
(dp1349
g3
F-0.04461045492006712
sba(innWeight
NNWeight
p1350
(dp1351
g3
F0.037773994838064755
sba(innWeight
NNWeight
p1352
(dp1353
g3
F0.013181733162784454
sba(innWeight
NNWeight
p1354
(dp1355
g3
F-0.04272518047167817
sba(innWeight
NNWeight
p1356
(dp1357
g3
F-0.01811833068673543
sba(innWeight
NNWeight
p1358
(dp1359
g3
F-0.020547433090254988
sba(innWeight
NNWeight
p1360
(dp1361
g3
F-0.045723397687428405
sba(innWeight
NNWeight
p1362
(dp1363
g3
F0.013049061532536203
sba(innWeight
NNWeight
p1364
(dp1365
g3
F-0.023969147806123466
sba(innWeight
NNWeight
p1366
(dp1367
g3
F0.02392080394776748
sba(innWeight
NNWeight
p1368
(dp1369
g3
F0.043151504186507025
sba(innWeight
NNWeight
p1370
(dp1371
g3
F0.007293825787197345
sba(innWeight
NNWeight
p1372
(dp1373
g3
F-0.026957746030461874
sba(innWeight
NNWeight
p1374
(dp1375
g3
F0.03843007978627208
sba(innWeight
NNWeight
p1376
(dp1377
g3
F0.04610977684350229
sba(innWeight
NNWeight
p1378
(dp1379
g3
F-0.04496222652407635
sba(innWeight
NNWeight
p1380
(dp1381
g3
F-0.018293432759216875
sba(innWeight
NNWeight
p1382
(dp1383
g3
F-0.004091006790936864
sba(innWeight
NNWeight
p1384
(dp1385
g3
F-0.02697103181937614
sba(innWeight
NNWeight
p1386
(dp1387
g3
F-0.010413112504035905
sba(innWeight
NNWeight
p1388
(dp1389
g3
F0.04521218007694826
sba(innWeight
NNWeight
p1390
(dp1391
g3
F0.00628785698737595
sba(innWeight
NNWeight
p1392
(dp1393
g3
F-0.019234060822135846
sba(innWeight
NNWeight
p1394
(dp1395
g3
F0.04158569636823872
sba(innWeight
NNWeight
p1396
(dp1397
g3
F-0.025431763835681714
sba(innWeight
NNWeight
p1398
(dp1399
g3
F-0.0017807235954890018
sba(innWeight
NNWeight
p1400
(dp1401
g3
F0.029567746408112546
sba(innWeight
NNWeight
p1402
(dp1403
g3
F-0.004203200441702328
sba(innWeight
NNWeight
p1404
(dp1405
g3
F0.031834942840919256
sba(innWeight
NNWeight
p1406
(dp1407
g3
F0.026060275813103547
sba(innWeight
NNWeight
p1408
(dp1409
g3
F0.02693297864521958
sba(innWeight
NNWeight
p1410
(dp1411
g3
F-0.02112380677596039
sba(innWeight
NNWeight
p1412
(dp1413
g3
F-0.04880236822403247
sba(innWeight
NNWeight
p1414
(dp1415
g3
F-0.01359814605526253
sba(innWeight
NNWeight
p1416
(dp1417
g3
F-0.0024603853887620554
sba(innWeight
NNWeight
p1418
(dp1419
g3
F-0.04683024426627912
sba(innWeight
NNWeight
p1420
(dp1421
g3
F-0.045951847994282154
sba(innWeight
NNWeight
p1422
(dp1423
g3
F0.04199402399959258
sba(innWeight
NNWeight
p1424
(dp1425
g3
F-0.04105887664915957
sba(innWeight
NNWeight
p1426
(dp1427
g3
F0.03407549840136781
sba(innWeight
NNWeight
p1428
(dp1429
g3
F-0.0331705320355435
sba(innWeight
NNWeight
p1430
(dp1431
g3
F0.028346018612431353
sba(innWeight
NNWeight
p1432
(dp1433
g3
F-0.01764739017459496
sba(innWeight
NNWeight
p1434
(dp1435
g3
F0.04270594004817033
sba(innWeight
NNWeight
p1436
(dp1437
g3
F0.04435906088924139
sba(innWeight
NNWeight
p1438
(dp1439
g3
F0.02466087351442087
sba(innWeight
NNWeight
p1440
(dp1441
g3
F0.015535284307903725
sba(innWeight
NNWeight
p1442
(dp1443
g3
F0.04955840475156008
sba(innWeight
NNWeight
p1444
(dp1445
g3
F-0.02460297789429209
sba(innWeight
NNWeight
p1446
(dp1447
g3
F-0.02315318963463241
sba(innWeight
NNWeight
p1448
(dp1449
g3
F0.03369072734421624
sba(innWeight
NNWeight
p1450
(dp1451
g3
F0.022931043015815934
sba(innWeight
NNWeight
p1452
(dp1453
g3
F-0.04541603760589479
sba(innWeight
NNWeight
p1454
(dp1455
g3
F-0.05033843728415981
sba(innWeight
NNWeight
p1456
(dp1457
g3
F-0.015040383443862063
sba(innWeight
NNWeight
p1458
(dp1459
g3
F-0.04736858732736753
sba(innWeight
NNWeight
p1460
(dp1461
g3
F0.026715476020957408
sba(innWeight
NNWeight
p1462
(dp1463
g3
F0.02048232085087728
sba(innWeight
NNWeight
p1464
(dp1465
g3
F0.014547237320385256
sba(innWeight
NNWeight
p1466
(dp1467
g3
F0.03271970602837992
sba(innWeight
NNWeight
p1468
(dp1469
g3
F-0.03305230206473946
sba(innWeight
NNWeight
p1470
(dp1471
g3
F0.02733906578530562
sba(innWeight
NNWeight
p1472
(dp1473
g3
F0.04061619049646035
sba(innWeight
NNWeight
p1474
(dp1475
g3
F-0.008800284544460186
sba(innWeight
NNWeight
p1476
(dp1477
g3
F0.023381073060299254
sba(innWeight
NNWeight
p1478
(dp1479
g3
F-0.04319131752502973
sba(innWeight
NNWeight
p1480
(dp1481
g3
F-0.04776520332727855
sba(innWeight
NNWeight
p1482
(dp1483
g3
F0.005933136261026612
sba(innWeight
NNWeight
p1484
(dp1485
g3
F0.025970033118474525
sba(innWeight
NNWeight
p1486
(dp1487
g3
F-0.022472128773554735
sba(innWeight
NNWeight
p1488
(dp1489
g3
F-0.04078249827848456
sba(innWeight
NNWeight
p1490
(dp1491
g3
F0.04702868252807918
sba(innWeight
NNWeight
p1492
(dp1493
g3
F-0.03818505263543264
sba(innWeight
NNWeight
p1494
(dp1495
g3
F-0.03322834521923405
sba(innWeight
NNWeight
p1496
(dp1497
g3
F0.00931633398457459
sba(innWeight
NNWeight
p1498
(dp1499
g3
F0.0215724231792512
sba(innWeight
NNWeight
p1500
(dp1501
g3
F0.05047464162637558
sba(innWeight
NNWeight
p1502
(dp1503
g3
F0.008590251166816706
sba(innWeight
NNWeight
p1504
(dp1505
g3
F-0.0015616761774549016
sba(innWeight
NNWeight
p1506
(dp1507
g3
F-0.0048227104342580904
sba(innWeight
NNWeight
p1508
(dp1509
g3
F-0.04196100086984768
sba(innWeight
NNWeight
p1510
(dp1511
g3
F0.02340745979883175
sba(innWeight
NNWeight
p1512
(dp1513
g3
F-0.006218663900888139
sba(innWeight
NNWeight
p1514
(dp1515
g3
F0.0013796394359834189
sba(innWeight
NNWeight
p1516
(dp1517
g3
F-0.002186239926885009
sba(innWeight
NNWeight
p1518
(dp1519
g3
F-0.017483710006797798
sba(innWeight
NNWeight
p1520
(dp1521
g3
F-0.00818798124881965
sba(innWeight
NNWeight
p1522
(dp1523
g3
F-0.01820184630931486
sba(innWeight
NNWeight
p1524
(dp1525
g3
F0.04437877108340366
sba(innWeight
NNWeight
p1526
(dp1527
g3
F0.0400000086579332
sba(innWeight
NNWeight
p1528
(dp1529
g3
F0.04658834754971921
sba(innWeight
NNWeight
p1530
(dp1531
g3
F-0.017589313222406037
sba(innWeight
NNWeight
p1532
(dp1533
g3
F-0.02792201507496917
sba(innWeight
NNWeight
p1534
(dp1535
g3
F-0.010343085549283848
sba(innWeight
NNWeight
p1536
(dp1537
g3
F0.03559791734544533
sba(innWeight
NNWeight
p1538
(dp1539
g3
F-0.025000832932800497
sba(innWeight
NNWeight
p1540
(dp1541
g3
F0.03269573904263923
sba(innWeight
NNWeight
p1542
(dp1543
g3
F-0.022892524723648566
sba(innWeight
NNWeight
p1544
(dp1545
g3
F-0.012546897057317782
sba(innWeight
NNWeight
p1546
(dp1547
g3
F-0.03476474685804248
sba(innWeight
NNWeight
p1548
(dp1549
g3
F-0.0011420669252236925
sba(innWeight
NNWeight
p1550
(dp1551
g3
F0.0330673345713439
sba(innWeight
NNWeight
p1552
(dp1553
g3
F-0.03994777798739293
sba(innWeight
NNWeight
p1554
(dp1555
g3
F-0.04276373425157885
sba(innWeight
NNWeight
p1556
(dp1557
g3
F0.004996458771427341
sba(innWeight
NNWeight
p1558
(dp1559
g3
F0.023728477961187624
sba(innWeight
NNWeight
p1560
(dp1561
g3
F-0.026575771949482803
sba(innWeight
NNWeight
p1562
(dp1563
g3
F-0.028589159266336754
sba(innWeight
NNWeight
p1564
(dp1565
g3
F-0.01480130839361192
sba(innWeight
NNWeight
p1566
(dp1567
g3
F-0.029636819791386722
sba(innWeight
NNWeight
p1568
(dp1569
g3
F0.0036970289956805807
sba(innWeight
NNWeight
p1570
(dp1571
g3
F-0.03463278894070134
sba(innWeight
NNWeight
p1572
(dp1573
g3
F0.016905359859439906
sba(innWeight
NNWeight
p1574
(dp1575
g3
F-0.03898655817213092
sba(innWeight
NNWeight
p1576
(dp1577
g3
F0.019269048335748624
sba(innWeight
NNWeight
p1578
(dp1579
g3
F0.043367358307043656
sba(innWeight
NNWeight
p1580
(dp1581
g3
F0.0026957382118447727
sba(innWeight
NNWeight
p1582
(dp1583
g3
F0.028401146642066603
sba(innWeight
NNWeight
p1584
(dp1585
g3
F-0.034214887855072144
sba(innWeight
NNWeight
p1586
(dp1587
g3
F-0.04449583234675941
sba(innWeight
NNWeight
p1588
(dp1589
g3
F-0.011761948402799557
sba(innWeight
NNWeight
p1590
(dp1591
g3
F0.011525391142154657
sba(innWeight
NNWeight
p1592
(dp1593
g3
F-0.03463547746204478
sba(innWeight
NNWeight
p1594
(dp1595
g3
F-0.04500201665405661
sba(innWeight
NNWeight
p1596
(dp1597
g3
F0.0033503833251245945
sba(innWeight
NNWeight
p1598
(dp1599
g3
F-0.023432416127952205
sba(innWeight
NNWeight
p1600
(dp1601
g3
F0.019401207761391308
sba(innWeight
NNWeight
p1602
(dp1603
g3
F0.00019339766145848975
sba(innWeight
NNWeight
p1604
(dp1605
g3
F0.030065932661541814
sba(innWeight
NNWeight
p1606
(dp1607
g3
F0.04303738576054098
sba(innWeight
NNWeight
p1608
(dp1609
g3
F0.014250809960904073
sba(innWeight
NNWeight
p1610
(dp1611
g3
F0.012722638923802846
sba(innWeight
NNWeight
p1612
(dp1613
g3
F0.01037571764712983
sba(innWeight
NNWeight
p1614
(dp1615
g3
F0.029535289144119417
sba(innWeight
NNWeight
p1616
(dp1617
g3
F0.019462017789587175
sba(innWeight
NNWeight
p1618
(dp1619
g3
F0.03225901038459386
sba(innWeight
NNWeight
p1620
(dp1621
g3
F0.025338862640123704
sba(innWeight
NNWeight
p1622
(dp1623
g3
F-0.030216157309716173
sba(innWeight
NNWeight
p1624
(dp1625
g3
F-0.00843851637443654
sba(innWeight
NNWeight
p1626
(dp1627
g3
F0.0023425105543667746
sba(innWeight
NNWeight
p1628
(dp1629
g3
F0.03274261272127967
sba(innWeight
NNWeight
p1630
(dp1631
g3
F0.0030935328833214216
sba(innWeight
NNWeight
p1632
(dp1633
g3
F-0.038345311278502624
sba(innWeight
NNWeight
p1634
(dp1635
g3
F0.0004983068037018196
sba(innWeight
NNWeight
p1636
(dp1637
g3
F0.042975700454208114
sba(innWeight
NNWeight
p1638
(dp1639
g3
F-0.048676308324282526
sba(innWeight
NNWeight
p1640
(dp1641
g3
F-0.03142779367878502
sba(innWeight
NNWeight
p1642
(dp1643
g3
F0.03034636210346087
sba(innWeight
NNWeight
p1644
(dp1645
g3
F-0.00492241968283436
sba(innWeight
NNWeight
p1646
(dp1647
g3
F0.02809788993278129
sba(innWeight
NNWeight
p1648
(dp1649
g3
F-0.008455343303097097
sba(innWeight
NNWeight
p1650
(dp1651
g3
F0.012521255645614468
sba(innWeight
NNWeight
p1652
(dp1653
g3
F-0.028531238775126685
sba(innWeight
NNWeight
p1654
(dp1655
g3
F-0.013801246092125703
sba(innWeight
NNWeight
p1656
(dp1657
g3
F-0.04879569470922853
sba(innWeight
NNWeight
p1658
(dp1659
g3
F-0.014102301174221827
sba(innWeight
NNWeight
p1660
(dp1661
g3
F0.02925116310412246
sba(innWeight
NNWeight
p1662
(dp1663
g3
F0.01965865471791487
sba(innWeight
NNWeight
p1664
(dp1665
g3
F0.03232758982198669
sba(innWeight
NNWeight
p1666
(dp1667
g3
F0.01626815548829968
sba(innWeight
NNWeight
p1668
(dp1669
g3
F-0.014728098902145525
sba(innWeight
NNWeight
p1670
(dp1671
g3
F0.0380907419742721
sba(innWeight
NNWeight
p1672
(dp1673
g3
F-0.0023229712615334373
sba(innWeight
NNWeight
p1674
(dp1675
g3
F-0.025115614883787638
sba(innWeight
NNWeight
p1676
(dp1677
g3
F-0.041365170645469185
sba(innWeight
NNWeight
p1678
(dp1679
g3
F0.03281430478498751
sba(innWeight
NNWeight
p1680
(dp1681
g3
F-0.006244577246013879
sba(innWeight
NNWeight
p1682
(dp1683
g3
F-0.03723759989725231
sba(innWeight
NNWeight
p1684
(dp1685
g3
F-0.01851086098408929
sba(innWeight
NNWeight
p1686
(dp1687
g3
F-0.0280481592482781
sba(innWeight
NNWeight
p1688
(dp1689
g3
F0.045544909751762265
sba(innWeight
NNWeight
p1690
(dp1691
g3
F-0.04210686377365346
sba(innWeight
NNWeight
p1692
(dp1693
g3
F-0.04108160455000573
sba(innWeight
NNWeight
p1694
(dp1695
g3
F-0.008017670814896653
sba(innWeight
NNWeight
p1696
(dp1697
g3
F0.025250930701102903
sba(innWeight
NNWeight
p1698
(dp1699
g3
F0.035443522445025764
sba(innWeight
NNWeight
p1700
(dp1701
g3
F0.018548541241528875
sba(innWeight
NNWeight
p1702
(dp1703
g3
F-0.017041947481960865
sba(innWeight
NNWeight
p1704
(dp1705
g3
F0.004019049318903539
sba(innWeight
NNWeight
p1706
(dp1707
g3
F0.04542523961752853
sba(innWeight
NNWeight
p1708
(dp1709
g3
F0.03220148896026964
sba(innWeight
NNWeight
p1710
(dp1711
g3
F0.044617470537590805
sba(innWeight
NNWeight
p1712
(dp1713
g3
F-0.018334698115393143
sba(innWeight
NNWeight
p1714
(dp1715
g3
F0.047967155000435815
sba(innWeight
NNWeight
p1716
(dp1717
g3
F-0.024388289404805606
sba(innWeight
NNWeight
p1718
(dp1719
g3
F-0.04098406888823743
sba(innWeight
NNWeight
p1720
(dp1721
g3
F0.017350960039238954
sba(innWeight
NNWeight
p1722
(dp1723
g3
F0.049485960502960835
sba(innWeight
NNWeight
p1724
(dp1725
g3
F0.05330897329331593
sba(innWeight
NNWeight
p1726
(dp1727
g3
F-0.03926003798949684
sba(innWeight
NNWeight
p1728
(dp1729
g3
F-0.0182245004996576
sba(innWeight
NNWeight
p1730
(dp1731
g3
F-0.012142480633300886
sba(innWeight
NNWeight
p1732
(dp1733
g3
F0.035901894923018346
sba(innWeight
NNWeight
p1734
(dp1735
g3
F-0.013808846071630914
sba(innWeight
NNWeight
p1736
(dp1737
g3
F-0.034033987341400326
sba(innWeight
NNWeight
p1738
(dp1739
g3
F-0.02910073253562565
sba(innWeight
NNWeight
p1740
(dp1741
g3
F-0.03216791762860174
sba(innWeight
NNWeight
p1742
(dp1743
g3
F-0.018039643001347614
sba(innWeight
NNWeight
p1744
(dp1745
g3
F-0.03113341746976273
sba(innWeight
NNWeight
p1746
(dp1747
g3
F-0.04414822362497217
sba(innWeight
NNWeight
p1748
(dp1749
g3
F0.008048817211866628
sba(innWeight
NNWeight
p1750
(dp1751
g3
F0.03475684419402653
sba(innWeight
NNWeight
p1752
(dp1753
g3
F0.02501382573355186
sba(innWeight
NNWeight
p1754
(dp1755
g3
F-0.032756555359173635
sba(innWeight
NNWeight
p1756
(dp1757
g3
F0.010164335936024286
sba(innWeight
NNWeight
p1758
(dp1759
g3
F-0.022578895870398758
sba(innWeight
NNWeight
p1760
(dp1761
g3
F-0.03633019208825352
sba(innWeight
NNWeight
p1762
(dp1763
g3
F0.029424839920432284
sba(innWeight
NNWeight
p1764
(dp1765
g3
F-0.020410085580890615
sba(innWeight
NNWeight
p1766
(dp1767
g3
F-0.008450955973036836
sba(innWeight
NNWeight
p1768
(dp1769
g3
F-0.003930468606579669
sba(innWeight
NNWeight
p1770
(dp1771
g3
F0.0021874805949743843
sba(innWeight
NNWeight
p1772
(dp1773
g3
F0.04431700663810964
sba(innWeight
NNWeight
p1774
(dp1775
g3
F-0.007049994263313242
sba(innWeight
NNWeight
p1776
(dp1777
g3
F0.0027234827062259347
sba(innWeight
NNWeight
p1778
(dp1779
g3
F-0.027709486760265342
sba(innWeight
NNWeight
p1780
(dp1781
g3
F-0.024488227264982617
sba(innWeight
NNWeight
p1782
(dp1783
g3
F0.00720683903484347
sba(innWeight
NNWeight
p1784
(dp1785
g3
F0.03356663082766355
sba(innWeight
NNWeight
p1786
(dp1787
g3
F-0.01079386423462824
sba(innWeight
NNWeight
p1788
(dp1789
g3
F0.04730819395301799
sba(innWeight
NNWeight
p1790
(dp1791
g3
F-0.042078504827640466
sba(innWeight
NNWeight
p1792
(dp1793
g3
F0.04658835162826013
sba(innWeight
NNWeight
p1794
(dp1795
g3
F-0.028759603233027956
sba(innWeight
NNWeight
p1796
(dp1797
g3
F-0.01321083266239884
sba(innWeight
NNWeight
p1798
(dp1799
g3
F-0.018587936530153986
sba(innWeight
NNWeight
p1800
(dp1801
g3
F-0.0031299027074283875
sba(innWeight
NNWeight
p1802
(dp1803
g3
F0.03816090135421581
sba(innWeight
NNWeight
p1804
(dp1805
g3
F0.009114320757394238
sba(innWeight
NNWeight
p1806
(dp1807
g3
F-0.009184975888662456
sba(innWeight
NNWeight
p1808
(dp1809
g3
F0.0304768619088635
sba(innWeight
NNWeight
p1810
(dp1811
g3
F0.02440416736661207
sba(innWeight
NNWeight
p1812
(dp1813
g3
F0.006450183891237362
sba(innWeight
NNWeight
p1814
(dp1815
g3
F-0.006766544390405772
sba(innWeight
NNWeight
p1816
(dp1817
g3
F0.03199363199317016
sba(innWeight
NNWeight
p1818
(dp1819
g3
F-0.009042136960101437
sba(innWeight
NNWeight
p1820
(dp1821
g3
F-0.026040007108088407
sba(innWeight
NNWeight
p1822
(dp1823
g3
F-0.025152137413433202
sba(innWeight
NNWeight
p1824
(dp1825
g3
F0.020006567449670144
sba(innWeight
NNWeight
p1826
(dp1827
g3
F0.001137864393322714
sba(innWeight
NNWeight
p1828
(dp1829
g3
F-0.006185036712611048
sba(innWeight
NNWeight
p1830
(dp1831
g3
F0.04308896366840872
sba(innWeight
NNWeight
p1832
(dp1833
g3
F-0.045468835463349025
sba(innWeight
NNWeight
p1834
(dp1835
g3
F0.028223321112792608
sba(innWeight
NNWeight
p1836
(dp1837
g3
F0.003944076075977328
sba(innWeight
NNWeight
p1838
(dp1839
g3
F0.02614613927809024
sba(innWeight
NNWeight
p1840
(dp1841
g3
F0.038155200160344994
sba(innWeight
NNWeight
p1842
(dp1843
g3
F0.02777753927842517
sba(innWeight
NNWeight
p1844
(dp1845
g3
F0.0362906933030986
sba(innWeight
NNWeight
p1846
(dp1847
g3
F-0.023690972120233467
sba(innWeight
NNWeight
p1848
(dp1849
g3
F0.03131819456434753
sba(innWeight
NNWeight
p1850
(dp1851
g3
F0.01950278007882638
sba(innWeight
NNWeight
p1852
(dp1853
g3
F0.0339134077762167
sba(innWeight
NNWeight
p1854
(dp1855
g3
F-0.016045601029996494
sba(innWeight
NNWeight
p1856
(dp1857
g3
F0.039637886679546985
sba(innWeight
NNWeight
p1858
(dp1859
g3
F0.03144594226818239
sba(innWeight
NNWeight
p1860
(dp1861
g3
F-0.023305240114198423
sba(innWeight
NNWeight
p1862
(dp1863
g3
F0.026160410346701277
sba(innWeight
NNWeight
p1864
(dp1865
g3
F-0.024962325663180376
sba(innWeight
NNWeight
p1866
(dp1867
g3
F-0.03356258351662937
sba(innWeight
NNWeight
p1868
(dp1869
g3
F-0.02332357558616014
sba(innWeight
NNWeight
p1870
(dp1871
g3
F-0.015292124421956524
sba(innWeight
NNWeight
p1872
(dp1873
g3
F0.04923554918343605
sba(innWeight
NNWeight
p1874
(dp1875
g3
F-0.029665103357043473
sba(innWeight
NNWeight
p1876
(dp1877
g3
F0.012043098630784174
sba(innWeight
NNWeight
p1878
(dp1879
g3
F0.004884557877082802
sba(innWeight
NNWeight
p1880
(dp1881
g3
F0.051600794997283345
sba(innWeight
NNWeight
p1882
(dp1883
g3
F0.013731048648126458
sba(innWeight
NNWeight
p1884
(dp1885
g3
F0.04271941299967593
sba(innWeight
NNWeight
p1886
(dp1887
g3
F-0.020360006258016417
sba(innWeight
NNWeight
p1888
(dp1889
g3
F0.010333896544089102
sba(innWeight
NNWeight
p1890
(dp1891
g3
F0.0042849098269169454
sba(innWeight
NNWeight
p1892
(dp1893
g3
F0.019017350021783522
sba(innWeight
NNWeight
p1894
(dp1895
g3
F0.023616814218704624
sba(innWeight
NNWeight
p1896
(dp1897
g3
F-0.028059455128897372
sba(innWeight
NNWeight
p1898
(dp1899
g3
F-0.018283304439836418
sba(innWeight
NNWeight
p1900
(dp1901
g3
F-0.02142228219817999
sba(innWeight
NNWeight
p1902
(dp1903
g3
F-0.037257561510708304
sba(innWeight
NNWeight
p1904
(dp1905
g3
F-0.0021783677386698263
sba(innWeight
NNWeight
p1906
(dp1907
g3
F-0.04501727845221641
sba(innWeight
NNWeight
p1908
(dp1909
g3
F-0.04987345876857427
sba(innWeight
NNWeight
p1910
(dp1911
g3
F-0.022526552853026065
sba(innWeight
NNWeight
p1912
(dp1913
g3
F0.007393244879798384
sba(innWeight
NNWeight
p1914
(dp1915
g3
F-0.018925742178165478
sba(innWeight
NNWeight
p1916
(dp1917
g3
F-0.018999149457215935
sba(innWeight
NNWeight
p1918
(dp1919
g3
F0.0036432390646129694
sba(innWeight
NNWeight
p1920
(dp1921
g3
F0.010140959857752988
sba(innWeight
NNWeight
p1922
(dp1923
g3
F0.030360232158135575
sba(innWeight
NNWeight
p1924
(dp1925
g3
F0.016379674689250487
sba(innWeight
NNWeight
p1926
(dp1927
g3
F0.030342642124226472
sba(innWeight
NNWeight
p1928
(dp1929
g3
F0.003727267730988674
sba(innWeight
NNWeight
p1930
(dp1931
g3
F-0.053496350488380036
sba(innWeight
NNWeight
p1932
(dp1933
g3
F-0.0012842505908170349
sba(innWeight
NNWeight
p1934
(dp1935
g3
F-0.03231926276266509
sba(innWeight
NNWeight
p1936
(dp1937
g3
F0.018858470797966945
sba(innWeight
NNWeight
p1938
(dp1939
g3
F-0.015906378685133834
sba(innWeight
NNWeight
p1940
(dp1941
g3
F0.037238390905215
sba(innWeight
NNWeight
p1942
(dp1943
g3
F-0.03762571302019162
sba(innWeight
NNWeight
p1944
(dp1945
g3
F0.007662883466026886
sba(innWeight
NNWeight
p1946
(dp1947
g3
F0.027829745485734518
sba(innWeight
NNWeight
p1948
(dp1949
g3
F0.03153720417162961
sba(innWeight
NNWeight
p1950
(dp1951
g3
F-0.007319186147913176
sba(innWeight
NNWeight
p1952
(dp1953
g3
F0.02922649993449599
sba(innWeight
NNWeight
p1954
(dp1955
g3
F-0.038677472355261665
sba(innWeight
NNWeight
p1956
(dp1957
g3
F-0.011879194236534175
sba(innWeight
NNWeight
p1958
(dp1959
g3
F0.028468935011340422
sba(innWeight
NNWeight
p1960
(dp1961
g3
F-0.03494986054720645
sba(innWeight
NNWeight
p1962
(dp1963
g3
F0.02063490657395388
sba(innWeight
NNWeight
p1964
(dp1965
g3
F-0.026498946941214633
sba(innWeight
NNWeight
p1966
(dp1967
g3
F0.04130820858705349
sba(innWeight
NNWeight
p1968
(dp1969
g3
F0.020304208203990298
sba(innWeight
NNWeight
p1970
(dp1971
g3
F-0.03020659674862723
sba(innWeight
NNWeight
p1972
(dp1973
g3
F-0.030731556881510146
sba(innWeight
NNWeight
p1974
(dp1975
g3
F0.04597045533010849
sba(innWeight
NNWeight
p1976
(dp1977
g3
F-0.03990147855669649
sba(innWeight
NNWeight
p1978
(dp1979
g3
F0.004537728356837174
sba(innWeight
NNWeight
p1980
(dp1981
g3
F-0.013246597948263024
sba(innWeight
NNWeight
p1982
(dp1983
g3
F-0.039316141890794847
sba(innWeight
NNWeight
p1984
(dp1985
g3
F-0.001703910088242474
sba(innWeight
NNWeight
p1986
(dp1987
g3
F0.019085225427942592
sba(innWeight
NNWeight
p1988
(dp1989
g3
F0.026741071874343783
sba(innWeight
NNWeight
p1990
(dp1991
g3
F0.02768847290039188
sba(innWeight
NNWeight
p1992
(dp1993
g3
F-0.048393478957042865
sba(innWeight
NNWeight
p1994
(dp1995
g3
F-0.040318128587371355
sba(innWeight
NNWeight
p1996
(dp1997
g3
F-0.009187094193560225
sba(innWeight
NNWeight
p1998
(dp1999
g3
F-0.02888745242672211
sba(innWeight
NNWeight
p2000
(dp2001
g3
F-0.012445792728152858
sba(innWeight
NNWeight
p2002
(dp2003
g3
F-0.05734050619382784
sba(innWeight
NNWeight
p2004
(dp2005
g3
F0.006638556396914472
sba(innWeight
NNWeight
p2006
(dp2007
g3
F0.00013210741101093504
sba(innWeight
NNWeight
p2008
(dp2009
g3
F-0.019796787979829186
sba(innWeight
NNWeight
p2010
(dp2011
g3
F0.014240486542282283
sba(innWeight
NNWeight
p2012
(dp2013
g3
F0.010614485596106692
sba(innWeight
NNWeight
p2014
(dp2015
g3
F-0.007354950968502654
sba(innWeight
NNWeight
p2016
(dp2017
g3
F0.03937024752941234
sba(innWeight
NNWeight
p2018
(dp2019
g3
F0.014957337395396956
sba(innWeight
NNWeight
p2020
(dp2021
g3
F-0.044215868731077045
sba.