(lp0
(iweight
Weight
p1
(dp2
S'val'
p3
F-0.05267162295697997
sba(iweight
Weight
p4
(dp5
g3
F0.029947758832599498
sba(iweight
Weight
p6
(dp7
g3
F0.027093904604266434
sba(iweight
Weight
p8
(dp9
g3
F0.00011058929299344474
sba(iweight
Weight
p10
(dp11
g3
F0.03132768401859116
sba(iweight
Weight
p12
(dp13
g3
F-0.013627715881428006
sba(iweight
Weight
p14
(dp15
g3
F0.049320540627313295
sba(iweight
Weight
p16
(dp17
g3
F0.04027767533221509
sba(iweight
Weight
p18
(dp19
g3
F-0.04533719169041038
sba(iweight
Weight
p20
(dp21
g3
F-0.05296006584995671
sba(iweight
Weight
p22
(dp23
g3
F-0.016838882169511363
sba(iweight
Weight
p24
(dp25
g3
F-0.050801910645266526
sba(iweight
Weight
p26
(dp27
g3
F-0.03599285864885056
sba(iweight
Weight
p28
(dp29
g3
F-0.049636539948930976
sba(iweight
Weight
p30
(dp31
g3
F-0.003681984021686986
sba(iweight
Weight
p32
(dp33
g3
F-0.03970302398459392
sba(iweight
Weight
p34
(dp35
g3
F0.0025690421759987994
sba(iweight
Weight
p36
(dp37
g3
F0.0024922723620661997
sba(iweight
Weight
p38
(dp39
g3
F0.029954306896801234
sba(iweight
Weight
p40
(dp41
g3
F-0.030881586798508748
sba(iweight
Weight
p42
(dp43
g3
F0.011881946871353606
sba(iweight
Weight
p44
(dp45
g3
F0.026930813934132315
sba(iweight
Weight
p46
(dp47
g3
F-0.0063932416470802046
sba(iweight
Weight
p48
(dp49
g3
F-0.012951652122357118
sba(iweight
Weight
p50
(dp51
g3
F-0.011127293087620893
sba(iweight
Weight
p52
(dp53
g3
F0.04683156721547136
sba(iweight
Weight
p54
(dp55
g3
F-0.02527891776729528
sba(iweight
Weight
p56
(dp57
g3
F-0.046710668908173825
sba(iweight
Weight
p58
(dp59
g3
F-0.037910752201924365
sba(iweight
Weight
p60
(dp61
g3
F0.03365411864234867
sba(iweight
Weight
p62
(dp63
g3
F-0.029236713933111943
sba(iweight
Weight
p64
(dp65
g3
F-0.029213697017715784
sba(iweight
Weight
p66
(dp67
g3
F-0.04677958919347907
sba(iweight
Weight
p68
(dp69
g3
F0.010968938981455022
sba(iweight
Weight
p70
(dp71
g3
F0.019203201601914487
sba(iweight
Weight
p72
(dp73
g3
F-0.0036467020941166957
sba(iweight
Weight
p74
(dp75
g3
F-0.05006984740035251
sba(iweight
Weight
p76
(dp77
g3
F0.004675262015461278
sba(iweight
Weight
p78
(dp79
g3
F0.0036302285727742977
sba(iweight
Weight
p80
(dp81
g3
F-0.02695233572778634
sba(iweight
Weight
p82
(dp83
g3
F-0.042208090776946816
sba(iweight
Weight
p84
(dp85
g3
F-0.012548343686410912
sba(iweight
Weight
p86
(dp87
g3
F0.04267382990097792
sba(iweight
Weight
p88
(dp89
g3
F0.011824890244417473
sba(iweight
Weight
p90
(dp91
g3
F0.011438960986901598
sba(iweight
Weight
p92
(dp93
g3
F-0.0130465795176663
sba(iweight
Weight
p94
(dp95
g3
F0.012179808291549543
sba(iweight
Weight
p96
(dp97
g3
F0.0067117655276304035
sba(iweight
Weight
p98
(dp99
g3
F-0.003678042984512453
sba(iweight
Weight
p100
(dp101
g3
F0.03781290941499744
sba(iweight
Weight
p102
(dp103
g3
F0.017911947501527855
sba(iweight
Weight
p104
(dp105
g3
F-0.0013731390062441174
sba(iweight
Weight
p106
(dp107
g3
F0.028083392170211736
sba(iweight
Weight
p108
(dp109
g3
F0.045239864878408614
sba(iweight
Weight
p110
(dp111
g3
F0.045378949288502946
sba(iweight
Weight
p112
(dp113
g3
F-0.038548682396802064
sba(iweight
Weight
p114
(dp115
g3
F0.04993450688968845
sba(iweight
Weight
p116
(dp117
g3
F0.03182203847059544
sba(iweight
Weight
p118
(dp119
g3
F0.040504097013532164
sba(iweight
Weight
p120
(dp121
g3
F-0.0016507557785743687
sba(iweight
Weight
p122
(dp123
g3
F0.019049743487493023
sba(iweight
Weight
p124
(dp125
g3
F0.00444525503898033
sba(iweight
Weight
p126
(dp127
g3
F-0.029371637440556778
sba(iweight
Weight
p128
(dp129
g3
F-0.017586184770341774
sba(iweight
Weight
p130
(dp131
g3
F0.03357317529522075
sba(iweight
Weight
p132
(dp133
g3
F-0.012403898629295198
sba(iweight
Weight
p134
(dp135
g3
F-0.043582385699651796
sba(iweight
Weight
p136
(dp137
g3
F0.011096741203007356
sba(iweight
Weight
p138
(dp139
g3
F0.04946544851481999
sba(iweight
Weight
p140
(dp141
g3
F0.02276363806000721
sba(iweight
Weight
p142
(dp143
g3
F-0.012935376595675261
sba(iweight
Weight
p144
(dp145
g3
F0.04003126544237265
sba(iweight
Weight
p146
(dp147
g3
F-0.033238045185677204
sba(iweight
Weight
p148
(dp149
g3
F0.0061133454898486435
sba(iweight
Weight
p150
(dp151
g3
F0.03391975209442144
sba(iweight
Weight
p152
(dp153
g3
F-0.04054859919484413
sba(iweight
Weight
p154
(dp155
g3
F0.04698212818961604
sba(iweight
Weight
p156
(dp157
g3
F0.03750814544738503
sba(iweight
Weight
p158
(dp159
g3
F0.039228151232808914
sba(iweight
Weight
p160
(dp161
g3
F-0.0012695594650342598
sba(iweight
Weight
p162
(dp163
g3
F-0.026097582260941506
sba(iweight
Weight
p164
(dp165
g3
F0.04910940029110282
sba(iweight
Weight
p166
(dp167
g3
F-0.02493785465725755
sba(iweight
Weight
p168
(dp169
g3
F-0.044243473461352587
sba(iweight
Weight
p170
(dp171
g3
F-0.025412026426409995
sba(iweight
Weight
p172
(dp173
g3
F0.005419544756711623
sba(iweight
Weight
p174
(dp175
g3
F-0.030010861236089037
sba(iweight
Weight
p176
(dp177
g3
F0.015725986419217613
sba(iweight
Weight
p178
(dp179
g3
F0.03324412319524202
sba(iweight
Weight
p180
(dp181
g3
F0.03528915208399988
sba(iweight
Weight
p182
(dp183
g3
F-0.03669521965487557
sba(iweight
Weight
p184
(dp185
g3
F-0.004960368832325097
sba(iweight
Weight
p186
(dp187
g3
F0.05265255251963579
sba(iweight
Weight
p188
(dp189
g3
F0.03006660560145261
sba(iweight
Weight
p190
(dp191
g3
F-0.03572971952866135
sba(iweight
Weight
p192
(dp193
g3
F0.047165573489801625
sba(iweight
Weight
p194
(dp195
g3
F-0.03685092592157232
sba(iweight
Weight
p196
(dp197
g3
F-0.045949183124806385
sba(iweight
Weight
p198
(dp199
g3
F0.03222370413136013
sba(iweight
Weight
p200
(dp201
g3
F-0.038642372694004945
sba(iweight
Weight
p202
(dp203
g3
F-0.005574956007888227
sba(iweight
Weight
p204
(dp205
g3
F-0.01752288249295044
sba(iweight
Weight
p206
(dp207
g3
F0.017289141269601287
sba(iweight
Weight
p208
(dp209
g3
F0.021947128100218313
sba(iweight
Weight
p210
(dp211
g3
F-0.04089495850097261
sba(iweight
Weight
p212
(dp213
g3
F0.02942520608216246
sba(iweight
Weight
p214
(dp215
g3
F0.01938571161225409
sba(iweight
Weight
p216
(dp217
g3
F-0.025846832459845932
sba(iweight
Weight
p218
(dp219
g3
F0.03220569484189477
sba(iweight
Weight
p220
(dp221
g3
F-0.002989459110339737
sba(iweight
Weight
p222
(dp223
g3
F-0.04995079037230786
sba(iweight
Weight
p224
(dp225
g3
F0.045170517192421884
sba(iweight
Weight
p226
(dp227
g3
F-0.007822836812148333
sba(iweight
Weight
p228
(dp229
g3
F0.029917718482886
sba(iweight
Weight
p230
(dp231
g3
F-0.02567447834824692
sba(iweight
Weight
p232
(dp233
g3
F0.01716127763969325
sba(iweight
Weight
p234
(dp235
g3
F-0.017285252197501218
sba(iweight
Weight
p236
(dp237
g3
F-0.0462816821945546
sba(iweight
Weight
p238
(dp239
g3
F0.00869354968223606
sba(iweight
Weight
p240
(dp241
g3
F-0.03943572575074448
sba(iweight
Weight
p242
(dp243
g3
F0.008096322761924
sba(iweight
Weight
p244
(dp245
g3
F0.008622333177151859
sba(iweight
Weight
p246
(dp247
g3
F0.015352593031895111
sba(iweight
Weight
p248
(dp249
g3
F-0.051862578319727085
sba(iweight
Weight
p250
(dp251
g3
F-0.006166942244952747
sba(iweight
Weight
p252
(dp253
g3
F0.035699683784653755
sba(iweight
Weight
p254
(dp255
g3
F-0.036844532404323074
sba(iweight
Weight
p256
(dp257
g3
F-0.00948163400390257
sba(iweight
Weight
p258
(dp259
g3
F-0.020463420082227107
sba(iweight
Weight
p260
(dp261
g3
F0.002829848221974483
sba(iweight
Weight
p262
(dp263
g3
F0.049475506370103325
sba(iweight
Weight
p264
(dp265
g3
F0.007224000164739427
sba(iweight
Weight
p266
(dp267
g3
F0.04075080312927224
sba(iweight
Weight
p268
(dp269
g3
F0.002630941409499612
sba(iweight
Weight
p270
(dp271
g3
F-0.030180715460170038
sba(iweight
Weight
p272
(dp273
g3
F-0.0051269818357516424
sba(iweight
Weight
p274
(dp275
g3
F0.02469050472899723
sba(iweight
Weight
p276
(dp277
g3
F0.04520676681697707
sba(iweight
Weight
p278
(dp279
g3
F-0.023983220411712483
sba(iweight
Weight
p280
(dp281
g3
F-0.015430779300460913
sba(iweight
Weight
p282
(dp283
g3
F0.028734620581368695
sba(iweight
Weight
p284
(dp285
g3
F0.01358584685784724
sba(iweight
Weight
p286
(dp287
g3
F0.04591750989394638
sba(iweight
Weight
p288
(dp289
g3
F0.016495687909048543
sba(iweight
Weight
p290
(dp291
g3
F0.0037341633744116306
sba(iweight
Weight
p292
(dp293
g3
F-0.031699324376640366
sba(iweight
Weight
p294
(dp295
g3
F0.018019705633183798
sba(iweight
Weight
p296
(dp297
g3
F-0.028760888574130908
sba(iweight
Weight
p298
(dp299
g3
F0.011481794139639975
sba(iweight
Weight
p300
(dp301
g3
F0.022649291435073906
sba(iweight
Weight
p302
(dp303
g3
F-0.006214928442814639
sba(iweight
Weight
p304
(dp305
g3
F0.010048693233681788
sba(iweight
Weight
p306
(dp307
g3
F0.02216933447656368
sba(iweight
Weight
p308
(dp309
g3
F-0.019833362600909107
sba(iweight
Weight
p310
(dp311
g3
F-0.0497910306413471
sba(iweight
Weight
p312
(dp313
g3
F0.006901544571160991
sba(iweight
Weight
p314
(dp315
g3
F-0.023593510735992026
sba(iweight
Weight
p316
(dp317
g3
F0.0471749182296846
sba(iweight
Weight
p318
(dp319
g3
F0.009213209393316437
sba(iweight
Weight
p320
(dp321
g3
F-0.0001257616677356059
sba(iweight
Weight
p322
(dp323
g3
F0.036591389761117886
sba(iweight
Weight
p324
(dp325
g3
F-0.040598636303387024
sba(iweight
Weight
p326
(dp327
g3
F-0.022496680846481095
sba(iweight
Weight
p328
(dp329
g3
F-0.024876996092174825
sba(iweight
Weight
p330
(dp331
g3
F0.005941568840995275
sba(iweight
Weight
p332
(dp333
g3
F0.006148976125716788
sba(iweight
Weight
p334
(dp335
g3
F0.035356262820484985
sba(iweight
Weight
p336
(dp337
g3
F0.023241824315610775
sba(iweight
Weight
p338
(dp339
g3
F0.016962888449982998
sba(iweight
Weight
p340
(dp341
g3
F-0.0004865761991670867
sba(iweight
Weight
p342
(dp343
g3
F0.03294545032564275
sba(iweight
Weight
p344
(dp345
g3
F-0.028539659157803814
sba(iweight
Weight
p346
(dp347
g3
F0.04701986101234284
sba(iweight
Weight
p348
(dp349
g3
F0.02762462968500065
sba(iweight
Weight
p350
(dp351
g3
F0.006693980598632537
sba(iweight
Weight
p352
(dp353
g3
F0.0346104287995361
sba(iweight
Weight
p354
(dp355
g3
F-0.03860354821630374
sba(iweight
Weight
p356
(dp357
g3
F-0.02420090878562159
sba(iweight
Weight
p358
(dp359
g3
F0.04187596970378659
sba(iweight
Weight
p360
(dp361
g3
F-0.009180772720543611
sba(iweight
Weight
p362
(dp363
g3
F0.027779160813426112
sba(iweight
Weight
p364
(dp365
g3
F0.025176350073070397
sba(iweight
Weight
p366
(dp367
g3
F0.0037413261673773773
sba(iweight
Weight
p368
(dp369
g3
F-0.0482616906485873
sba(iweight
Weight
p370
(dp371
g3
F0.044445408797136744
sba(iweight
Weight
p372
(dp373
g3
F-0.022476627320245034
sba(iweight
Weight
p374
(dp375
g3
F0.019488901144975902
sba(iweight
Weight
p376
(dp377
g3
F-0.0338811540135445
sba(iweight
Weight
p378
(dp379
g3
F-0.048039536208251125
sba(iweight
Weight
p380
(dp381
g3
F0.04711483061891257
sba(iweight
Weight
p382
(dp383
g3
F-0.013912516479196845
sba(iweight
Weight
p384
(dp385
g3
F0.03700114721812393
sba(iweight
Weight
p386
(dp387
g3
F-0.0009391073561032567
sba(iweight
Weight
p388
(dp389
g3
F0.005145829336295362
sba(iweight
Weight
p390
(dp391
g3
F0.02339908174736348
sba(iweight
Weight
p392
(dp393
g3
F-0.03983563170275533
sba(iweight
Weight
p394
(dp395
g3
F0.002126133617744966
sba(iweight
Weight
p396
(dp397
g3
F-0.012745462722286424
sba(iweight
Weight
p398
(dp399
g3
F-0.03726990135303257
sba(iweight
Weight
p400
(dp401
g3
F0.005802905289456872
sba(iweight
Weight
p402
(dp403
g3
F-0.05003830430460793
sba(iweight
Weight
p404
(dp405
g3
F9.25696618971923e-05
sba(iweight
Weight
p406
(dp407
g3
F0.04001175449936574
sba(iweight
Weight
p408
(dp409
g3
F0.03325435571002719
sba(iweight
Weight
p410
(dp411
g3
F-0.02764850359304907
sba(iweight
Weight
p412
(dp413
g3
F-0.009547304643094542
sba(iweight
Weight
p414
(dp415
g3
F-0.004385454238423781
sba(iweight
Weight
p416
(dp417
g3
F-0.02707316855272668
sba(iweight
Weight
p418
(dp419
g3
F0.009331814605970507
sba(iweight
Weight
p420
(dp421
g3
F-0.00586292281271383
sba(iweight
Weight
p422
(dp423
g3
F-0.006131835964854105
sba(iweight
Weight
p424
(dp425
g3
F0.037457440542550735
sba(iweight
Weight
p426
(dp427
g3
F0.010384173963793075
sba(iweight
Weight
p428
(dp429
g3
F-0.02521822240325167
sba(iweight
Weight
p430
(dp431
g3
F-0.040211770834633086
sba(iweight
Weight
p432
(dp433
g3
F0.04299884520874468
sba(iweight
Weight
p434
(dp435
g3
F0.030027180095001032
sba(iweight
Weight
p436
(dp437
g3
F0.03545554211781685
sba(iweight
Weight
p438
(dp439
g3
F-0.01964403129239654
sba(iweight
Weight
p440
(dp441
g3
F0.02350487126094267
sba(iweight
Weight
p442
(dp443
g3
F-0.03844195394898753
sba(iweight
Weight
p444
(dp445
g3
F-0.034108423590383415
sba(iweight
Weight
p446
(dp447
g3
F0.013253759013366683
sba(iweight
Weight
p448
(dp449
g3
F0.037871567590514875
sba(iweight
Weight
p450
(dp451
g3
F-0.04800523815476544
sba(iweight
Weight
p452
(dp453
g3
F-0.03220463067726821
sba(iweight
Weight
p454
(dp455
g3
F-0.008372234171565317
sba(iweight
Weight
p456
(dp457
g3
F-0.028397228885320484
sba(iweight
Weight
p458
(dp459
g3
F-0.023404022521331305
sba(iweight
Weight
p460
(dp461
g3
F0.001979863582908595
sba(iweight
Weight
p462
(dp463
g3
F-0.001306238407927409
sba(iweight
Weight
p464
(dp465
g3
F-0.01079976298911974
sba(iweight
Weight
p466
(dp467
g3
F-0.04746344590591552
sba(iweight
Weight
p468
(dp469
g3
F0.01769181240197997
sba(iweight
Weight
p470
(dp471
g3
F-0.017210618974698996
sba(iweight
Weight
p472
(dp473
g3
F0.04702403589845353
sba(iweight
Weight
p474
(dp475
g3
F-0.0230374872419308
sba(iweight
Weight
p476
(dp477
g3
F-0.016159886116858674
sba(iweight
Weight
p478
(dp479
g3
F0.0227074329383681
sba(iweight
Weight
p480
(dp481
g3
F-0.013175254224629611
sba(iweight
Weight
p482
(dp483
g3
F-0.017798731635785367
sba(iweight
Weight
p484
(dp485
g3
F0.011831113807724477
sba(iweight
Weight
p486
(dp487
g3
F-0.026279714336937234
sba(iweight
Weight
p488
(dp489
g3
F-0.023698365234342093
sba(iweight
Weight
p490
(dp491
g3
F0.02768502580410792
sba(iweight
Weight
p492
(dp493
g3
F-0.0005224494064866182
sba(iweight
Weight
p494
(dp495
g3
F0.044522525714822854
sba(iweight
Weight
p496
(dp497
g3
F-0.012929534250020146
sba(iweight
Weight
p498
(dp499
g3
F0.02955974782210816
sba(iweight
Weight
p500
(dp501
g3
F-0.005731862283531302
sba(iweight
Weight
p502
(dp503
g3
F0.01151658072062785
sba(iweight
Weight
p504
(dp505
g3
F0.03967438518627054
sba(iweight
Weight
p506
(dp507
g3
F-0.01663553470382758
sba(iweight
Weight
p508
(dp509
g3
F0.04072294033065205
sba(iweight
Weight
p510
(dp511
g3
F-0.04679831937197104
sba(iweight
Weight
p512
(dp513
g3
F0.04344753787036359
sba(iweight
Weight
p514
(dp515
g3
F0.007023072075504436
sba(iweight
Weight
p516
(dp517
g3
F0.012760554510608323
sba(iweight
Weight
p518
(dp519
g3
F-0.035101167448757166
sba(iweight
Weight
p520
(dp521
g3
F-0.005585310103243175
sba(iweight
Weight
p522
(dp523
g3
F-0.010951194415176082
sba(iweight
Weight
p524
(dp525
g3
F0.04698410237319899
sba(iweight
Weight
p526
(dp527
g3
F-0.04072322105869679
sba(iweight
Weight
p528
(dp529
g3
F0.027586530298692534
sba(iweight
Weight
p530
(dp531
g3
F-0.020293735901017806
sba(iweight
Weight
p532
(dp533
g3
F0.01827766825512378
sba(iweight
Weight
p534
(dp535
g3
F-0.0021116676150131153
sba(iweight
Weight
p536
(dp537
g3
F0.02272770394166451
sba(iweight
Weight
p538
(dp539
g3
F0.03931111232481693
sba(iweight
Weight
p540
(dp541
g3
F0.015632543445382664
sba(iweight
Weight
p542
(dp543
g3
F0.0015042150738614796
sba(iweight
Weight
p544
(dp545
g3
F-0.00034523106389744635
sba(iweight
Weight
p546
(dp547
g3
F0.010955738253694804
sba(iweight
Weight
p548
(dp549
g3
F-0.042330890439135634
sba(iweight
Weight
p550
(dp551
g3
F0.008825114777492192
sba(iweight
Weight
p552
(dp553
g3
F-0.039182320078879486
sba(iweight
Weight
p554
(dp555
g3
F0.007347341089591031
sba(iweight
Weight
p556
(dp557
g3
F0.017617084588981702
sba(iweight
Weight
p558
(dp559
g3
F-0.04243522680607617
sba(iweight
Weight
p560
(dp561
g3
F0.026237884793556824
sba(iweight
Weight
p562
(dp563
g3
F0.009115887481162559
sba(iweight
Weight
p564
(dp565
g3
F-0.013702510931241666
sba(iweight
Weight
p566
(dp567
g3
F0.034986999718334306
sba(iweight
Weight
p568
(dp569
g3
F0.005619679662196385
sba(iweight
Weight
p570
(dp571
g3
F-0.018919188623916335
sba(iweight
Weight
p572
(dp573
g3
F-0.009841030884852572
sba(iweight
Weight
p574
(dp575
g3
F0.043771287646692546
sba(iweight
Weight
p576
(dp577
g3
F-0.05292147626321581
sba(iweight
Weight
p578
(dp579
g3
F0.04366745291957296
sba(iweight
Weight
p580
(dp581
g3
F0.04457132687215188
sba(iweight
Weight
p582
(dp583
g3
F0.043062295433602966
sba(iweight
Weight
p584
(dp585
g3
F0.01686868880863561
sba(iweight
Weight
p586
(dp587
g3
F-0.033466201895583844
sba(iweight
Weight
p588
(dp589
g3
F-0.046306498432830245
sba(iweight
Weight
p590
(dp591
g3
F0.01082873152133307
sba(iweight
Weight
p592
(dp593
g3
F-0.00887100962466416
sba(iweight
Weight
p594
(dp595
g3
F-0.04996156605435623
sba(iweight
Weight
p596
(dp597
g3
F-0.045902162240955335
sba(iweight
Weight
p598
(dp599
g3
F-0.02955684170266822
sba(iweight
Weight
p600
(dp601
g3
F-0.005670631925237249
sba(iweight
Weight
p602
(dp603
g3
F0.004742300968425372
sba(iweight
Weight
p604
(dp605
g3
F0.038774711599802655
sba(iweight
Weight
p606
(dp607
g3
F-0.02862915467526593
sba(iweight
Weight
p608
(dp609
g3
F0.004619345490812078
sba(iweight
Weight
p610
(dp611
g3
F0.04426677410663066
sba(iweight
Weight
p612
(dp613
g3
F-0.014033791100293557
sba(iweight
Weight
p614
(dp615
g3
F-0.003890977688394514
sba(iweight
Weight
p616
(dp617
g3
F-0.01563280994677433
sba(iweight
Weight
p618
(dp619
g3
F-0.019927157478156675
sba(iweight
Weight
p620
(dp621
g3
F0.03861953178669179
sba(iweight
Weight
p622
(dp623
g3
F0.005352953348740708
sba(iweight
Weight
p624
(dp625
g3
F-0.04412866274751352
sba(iweight
Weight
p626
(dp627
g3
F-0.014505393242749463
sba(iweight
Weight
p628
(dp629
g3
F0.029825169995595188
sba(iweight
Weight
p630
(dp631
g3
F-0.037321492024093766
sba(iweight
Weight
p632
(dp633
g3
F-0.04462597835511715
sba(iweight
Weight
p634
(dp635
g3
F-0.03327994832089793
sba(iweight
Weight
p636
(dp637
g3
F0.03870246541133648
sba(iweight
Weight
p638
(dp639
g3
F-0.004406337196726611
sba(iweight
Weight
p640
(dp641
g3
F-0.01625922755496374
sba(iweight
Weight
p642
(dp643
g3
F-0.02476863677458386
sba(iweight
Weight
p644
(dp645
g3
F-0.03476944198785977
sba(iweight
Weight
p646
(dp647
g3
F-0.0038270389956070665
sba(iweight
Weight
p648
(dp649
g3
F0.03337600796628499
sba(iweight
Weight
p650
(dp651
g3
F0.026050922109902407
sba(iweight
Weight
p652
(dp653
g3
F0.025713862941672914
sba(iweight
Weight
p654
(dp655
g3
F0.010687849088896516
sba(iweight
Weight
p656
(dp657
g3
F-0.04385600958604955
sba(iweight
Weight
p658
(dp659
g3
F0.01882318329044518
sba(iweight
Weight
p660
(dp661
g3
F-0.04698945542448622
sba(iweight
Weight
p662
(dp663
g3
F-0.01895905054680395
sba(iweight
Weight
p664
(dp665
g3
F0.033066941543003485
sba(iweight
Weight
p666
(dp667
g3
F0.04249154756328559
sba(iweight
Weight
p668
(dp669
g3
F0.0166441285885842
sba(iweight
Weight
p670
(dp671
g3
F-0.0039009979440475964
sba(iweight
Weight
p672
(dp673
g3
F0.048486545172794035
sba(iweight
Weight
p674
(dp675
g3
F-0.03828757288469233
sba(iweight
Weight
p676
(dp677
g3
F-0.00796341802730865
sba(iweight
Weight
p678
(dp679
g3
F0.016193639347159807
sba(iweight
Weight
p680
(dp681
g3
F0.019513707725049383
sba(iweight
Weight
p682
(dp683
g3
F-0.043648113370866
sba(iweight
Weight
p684
(dp685
g3
F-0.038758362472022946
sba(iweight
Weight
p686
(dp687
g3
F0.027965023174287403
sba(iweight
Weight
p688
(dp689
g3
F-0.02691387094016947
sba(iweight
Weight
p690
(dp691
g3
F0.038080618073064024
sba(iweight
Weight
p692
(dp693
g3
F0.03895046515677925
sba(iweight
Weight
p694
(dp695
g3
F0.04305663524538043
sba(iweight
Weight
p696
(dp697
g3
F0.013780314029408993
sba(iweight
Weight
p698
(dp699
g3
F-0.03642119392144421
sba(iweight
Weight
p700
(dp701
g3
F0.04887326030314571
sba(iweight
Weight
p702
(dp703
g3
F-0.023421680641711646
sba(iweight
Weight
p704
(dp705
g3
F0.030736394339700743
sba(iweight
Weight
p706
(dp707
g3
F0.01950888839015249
sba(iweight
Weight
p708
(dp709
g3
F-0.039037829193365875
sba(iweight
Weight
p710
(dp711
g3
F-0.029349234571928107
sba(iweight
Weight
p712
(dp713
g3
F-0.0384296607946636
sba(iweight
Weight
p714
(dp715
g3
F-0.025858005162664198
sba(iweight
Weight
p716
(dp717
g3
F-0.03848151852155738
sba(iweight
Weight
p718
(dp719
g3
F-0.026096484921483778
sba(iweight
Weight
p720
(dp721
g3
F-0.04341818252484115
sba(iweight
Weight
p722
(dp723
g3
F-0.007845933671693103
sba(iweight
Weight
p724
(dp725
g3
F-0.02291554921078332
sba(iweight
Weight
p726
(dp727
g3
F-0.012472824095099247
sba(iweight
Weight
p728
(dp729
g3
F0.00895309270372873
sba(iweight
Weight
p730
(dp731
g3
F0.0005386481555217529
sba(iweight
Weight
p732
(dp733
g3
F0.01560323051187304
sba(iweight
Weight
p734
(dp735
g3
F-0.013834089352363075
sba(iweight
Weight
p736
(dp737
g3
F-0.022260970035874995
sba(iweight
Weight
p738
(dp739
g3
F-0.04484245829237452
sba(iweight
Weight
p740
(dp741
g3
F0.03184049319798613
sba(iweight
Weight
p742
(dp743
g3
F-0.022622312901110418
sba(iweight
Weight
p744
(dp745
g3
F-0.0458865418500405
sba(iweight
Weight
p746
(dp747
g3
F-0.005428954504584725
sba(iweight
Weight
p748
(dp749
g3
F-0.0071954653542267944
sba(iweight
Weight
p750
(dp751
g3
F-0.04664594228970949
sba(iweight
Weight
p752
(dp753
g3
F0.03177277350370378
sba(iweight
Weight
p754
(dp755
g3
F0.04196263598662127
sba(iweight
Weight
p756
(dp757
g3
F-0.013045701094108545
sba(iweight
Weight
p758
(dp759
g3
F-0.034575464221314973
sba(iweight
Weight
p760
(dp761
g3
F-0.041425381890606766
sba(iweight
Weight
p762
(dp763
g3
F-0.03396656565843649
sba(iweight
Weight
p764
(dp765
g3
F-0.011778620350500275
sba(iweight
Weight
p766
(dp767
g3
F0.008275825587234394
sba(iweight
Weight
p768
(dp769
g3
F0.010830592587602102
sba(iweight
Weight
p770
(dp771
g3
F0.038306740597373636
sba(iweight
Weight
p772
(dp773
g3
F-0.023923509165405664
sba(iweight
Weight
p774
(dp775
g3
F-0.04596982820786755
sba(iweight
Weight
p776
(dp777
g3
F-0.04510799354144021
sba(iweight
Weight
p778
(dp779
g3
F0.0503843482450267
sba(iweight
Weight
p780
(dp781
g3
F-0.017477479196095727
sba(iweight
Weight
p782
(dp783
g3
F0.027045360502304532
sba(iweight
Weight
p784
(dp785
g3
F-0.02001109968657566
sba(iweight
Weight
p786
(dp787
g3
F-0.02937577814786309
sba(iweight
Weight
p788
(dp789
g3
F0.03821108720082598
sba(iweight
Weight
p790
(dp791
g3
F0.0440430096091411
sba(iweight
Weight
p792
(dp793
g3
F-0.003451759254068312
sba(iweight
Weight
p794
(dp795
g3
F-0.02373419602996606
sba(iweight
Weight
p796
(dp797
g3
F-0.03961963214006343
sba(iweight
Weight
p798
(dp799
g3
F-0.007726747796001566
sba(iweight
Weight
p800
(dp801
g3
F0.04520695445298038
sba(iweight
Weight
p802
(dp803
g3
F-0.028077772742312265
sba(iweight
Weight
p804
(dp805
g3
F0.03881325592114776
sba(iweight
Weight
p806
(dp807
g3
F0.004748001977872613
sba(iweight
Weight
p808
(dp809
g3
F-0.03923371413573469
sba(iweight
Weight
p810
(dp811
g3
F-0.028498342970386455
sba(iweight
Weight
p812
(dp813
g3
F0.016221994371915426
sba(iweight
Weight
p814
(dp815
g3
F-0.010621850293856172
sba(iweight
Weight
p816
(dp817
g3
F-0.033637446135489635
sba(iweight
Weight
p818
(dp819
g3
F0.013257138225519112
sba(iweight
Weight
p820
(dp821
g3
F-0.024348601253995704
sba(iweight
Weight
p822
(dp823
g3
F0.01992904399476294
sba(iweight
Weight
p824
(dp825
g3
F0.008528281885192715
sba(iweight
Weight
p826
(dp827
g3
F-0.025332261155264754
sba(iweight
Weight
p828
(dp829
g3
F0.019626549757385765
sba(iweight
Weight
p830
(dp831
g3
F-0.018661112413639474
sba(iweight
Weight
p832
(dp833
g3
F-0.04663628858330963
sba(iweight
Weight
p834
(dp835
g3
F0.004421461663652775
sba(iweight
Weight
p836
(dp837
g3
F-0.02640032932507557
sba(iweight
Weight
p838
(dp839
g3
F0.02393788646135587
sba(iweight
Weight
p840
(dp841
g3
F0.036041907155218184
sba(iweight
Weight
p842
(dp843
g3
F-0.048847713135896406
sba(iweight
Weight
p844
(dp845
g3
F0.0030640735399670273
sba(iweight
Weight
p846
(dp847
g3
F-0.008502652725368771
sba(iweight
Weight
p848
(dp849
g3
F-0.013016752961305698
sba(iweight
Weight
p850
(dp851
g3
F-0.005572462163270522
sba(iweight
Weight
p852
(dp853
g3
F-0.04010884821633453
sba(iweight
Weight
p854
(dp855
g3
F-0.023804823482444157
sba(iweight
Weight
p856
(dp857
g3
F-0.010735714802002977
sba(iweight
Weight
p858
(dp859
g3
F-0.016934378793190707
sba(iweight
Weight
p860
(dp861
g3
F-0.03485791318202188
sba(iweight
Weight
p862
(dp863
g3
F0.03488243004081217
sba(iweight
Weight
p864
(dp865
g3
F-0.042696519116653245
sba(iweight
Weight
p866
(dp867
g3
F0.04231038696393595
sba(iweight
Weight
p868
(dp869
g3
F0.04638991148926166
sba(iweight
Weight
p870
(dp871
g3
F-0.051901960757434126
sba(iweight
Weight
p872
(dp873
g3
F-0.01826327521504476
sba(iweight
Weight
p874
(dp875
g3
F-0.042943405688458086
sba(iweight
Weight
p876
(dp877
g3
F-0.024751347636564378
sba(iweight
Weight
p878
(dp879
g3
F0.04254553860549985
sba(iweight
Weight
p880
(dp881
g3
F-0.03391920788347068
sba(iweight
Weight
p882
(dp883
g3
F0.0240684998110938
sba(iweight
Weight
p884
(dp885
g3
F0.028801481427932454
sba(iweight
Weight
p886
(dp887
g3
F0.030931003987876227
sba(iweight
Weight
p888
(dp889
g3
F0.0040534966625469186
sba(iweight
Weight
p890
(dp891
g3
F-0.032924238456284775
sba(iweight
Weight
p892
(dp893
g3
F0.04791950338593759
sba(iweight
Weight
p894
(dp895
g3
F0.037014367206635874
sba(iweight
Weight
p896
(dp897
g3
F0.016139172719049015
sba(iweight
Weight
p898
(dp899
g3
F0.009627734492926133
sba(iweight
Weight
p900
(dp901
g3
F-0.02139326779669706
sba(iweight
Weight
p902
(dp903
g3
F0.03040505426339246
sba(iweight
Weight
p904
(dp905
g3
F0.016615147677177856
sba(iweight
Weight
p906
(dp907
g3
F-0.0018895299814954507
sba(iweight
Weight
p908
(dp909
g3
F0.01622218688143087
sba(iweight
Weight
p910
(dp911
g3
F0.010164214405991882
sba(iweight
Weight
p912
(dp913
g3
F0.0039823311705237995
sba(iweight
Weight
p914
(dp915
g3
F0.011062773804861427
sba(iweight
Weight
p916
(dp917
g3
F-0.003092255521468468
sba(iweight
Weight
p918
(dp919
g3
F-0.03207434311224357
sba(iweight
Weight
p920
(dp921
g3
F-0.046535725121433016
sba(iweight
Weight
p922
(dp923
g3
F-0.009569467489324399
sba(iweight
Weight
p924
(dp925
g3
F-0.010579564276424338
sba(iweight
Weight
p926
(dp927
g3
F0.03169733827678186
sba(iweight
Weight
p928
(dp929
g3
F0.0389270742807558
sba(iweight
Weight
p930
(dp931
g3
F0.02736648092888702
sba(iweight
Weight
p932
(dp933
g3
F0.038134409957629095
sba(iweight
Weight
p934
(dp935
g3
F-0.05179414663170237
sba(iweight
Weight
p936
(dp937
g3
F0.020233294022056723
sba(iweight
Weight
p938
(dp939
g3
F-0.004224482076317029
sba(iweight
Weight
p940
(dp941
g3
F-0.02377298401024838
sba(iweight
Weight
p942
(dp943
g3
F-0.015721803555290733
sba(iweight
Weight
p944
(dp945
g3
F0.04304372048141199
sba(iweight
Weight
p946
(dp947
g3
F0.012463520596479311
sba(iweight
Weight
p948
(dp949
g3
F0.03738458347603236
sba(iweight
Weight
p950
(dp951
g3
F-0.02668900035370841
sba(iweight
Weight
p952
(dp953
g3
F0.04536524591672153
sba(iweight
Weight
p954
(dp955
g3
F0.04638956842164496
sba(iweight
Weight
p956
(dp957
g3
F-0.032860229781077
sba(iweight
Weight
p958
(dp959
g3
F0.0036181976279412663
sba(iweight
Weight
p960
(dp961
g3
F-0.021093195914103857
sba(iweight
Weight
p962
(dp963
g3
F0.02389994252445394
sba(iweight
Weight
p964
(dp965
g3
F0.03586660663917282
sba(iweight
Weight
p966
(dp967
g3
F0.006442468338318065
sba(iweight
Weight
p968
(dp969
g3
F0.02801626768693788
sba(iweight
Weight
p970
(dp971
g3
F-0.0024154412135246987
sba(iweight
Weight
p972
(dp973
g3
F-0.03822980759177732
sba(iweight
Weight
p974
(dp975
g3
F-0.04241720589037899
sba(iweight
Weight
p976
(dp977
g3
F0.0260606663059135
sba(iweight
Weight
p978
(dp979
g3
F0.015649251971764356
sba(iweight
Weight
p980
(dp981
g3
F0.04605868237810943
sba(iweight
Weight
p982
(dp983
g3
F0.01821326020479594
sba(iweight
Weight
p984
(dp985
g3
F0.005258552440761849
sba(iweight
Weight
p986
(dp987
g3
F0.05056789547910467
sba(iweight
Weight
p988
(dp989
g3
F-0.022491174770190178
sba(iweight
Weight
p990
(dp991
g3
F-0.028780903666974996
sba(iweight
Weight
p992
(dp993
g3
F0.04672712869412444
sba(iweight
Weight
p994
(dp995
g3
F0.046174167450044934
sba(iweight
Weight
p996
(dp997
g3
F0.04774859355716766
sba(iweight
Weight
p998
(dp999
g3
F0.023344424253515603
sba(iweight
Weight
p1000
(dp1001
g3
F-0.021732896999662143
sba(iweight
Weight
p1002
(dp1003
g3
F-0.008966797377260046
sba(iweight
Weight
p1004
(dp1005
g3
F-0.04864649170530666
sba(iweight
Weight
p1006
(dp1007
g3
F0.008094384735595591
sba(iweight
Weight
p1008
(dp1009
g3
F-0.034274741044238013
sba(iweight
Weight
p1010
(dp1011
g3
F0.03377665640606659
sba(iweight
Weight
p1012
(dp1013
g3
F0.04044214780930773
sba(iweight
Weight
p1014
(dp1015
g3
F0.032101464771714126
sba(iweight
Weight
p1016
(dp1017
g3
F-0.01797945736413955
sba(iweight
Weight
p1018
(dp1019
g3
F0.041439148415355856
sba(iweight
Weight
p1020
(dp1021
g3
F-0.045880898383167563
sba(iweight
Weight
p1022
(dp1023
g3
F0.027759869258015834
sba(iweight
Weight
p1024
(dp1025
g3
F0.044685112830887906
sba(iweight
Weight
p1026
(dp1027
g3
F0.014290689564579838
sba(iweight
Weight
p1028
(dp1029
g3
F-0.01862094624378002
sba(iweight
Weight
p1030
(dp1031
g3
F-0.042890234191858785
sba(iweight
Weight
p1032
(dp1033
g3
F-0.03451355181460492
sba(iweight
Weight
p1034
(dp1035
g3
F0.01022195162274984
sba(iweight
Weight
p1036
(dp1037
g3
F0.011260957469103728
sba(iweight
Weight
p1038
(dp1039
g3
F-0.03238560968113816
sba(iweight
Weight
p1040
(dp1041
g3
F-0.0024445710653587453
sba(iweight
Weight
p1042
(dp1043
g3
F0.008394007296504457
sba(iweight
Weight
p1044
(dp1045
g3
F0.04243658091746706
sba(iweight
Weight
p1046
(dp1047
g3
F-0.0038144609348786615
sba(iweight
Weight
p1048
(dp1049
g3
F-0.010319526537663198
sba(iweight
Weight
p1050
(dp1051
g3
F-0.012571637919639023
sba(iweight
Weight
p1052
(dp1053
g3
F-0.043047842769123074
sba(iweight
Weight
p1054
(dp1055
g3
F-0.05048010022068313
sba(iweight
Weight
p1056
(dp1057
g3
F0.041904151714168496
sba(iweight
Weight
p1058
(dp1059
g3
F-0.025899881662252894
sba(iweight
Weight
p1060
(dp1061
g3
F-0.0331344846284882
sba(iweight
Weight
p1062
(dp1063
g3
F-0.021579545738955853
sba(iweight
Weight
p1064
(dp1065
g3
F0.013736185075268654
sba(iweight
Weight
p1066
(dp1067
g3
F0.03436462960167855
sba(iweight
Weight
p1068
(dp1069
g3
F0.04902058296430124
sba(iweight
Weight
p1070
(dp1071
g3
F-0.043651469875357195
sba(iweight
Weight
p1072
(dp1073
g3
F0.041892216721236934
sba(iweight
Weight
p1074
(dp1075
g3
F0.01129441524820523
sba(iweight
Weight
p1076
(dp1077
g3
F0.0355249723113934
sba(iweight
Weight
p1078
(dp1079
g3
F-0.041627130147161955
sba(iweight
Weight
p1080
(dp1081
g3
F0.01046020484091619
sba(iweight
Weight
p1082
(dp1083
g3
F0.002090136675717444
sba(iweight
Weight
p1084
(dp1085
g3
F-0.046317847787475455
sba(iweight
Weight
p1086
(dp1087
g3
F0.024850743949987576
sba(iweight
Weight
p1088
(dp1089
g3
F-0.04769152911056864
sba(iweight
Weight
p1090
(dp1091
g3
F0.02880030460020724
sba(iweight
Weight
p1092
(dp1093
g3
F-0.023143499018900428
sba(iweight
Weight
p1094
(dp1095
g3
F-0.021965313415147816
sba(iweight
Weight
p1096
(dp1097
g3
F-0.008324203762179707
sba(iweight
Weight
p1098
(dp1099
g3
F0.008605992730312286
sba(iweight
Weight
p1100
(dp1101
g3
F-0.01513488521493942
sba(iweight
Weight
p1102
(dp1103
g3
F0.003011662936358453
sba(iweight
Weight
p1104
(dp1105
g3
F0.048212940796569716
sba(iweight
Weight
p1106
(dp1107
g3
F-0.0372027812776166
sba(iweight
Weight
p1108
(dp1109
g3
F0.018034363998961817
sba(iweight
Weight
p1110
(dp1111
g3
F-0.029962145857192972
sba(iweight
Weight
p1112
(dp1113
g3
F-0.04717470694162072
sba(iweight
Weight
p1114
(dp1115
g3
F-0.002038145591213417
sba(iweight
Weight
p1116
(dp1117
g3
F0.007480970649608158
sba(iweight
Weight
p1118
(dp1119
g3
F-0.04570182525006246
sba(iweight
Weight
p1120
(dp1121
g3
F-0.048139243508817306
sba(iweight
Weight
p1122
(dp1123
g3
F-0.02027631164771182
sba(iweight
Weight
p1124
(dp1125
g3
F-0.02101510201579574
sba(iweight
Weight
p1126
(dp1127
g3
F0.03855027468435597
sba(iweight
Weight
p1128
(dp1129
g3
F-0.020462529319049773
sba(iweight
Weight
p1130
(dp1131
g3
F0.05076972304920896
sba(iweight
Weight
p1132
(dp1133
g3
F0.009347389418171906
sba(iweight
Weight
p1134
(dp1135
g3
F-0.0414548078121189
sba(iweight
Weight
p1136
(dp1137
g3
F0.014144317586501459
sba(iweight
Weight
p1138
(dp1139
g3
F-0.011619043126362683
sba(iweight
Weight
p1140
(dp1141
g3
F0.027987537958678282
sba(iweight
Weight
p1142
(dp1143
g3
F0.0495109326699636
sba(iweight
Weight
p1144
(dp1145
g3
F0.0390477221080831
sba(iweight
Weight
p1146
(dp1147
g3
F0.037189167257422245
sba(iweight
Weight
p1148
(dp1149
g3
F-0.027135839251407976
sba(iweight
Weight
p1150
(dp1151
g3
F0.010079034722138414
sba(iweight
Weight
p1152
(dp1153
g3
F-0.010745726134634072
sba(iweight
Weight
p1154
(dp1155
g3
F0.0417271593305965
sba(iweight
Weight
p1156
(dp1157
g3
F-0.011354805392172082
sba(iweight
Weight
p1158
(dp1159
g3
F-0.05082425998849431
sba(iweight
Weight
p1160
(dp1161
g3
F0.04570795172251029
sba(iweight
Weight
p1162
(dp1163
g3
F-0.0027748304429866147
sba(iweight
Weight
p1164
(dp1165
g3
F-0.04190653951416473
sba(iweight
Weight
p1166
(dp1167
g3
F0.0076252815845853856
sba(iweight
Weight
p1168
(dp1169
g3
F0.02896835389987652
sba(iweight
Weight
p1170
(dp1171
g3
F0.017298034413806992
sba(iweight
Weight
p1172
(dp1173
g3
F0.011016847530523078
sba(iweight
Weight
p1174
(dp1175
g3
F0.04282612615058808
sba(iweight
Weight
p1176
(dp1177
g3
F0.0410508516583375
sba(iweight
Weight
p1178
(dp1179
g3
F0.006629398016246556
sba(iweight
Weight
p1180
(dp1181
g3
F-0.006191902714347596
sba(iweight
Weight
p1182
(dp1183
g3
F6.329279569109537e-05
sba(iweight
Weight
p1184
(dp1185
g3
F-0.020376463356760594
sba(iweight
Weight
p1186
(dp1187
g3
F-0.019664140644844945
sba(iweight
Weight
p1188
(dp1189
g3
F0.00561120351935229
sba(iweight
Weight
p1190
(dp1191
g3
F0.030551155853559667
sba(iweight
Weight
p1192
(dp1193
g3
F-0.028031828358231245
sba(iweight
Weight
p1194
(dp1195
g3
F0.03827444765560127
sba(iweight
Weight
p1196
(dp1197
g3
F0.028076352805379217
sba(iweight
Weight
p1198
(dp1199
g3
F0.014269371602237221
sba(iweight
Weight
p1200
(dp1201
g3
F-0.03882331288674484
sba(iweight
Weight
p1202
(dp1203
g3
F-0.040625747851554685
sba(iweight
Weight
p1204
(dp1205
g3
F-0.035289591493947205
sba(iweight
Weight
p1206
(dp1207
g3
F-0.011711855415118854
sba(iweight
Weight
p1208
(dp1209
g3
F0.0029578397744368158
sba(iweight
Weight
p1210
(dp1211
g3
F0.04376772770489476
sba(iweight
Weight
p1212
(dp1213
g3
F0.025873896910361335
sba(iweight
Weight
p1214
(dp1215
g3
F-0.0409458130937599
sba(iweight
Weight
p1216
(dp1217
g3
F0.022831625222766824
sba(iweight
Weight
p1218
(dp1219
g3
F-0.010235979911526062
sba(iweight
Weight
p1220
(dp1221
g3
F-0.03413881972790853
sba(iweight
Weight
p1222
(dp1223
g3
F0.019471511843652565
sba(iweight
Weight
p1224
(dp1225
g3
F-0.029892660407173414
sba(iweight
Weight
p1226
(dp1227
g3
F0.021566827195767115
sba(iweight
Weight
p1228
(dp1229
g3
F0.014618750093790732
sba(iweight
Weight
p1230
(dp1231
g3
F-0.008920096102154235
sba(iweight
Weight
p1232
(dp1233
g3
F0.02723418202300614
sba(iweight
Weight
p1234
(dp1235
g3
F-0.005894255682397317
sba(iweight
Weight
p1236
(dp1237
g3
F-0.039198777256167626
sba(iweight
Weight
p1238
(dp1239
g3
F0.004731243201943067
sba(iweight
Weight
p1240
(dp1241
g3
F-0.04324515027046779
sba(iweight
Weight
p1242
(dp1243
g3
F0.0129454245875486
sba(iweight
Weight
p1244
(dp1245
g3
F0.01020820867802254
sba(iweight
Weight
p1246
(dp1247
g3
F-0.017081301887978968
sba(iweight
Weight
p1248
(dp1249
g3
F0.009059614428839204
sba(iweight
Weight
p1250
(dp1251
g3
F-0.04734264046354764
sba(iweight
Weight
p1252
(dp1253
g3
F-0.006419082182022459
sba(iweight
Weight
p1254
(dp1255
g3
F-0.04514278241820912
sba(iweight
Weight
p1256
(dp1257
g3
F0.015369487173414739
sba(iweight
Weight
p1258
(dp1259
g3
F0.02715753655727379
sba(iweight
Weight
p1260
(dp1261
g3
F0.005541458605660349
sba(iweight
Weight
p1262
(dp1263
g3
F0.04395228252736407
sba(iweight
Weight
p1264
(dp1265
g3
F0.015395700211690368
sba(iweight
Weight
p1266
(dp1267
g3
F-0.006474038708305317
sba(iweight
Weight
p1268
(dp1269
g3
F-0.039791574792164865
sba(iweight
Weight
p1270
(dp1271
g3
F-0.01579384096321637
sba(iweight
Weight
p1272
(dp1273
g3
F-0.01646190820106514
sba(iweight
Weight
p1274
(dp1275
g3
F-0.009822030738707604
sba(iweight
Weight
p1276
(dp1277
g3
F-0.043238301648936016
sba(iweight
Weight
p1278
(dp1279
g3
F-0.04818776472036589
sba(iweight
Weight
p1280
(dp1281
g3
F0.03964010654099168
sba(iweight
Weight
p1282
(dp1283
g3
F0.023477414726115232
sba(iweight
Weight
p1284
(dp1285
g3
F-0.005695425546909197
sba(iweight
Weight
p1286
(dp1287
g3
F0.003923503752768145
sba(iweight
Weight
p1288
(dp1289
g3
F-0.010401905802526375
sba(iweight
Weight
p1290
(dp1291
g3
F0.02817288347547368
sba(iweight
Weight
p1292
(dp1293
g3
F-0.012002812105103223
sba(iweight
Weight
p1294
(dp1295
g3
F0.02628201385770929
sba(iweight
Weight
p1296
(dp1297
g3
F0.02755885761197215
sba(iweight
Weight
p1298
(dp1299
g3
F0.013535742993880355
sba(iweight
Weight
p1300
(dp1301
g3
F-0.010713971744758119
sba(iweight
Weight
p1302
(dp1303
g3
F-0.026113419914348804
sba(iweight
Weight
p1304
(dp1305
g3
F0.030634273409394057
sba(iweight
Weight
p1306
(dp1307
g3
F-0.032841641915016755
sba(iweight
Weight
p1308
(dp1309
g3
F0.04410532616673926
sba(iweight
Weight
p1310
(dp1311
g3
F-0.0183220646344129
sba(iweight
Weight
p1312
(dp1313
g3
F-0.01628247873681026
sba(iweight
Weight
p1314
(dp1315
g3
F-0.013689230371559584
sba(iweight
Weight
p1316
(dp1317
g3
F-0.027809563990830247
sba(iweight
Weight
p1318
(dp1319
g3
F0.007973249033788177
sba(iweight
Weight
p1320
(dp1321
g3
F0.03004690263853508
sba(iweight
Weight
p1322
(dp1323
g3
F-0.01455157055392504
sba(iweight
Weight
p1324
(dp1325
g3
F0.005251019767173481
sba(iweight
Weight
p1326
(dp1327
g3
F0.0018413321980815635
sba(iweight
Weight
p1328
(dp1329
g3
F0.010105190341251588
sba(iweight
Weight
p1330
(dp1331
g3
F0.02693288099029725
sba(iweight
Weight
p1332
(dp1333
g3
F-0.002211435314823605
sba(iweight
Weight
p1334
(dp1335
g3
F-0.04826293751795966
sba(iweight
Weight
p1336
(dp1337
g3
F-0.035973749040733756
sba(iweight
Weight
p1338
(dp1339
g3
F-0.020494881257179586
sba(iweight
Weight
p1340
(dp1341
g3
F-0.011779525369165267
sba(iweight
Weight
p1342
(dp1343
g3
F0.04587116722911096
sba(iweight
Weight
p1344
(dp1345
g3
F-0.02219687390636268
sba(iweight
Weight
p1346
(dp1347
g3
F0.026253925741066407
sba(iweight
Weight
p1348
(dp1349
g3
F0.023008537627126166
sba(iweight
Weight
p1350
(dp1351
g3
F0.005831126167160061
sba(iweight
Weight
p1352
(dp1353
g3
F0.045215905832263086
sba(iweight
Weight
p1354
(dp1355
g3
F-0.008058156949359794
sba(iweight
Weight
p1356
(dp1357
g3
F0.008524392206674416
sba(iweight
Weight
p1358
(dp1359
g3
F0.0041529222597853745
sba(iweight
Weight
p1360
(dp1361
g3
F0.008544278577583346
sba(iweight
Weight
p1362
(dp1363
g3
F-0.012652851887606092
sba(iweight
Weight
p1364
(dp1365
g3
F-0.03359378855595311
sba(iweight
Weight
p1366
(dp1367
g3
F0.01659183272077895
sba(iweight
Weight
p1368
(dp1369
g3
F0.02249656489977983
sba(iweight
Weight
p1370
(dp1371
g3
F0.04534374553292068
sba(iweight
Weight
p1372
(dp1373
g3
F0.028332526718879942
sba(iweight
Weight
p1374
(dp1375
g3
F-0.02834787991042374
sba(iweight
Weight
p1376
(dp1377
g3
F-0.039318751054947566
sba(iweight
Weight
p1378
(dp1379
g3
F-0.05185259170353517
sba(iweight
Weight
p1380
(dp1381
g3
F-0.03197002948966043
sba(iweight
Weight
p1382
(dp1383
g3
F-0.018096327084477837
sba(iweight
Weight
p1384
(dp1385
g3
F0.036667476269489845
sba(iweight
Weight
p1386
(dp1387
g3
F0.03404051102679272
sba(iweight
Weight
p1388
(dp1389
g3
F-0.04438441391240155
sba(iweight
Weight
p1390
(dp1391
g3
F-0.0343973853380363
sba(iweight
Weight
p1392
(dp1393
g3
F0.01833823384819574
sba(iweight
Weight
p1394
(dp1395
g3
F0.011547840599318952
sba(iweight
Weight
p1396
(dp1397
g3
F-0.02902117407011094
sba(iweight
Weight
p1398
(dp1399
g3
F0.03356041540536037
sba(iweight
Weight
p1400
(dp1401
g3
F0.04608366394798463
sba(iweight
Weight
p1402
(dp1403
g3
F0.009805843027874855
sba(iweight
Weight
p1404
(dp1405
g3
F0.025450785923735383
sba(iweight
Weight
p1406
(dp1407
g3
F0.04428307559130384
sba(iweight
Weight
p1408
(dp1409
g3
F-0.029918738697183676
sba(iweight
Weight
p1410
(dp1411
g3
F0.04135686599096554
sba(iweight
Weight
p1412
(dp1413
g3
F-0.013047720636741512
sba(iweight
Weight
p1414
(dp1415
g3
F-0.00038298219511868724
sba(iweight
Weight
p1416
(dp1417
g3
F-0.013831652511136055
sba(iweight
Weight
p1418
(dp1419
g3
F-0.01969476045198102
sba(iweight
Weight
p1420
(dp1421
g3
F-0.03261929661681827
sba(iweight
Weight
p1422
(dp1423
g3
F0.036286509192406585
sba(iweight
Weight
p1424
(dp1425
g3
F0.014758830174300111
sba(iweight
Weight
p1426
(dp1427
g3
F0.007454174796763744
sba(iweight
Weight
p1428
(dp1429
g3
F0.035439725462315746
sba(iweight
Weight
p1430
(dp1431
g3
F-0.021951675140861177
sba(iweight
Weight
p1432
(dp1433
g3
F0.016884494634238672
sba(iweight
Weight
p1434
(dp1435
g3
F-0.04503877842475537
sba(iweight
Weight
p1436
(dp1437
g3
F-0.04461162134142933
sba(iweight
Weight
p1438
(dp1439
g3
F-0.030762159217701274
sba(iweight
Weight
p1440
(dp1441
g3
F0.04196174616309067
sba(iweight
Weight
p1442
(dp1443
g3
F0.019618391874857793
sba(iweight
Weight
p1444
(dp1445
g3
F-0.042858007652595974
sba(iweight
Weight
p1446
(dp1447
g3
F0.0037524613438097445
sba(iweight
Weight
p1448
(dp1449
g3
F-0.009939030850952194
sba(iweight
Weight
p1450
(dp1451
g3
F0.030916918168761905
sba(iweight
Weight
p1452
(dp1453
g3
F-0.010467639469944227
sba(iweight
Weight
p1454
(dp1455
g3
F0.04574375139748323
sba(iweight
Weight
p1456
(dp1457
g3
F-0.009048435331314629
sba(iweight
Weight
p1458
(dp1459
g3
F-0.005221678869327002
sba(iweight
Weight
p1460
(dp1461
g3
F-0.009003393328838106
sba(iweight
Weight
p1462
(dp1463
g3
F0.009414743302768404
sba(iweight
Weight
p1464
(dp1465
g3
F0.030295214869079986
sba(iweight
Weight
p1466
(dp1467
g3
F0.013225954375110862
sba(iweight
Weight
p1468
(dp1469
g3
F-0.03478085973898769
sba(iweight
Weight
p1470
(dp1471
g3
F0.03828992814012335
sba(iweight
Weight
p1472
(dp1473
g3
F0.04239883907572631
sba(iweight
Weight
p1474
(dp1475
g3
F-0.0505135682371514
sba(iweight
Weight
p1476
(dp1477
g3
F-0.05257091900530446
sba(iweight
Weight
p1478
(dp1479
g3
F-0.01323211799500645
sba(iweight
Weight
p1480
(dp1481
g3
F-0.034847776993553674
sba(iweight
Weight
p1482
(dp1483
g3
F-0.028298907133475736
sba(iweight
Weight
p1484
(dp1485
g3
F0.01146424741691508
sba(iweight
Weight
p1486
(dp1487
g3
F-0.024044343779753976
sba(iweight
Weight
p1488
(dp1489
g3
F0.016224183725922214
sba(iweight
Weight
p1490
(dp1491
g3
F-0.02584816620482534
sba(iweight
Weight
p1492
(dp1493
g3
F0.0446529703443487
sba(iweight
Weight
p1494
(dp1495
g3
F0.012364236394252744
sba(iweight
Weight
p1496
(dp1497
g3
F-0.030272842197702387
sba(iweight
Weight
p1498
(dp1499
g3
F-0.0076247021084499935
sba(iweight
Weight
p1500
(dp1501
g3
F-0.02774149066835792
sba(iweight
Weight
p1502
(dp1503
g3
F-0.038311261791266205
sba(iweight
Weight
p1504
(dp1505
g3
F0.00021799788446713025
sba(iweight
Weight
p1506
(dp1507
g3
F-0.043997378521901026
sba(iweight
Weight
p1508
(dp1509
g3
F-0.04530368892743803
sba(iweight
Weight
p1510
(dp1511
g3
F-0.048462444507442685
sba(iweight
Weight
p1512
(dp1513
g3
F0.03960494436615764
sba(iweight
Weight
p1514
(dp1515
g3
F0.032648561798431765
sba(iweight
Weight
p1516
(dp1517
g3
F-0.020182954869566373
sba(iweight
Weight
p1518
(dp1519
g3
F0.02668962310030812
sba(iweight
Weight
p1520
(dp1521
g3
F0.04347565318605838
sba(iweight
Weight
p1522
(dp1523
g3
F0.03785410587904489
sba(iweight
Weight
p1524
(dp1525
g3
F-0.03520795780424329
sba(iweight
Weight
p1526
(dp1527
g3
F0.0289614204952881
sba(iweight
Weight
p1528
(dp1529
g3
F0.05122521524100393
sba(iweight
Weight
p1530
(dp1531
g3
F-0.0004971695650747034
sba(iweight
Weight
p1532
(dp1533
g3
F0.04830451819509539
sba(iweight
Weight
p1534
(dp1535
g3
F0.015178773777718129
sba(iweight
Weight
p1536
(dp1537
g3
F0.014394456453692776
sba(iweight
Weight
p1538
(dp1539
g3
F-0.012767959476644792
sba(iweight
Weight
p1540
(dp1541
g3
F0.0022856687047050294
sba(iweight
Weight
p1542
(dp1543
g3
F-0.006752221652930634
sba(iweight
Weight
p1544
(dp1545
g3
F-0.03590046859619091
sba(iweight
Weight
p1546
(dp1547
g3
F-0.004586298635116617
sba(iweight
Weight
p1548
(dp1549
g3
F0.011967776045735167
sba(iweight
Weight
p1550
(dp1551
g3
F-0.04280951957308983
sba(iweight
Weight
p1552
(dp1553
g3
F0.022235927633980027
sba(iweight
Weight
p1554
(dp1555
g3
F0.01378691492554251
sba(iweight
Weight
p1556
(dp1557
g3
F-0.00441817120515249
sba(iweight
Weight
p1558
(dp1559
g3
F0.044037297514042714
sba(iweight
Weight
p1560
(dp1561
g3
F-0.04401990666032991
sba(iweight
Weight
p1562
(dp1563
g3
F0.005275609728675952
sba(iweight
Weight
p1564
(dp1565
g3
F-0.0021780377586354516
sba(iweight
Weight
p1566
(dp1567
g3
F0.043560025304673185
sba(iweight
Weight
p1568
(dp1569
g3
F-0.0400746053709654
sba(iweight
Weight
p1570
(dp1571
g3
F-0.006045892399515088
sba(iweight
Weight
p1572
(dp1573
g3
F-0.027984483533201595
sba(iweight
Weight
p1574
(dp1575
g3
F0.03269719747486705
sba(iweight
Weight
p1576
(dp1577
g3
F-0.029281268981295634
sba(iweight
Weight
p1578
(dp1579
g3
F0.03609655466530736
sba(iweight
Weight
p1580
(dp1581
g3
F-0.00304037827287825
sba(iweight
Weight
p1582
(dp1583
g3
F0.04378581012034874
sba(iweight
Weight
p1584
(dp1585
g3
F-0.04406725667608164
sba(iweight
Weight
p1586
(dp1587
g3
F-0.02623640804091817
sba(iweight
Weight
p1588
(dp1589
g3
F-0.01441549497517171
sba(iweight
Weight
p1590
(dp1591
g3
F-0.006288014837955859
sba(iweight
Weight
p1592
(dp1593
g3
F-0.040324778868894184
sba(iweight
Weight
p1594
(dp1595
g3
F0.028424588509154657
sba(iweight
Weight
p1596
(dp1597
g3
F-0.009088490998479325
sba(iweight
Weight
p1598
(dp1599
g3
F-0.034319134165244104
sba(iweight
Weight
p1600
(dp1601
g3
F0.007076551761732369
sba(iweight
Weight
p1602
(dp1603
g3
F-0.016133963501731657
sba(iweight
Weight
p1604
(dp1605
g3
F-0.039533101977016684
sba(iweight
Weight
p1606
(dp1607
g3
F-0.009944073922641503
sba(iweight
Weight
p1608
(dp1609
g3
F0.025738581964084357
sba(iweight
Weight
p1610
(dp1611
g3
F-0.01562617553803404
sba(iweight
Weight
p1612
(dp1613
g3
F-0.036810932769365354
sba(iweight
Weight
p1614
(dp1615
g3
F-0.032974779721306954
sba(iweight
Weight
p1616
(dp1617
g3
F-0.0010537842147594005
sba(iweight
Weight
p1618
(dp1619
g3
F-0.05619397496165382
sba(iweight
Weight
p1620
(dp1621
g3
F0.018657045418721787
sba(iweight
Weight
p1622
(dp1623
g3
F0.00640443804870445
sba(iweight
Weight
p1624
(dp1625
g3
F-0.021359395969389402
sba(iweight
Weight
p1626
(dp1627
g3
F0.013273449113538453
sba(iweight
Weight
p1628
(dp1629
g3
F0.016948048634601066
sba(iweight
Weight
p1630
(dp1631
g3
F0.045270399631975385
sba(iweight
Weight
p1632
(dp1633
g3
F-0.006235497802956481
sba(iweight
Weight
p1634
(dp1635
g3
F0.009884650389645797
sba(iweight
Weight
p1636
(dp1637
g3
F0.0354495506315028
sba(iweight
Weight
p1638
(dp1639
g3
F0.02564843735202552
sba(iweight
Weight
p1640
(dp1641
g3
F-0.0342995389012234
sba(iweight
Weight
p1642
(dp1643
g3
F-0.011796995635038766
sba(iweight
Weight
p1644
(dp1645
g3
F-0.01287333807893924
sba(iweight
Weight
p1646
(dp1647
g3
F-0.02140646177538415
sba(iweight
Weight
p1648
(dp1649
g3
F0.010438493750563733
sba(iweight
Weight
p1650
(dp1651
g3
F-0.03664037542645318
sba(iweight
Weight
p1652
(dp1653
g3
F0.00751306466797258
sba(iweight
Weight
p1654
(dp1655
g3
F-0.0066834153400760965
sba(iweight
Weight
p1656
(dp1657
g3
F-0.027721736398256834
sba(iweight
Weight
p1658
(dp1659
g3
F-0.023583595095565717
sba(iweight
Weight
p1660
(dp1661
g3
F-0.0038770435829723953
sba(iweight
Weight
p1662
(dp1663
g3
F0.04082813408907135
sba(iweight
Weight
p1664
(dp1665
g3
F0.006462012215765211
sba(iweight
Weight
p1666
(dp1667
g3
F0.032698358525356803
sba(iweight
Weight
p1668
(dp1669
g3
F0.006578638614984368
sba(iweight
Weight
p1670
(dp1671
g3
F0.019403325311985697
sba(iweight
Weight
p1672
(dp1673
g3
F-0.0002887146360429605
sba(iweight
Weight
p1674
(dp1675
g3
F-0.04543070124676929
sba(iweight
Weight
p1676
(dp1677
g3
F-0.048317155771945446
sba(iweight
Weight
p1678
(dp1679
g3
F0.0354024003691987
sba(iweight
Weight
p1680
(dp1681
g3
F0.029190519526896223
sba(iweight
Weight
p1682
(dp1683
g3
F-0.04537642350869276
sba(iweight
Weight
p1684
(dp1685
g3
F0.0015728126962032591
sba(iweight
Weight
p1686
(dp1687
g3
F-0.017915727489694777
sba(iweight
Weight
p1688
(dp1689
g3
F-0.03330886903444091
sba(iweight
Weight
p1690
(dp1691
g3
F0.013890153602212733
sba(iweight
Weight
p1692
(dp1693
g3
F-0.02990453887453313
sba(iweight
Weight
p1694
(dp1695
g3
F0.01578343988770431
sba(iweight
Weight
p1696
(dp1697
g3
F-0.01311617284504728
sba(iweight
Weight
p1698
(dp1699
g3
F-0.016396082772478743
sba(iweight
Weight
p1700
(dp1701
g3
F-0.046463471029873325
sba(iweight
Weight
p1702
(dp1703
g3
F-0.006644053794070109
sba(iweight
Weight
p1704
(dp1705
g3
F0.008835151275438925
sba(iweight
Weight
p1706
(dp1707
g3
F0.04038201671278956
sba(iweight
Weight
p1708
(dp1709
g3
F0.014916747963967995
sba(iweight
Weight
p1710
(dp1711
g3
F-0.02096446128589778
sba(iweight
Weight
p1712
(dp1713
g3
F-0.02487930934456986
sba(iweight
Weight
p1714
(dp1715
g3
F-0.012771648705000837
sba(iweight
Weight
p1716
(dp1717
g3
F0.047772744845757144
sba(iweight
Weight
p1718
(dp1719
g3
F-0.01175733644643876
sba(iweight
Weight
p1720
(dp1721
g3
F0.04525482014222246
sba(iweight
Weight
p1722
(dp1723
g3
F-0.008908667704675891
sba(iweight
Weight
p1724
(dp1725
g3
F0.017645414985690642
sba(iweight
Weight
p1726
(dp1727
g3
F-0.029895524993491268
sba(iweight
Weight
p1728
(dp1729
g3
F0.043604635731610684
sba(iweight
Weight
p1730
(dp1731
g3
F0.013366306602818854
sba(iweight
Weight
p1732
(dp1733
g3
F0.03666043654370567
sba(iweight
Weight
p1734
(dp1735
g3
F0.028798477738162926
sba(iweight
Weight
p1736
(dp1737
g3
F0.03782035635261588
sba(iweight
Weight
p1738
(dp1739
g3
F-0.04066619258497932
sba(iweight
Weight
p1740
(dp1741
g3
F-0.04036957236179799
sba(iweight
Weight
p1742
(dp1743
g3
F0.013445296715462575
sba(iweight
Weight
p1744
(dp1745
g3
F-0.01525920861373824
sba(iweight
Weight
p1746
(dp1747
g3
F-0.04278966748310227
sba(iweight
Weight
p1748
(dp1749
g3
F0.022820855862817607
sba(iweight
Weight
p1750
(dp1751
g3
F-0.05035959004891205
sba(iweight
Weight
p1752
(dp1753
g3
F0.049221532340774754
sba(iweight
Weight
p1754
(dp1755
g3
F0.0236196988121306
sba(iweight
Weight
p1756
(dp1757
g3
F0.008831487705657164
sba(iweight
Weight
p1758
(dp1759
g3
F-0.025395187213114782
sba(iweight
Weight
p1760
(dp1761
g3
F0.005757820056989161
sba(iweight
Weight
p1762
(dp1763
g3
F-0.02536294616900575
sba(iweight
Weight
p1764
(dp1765
g3
F-0.005236149673169558
sba(iweight
Weight
p1766
(dp1767
g3
F-0.046756967738195605
sba(iweight
Weight
p1768
(dp1769
g3
F0.036738569048344605
sba(iweight
Weight
p1770
(dp1771
g3
F0.03279995108429171
sba(iweight
Weight
p1772
(dp1773
g3
F0.012653778138888497
sba(iweight
Weight
p1774
(dp1775
g3
F-0.024647828176356044
sba(iweight
Weight
p1776
(dp1777
g3
F-0.0036195044742798528
sba(iweight
Weight
p1778
(dp1779
g3
F0.0019242775651000085
sba(iweight
Weight
p1780
(dp1781
g3
F0.03577453813194488
sba(iweight
Weight
p1782
(dp1783
g3
F0.005574627357171514
sba(iweight
Weight
p1784
(dp1785
g3
F-0.020711849428877046
sba(iweight
Weight
p1786
(dp1787
g3
F0.0077283928651897486
sba(iweight
Weight
p1788
(dp1789
g3
F-0.02240294795539394
sba(iweight
Weight
p1790
(dp1791
g3
F-0.03154460925868303
sba(iweight
Weight
p1792
(dp1793
g3
F-0.03256198377225236
sba(iweight
Weight
p1794
(dp1795
g3
F-0.007490639597139439
sba(iweight
Weight
p1796
(dp1797
g3
F-0.01899958957472898
sba(iweight
Weight
p1798
(dp1799
g3
F0.034069562022047306
sba(iweight
Weight
p1800
(dp1801
g3
F-0.0010391389347527693
sba(iweight
Weight
p1802
(dp1803
g3
F-0.005148328301827451
sba(iweight
Weight
p1804
(dp1805
g3
F-0.03241361722682725
sba(iweight
Weight
p1806
(dp1807
g3
F-0.03534578001366813
sba(iweight
Weight
p1808
(dp1809
g3
F0.00984982570160395
sba(iweight
Weight
p1810
(dp1811
g3
F0.007076881699729219
sba(iweight
Weight
p1812
(dp1813
g3
F0.010806836055211084
sba(iweight
Weight
p1814
(dp1815
g3
F0.013325232913934528
sba(iweight
Weight
p1816
(dp1817
g3
F-0.008607041760590631
sba(iweight
Weight
p1818
(dp1819
g3
F-0.02668303024887455
sba(iweight
Weight
p1820
(dp1821
g3
F-0.00039574369299107614
sba(iweight
Weight
p1822
(dp1823
g3
F-0.006454278201372331
sba(iweight
Weight
p1824
(dp1825
g3
F-0.045478572885126245
sba(iweight
Weight
p1826
(dp1827
g3
F-0.04049858159949986
sba(iweight
Weight
p1828
(dp1829
g3
F-0.025515547117074818
sba(iweight
Weight
p1830
(dp1831
g3
F-0.0020489172822316564
sba(iweight
Weight
p1832
(dp1833
g3
F0.016715803956101
sba(iweight
Weight
p1834
(dp1835
g3
F0.03389189420013606
sba(iweight
Weight
p1836
(dp1837
g3
F0.03239091429377612
sba(iweight
Weight
p1838
(dp1839
g3
F-0.012339060747403043
sba(iweight
Weight
p1840
(dp1841
g3
F0.023651273990348786
sba(iweight
Weight
p1842
(dp1843
g3
F0.033870509485166594
sba(iweight
Weight
p1844
(dp1845
g3
F0.0339958471301782
sba(iweight
Weight
p1846
(dp1847
g3
F0.012490788479217
sba(iweight
Weight
p1848
(dp1849
g3
F0.013531832652777766
sba(iweight
Weight
p1850
(dp1851
g3
F-0.0056461154015463285
sba(iweight
Weight
p1852
(dp1853
g3
F0.02720296539750528
sba(iweight
Weight
p1854
(dp1855
g3
F-0.0007159905899387569
sba(iweight
Weight
p1856
(dp1857
g3
F-0.026386650168050856
sba(iweight
Weight
p1858
(dp1859
g3
F-0.04197881634419506
sba(iweight
Weight
p1860
(dp1861
g3
F-0.029764870866816527
sba(iweight
Weight
p1862
(dp1863
g3
F-0.03158227555625834
sba(iweight
Weight
p1864
(dp1865
g3
F-0.03595030985259321
sba(iweight
Weight
p1866
(dp1867
g3
F-0.0184285319335061
sba(iweight
Weight
p1868
(dp1869
g3
F-0.03495078720140496
sba(iweight
Weight
p1870
(dp1871
g3
F-0.04915986640214957
sba(iweight
Weight
p1872
(dp1873
g3
F-0.001140248020565558
sba(iweight
Weight
p1874
(dp1875
g3
F0.017014535724673638
sba(iweight
Weight
p1876
(dp1877
g3
F-0.031219838700539234
sba(iweight
Weight
p1878
(dp1879
g3
F-0.03016971133240442
sba(iweight
Weight
p1880
(dp1881
g3
F-0.0006067001813481953
sba(iweight
Weight
p1882
(dp1883
g3
F0.04720448015967274
sba(iweight
Weight
p1884
(dp1885
g3
F0.027959356235290552
sba(iweight
Weight
p1886
(dp1887
g3
F-0.008893928095695126
sba(iweight
Weight
p1888
(dp1889
g3
F-0.01414807937726315
sba(iweight
Weight
p1890
(dp1891
g3
F0.03421256140350799
sba(iweight
Weight
p1892
(dp1893
g3
F0.04685638372170249
sba(iweight
Weight
p1894
(dp1895
g3
F-0.04633205054625309
sba(iweight
Weight
p1896
(dp1897
g3
F-0.018288910450492798
sba(iweight
Weight
p1898
(dp1899
g3
F0.04216388469567396
sba(iweight
Weight
p1900
(dp1901
g3
F-0.007181563671085584
sba(iweight
Weight
p1902
(dp1903
g3
F-0.011859953095412035
sba(iweight
Weight
p1904
(dp1905
g3
F-0.016172835722661944
sba(iweight
Weight
p1906
(dp1907
g3
F0.037651541007611755
sba(iweight
Weight
p1908
(dp1909
g3
F-0.0301409804927594
sba(iweight
Weight
p1910
(dp1911
g3
F-0.03154704800865026
sba(iweight
Weight
p1912
(dp1913
g3
F0.029164354162573927
sba(iweight
Weight
p1914
(dp1915
g3
F-0.038168418798800216
sba(iweight
Weight
p1916
(dp1917
g3
F0.026245774463726796
sba(iweight
Weight
p1918
(dp1919
g3
F-0.024415442386603627
sba(iweight
Weight
p1920
(dp1921
g3
F-0.025259627982203745
sba(iweight
Weight
p1922
(dp1923
g3
F-0.009367418383690318
sba(iweight
Weight
p1924
(dp1925
g3
F0.048086648780902456
sba(iweight
Weight
p1926
(dp1927
g3
F0.004979114173433702
sba(iweight
Weight
p1928
(dp1929
g3
F0.015918796692937037
sba(iweight
Weight
p1930
(dp1931
g3
F-0.028454719266754597
sba(iweight
Weight
p1932
(dp1933
g3
F0.004146132532153372
sba(iweight
Weight
p1934
(dp1935
g3
F-0.038080782237203355
sba(iweight
Weight
p1936
(dp1937
g3
F0.01358680701388464
sba(iweight
Weight
p1938
(dp1939
g3
F-0.04199535037168271
sba(iweight
Weight
p1940
(dp1941
g3
F-0.0412396169863667
sba(iweight
Weight
p1942
(dp1943
g3
F0.027591663870982712
sba(iweight
Weight
p1944
(dp1945
g3
F0.028755046388806278
sba(iweight
Weight
p1946
(dp1947
g3
F-0.004222506285305138
sba(iweight
Weight
p1948
(dp1949
g3
F-0.006606716270414595
sba(iweight
Weight
p1950
(dp1951
g3
F0.022745088328609546
sba(iweight
Weight
p1952
(dp1953
g3
F-0.00178619116200294
sba(iweight
Weight
p1954
(dp1955
g3
F-0.0036843640230904812
sba(iweight
Weight
p1956
(dp1957
g3
F0.006076192718892636
sba(iweight
Weight
p1958
(dp1959
g3
F-0.042053295022345345
sba(iweight
Weight
p1960
(dp1961
g3
F-0.046694568060733306
sba(iweight
Weight
p1962
(dp1963
g3
F0.007456076009654325
sba(iweight
Weight
p1964
(dp1965
g3
F-0.02026724864804499
sba(iweight
Weight
p1966
(dp1967
g3
F0.022684154361783827
sba(iweight
Weight
p1968
(dp1969
g3
F0.004958989287238283
sba(iweight
Weight
p1970
(dp1971
g3
F0.040453353425751994
sba(iweight
Weight
p1972
(dp1973
g3
F0.01872594075760553
sba(iweight
Weight
p1974
(dp1975
g3
F0.03854075794733836
sba(iweight
Weight
p1976
(dp1977
g3
F0.013261608983802898
sba(iweight
Weight
p1978
(dp1979
g3
F0.03932468349892226
sba(iweight
Weight
p1980
(dp1981
g3
F-0.016336598155549845
sba(iweight
Weight
p1982
(dp1983
g3
F-0.024942457776754696
sba(iweight
Weight
p1984
(dp1985
g3
F0.007531079368798027
sba(iweight
Weight
p1986
(dp1987
g3
F-0.019983361143493538
sba(iweight
Weight
p1988
(dp1989
g3
F0.04335342469327109
sba(iweight
Weight
p1990
(dp1991
g3
F0.04280759031248204
sba(iweight
Weight
p1992
(dp1993
g3
F-0.006297319679083783
sba(iweight
Weight
p1994
(dp1995
g3
F-0.030069098644122293
sba(iweight
Weight
p1996
(dp1997
g3
F0.010496091279364057
sba(iweight
Weight
p1998
(dp1999
g3
F0.03247415538800458
sba(iweight
Weight
p2000
(dp2001
g3
F0.012796548880840261
sba(iweight
Weight
p2002
(dp2003
g3
F0.029475326981997597
sba(iweight
Weight
p2004
(dp2005
g3
F0.015470998045715554
sba(iweight
Weight
p2006
(dp2007
g3
F-0.03879513678135859
sba(iweight
Weight
p2008
(dp2009
g3
F-0.030772859542521343
sba(iweight
Weight
p2010
(dp2011
g3
F-0.048666651624826474
sba(iweight
Weight
p2012
(dp2013
g3
F-0.016547143572776098
sba(iweight
Weight
p2014
(dp2015
g3
F-0.05382307628416383
sba(iweight
Weight
p2016
(dp2017
g3
F0.023953067297185396
sba(iweight
Weight
p2018
(dp2019
g3
F0.04096772012104709
sba(iweight
Weight
p2020
(dp2021
g3
F0.0350212727019563
sba.