(lp0
(innWeight
NNWeight
p1
(dp2
S'val'
p3
F-0.05328137856261423
sba(innWeight
NNWeight
p4
(dp5
g3
F-0.012742157752125033
sba(innWeight
NNWeight
p6
(dp7
g3
F-0.02612303096006362
sba(innWeight
NNWeight
p8
(dp9
g3
F0.014859901442811472
sba(innWeight
NNWeight
p10
(dp11
g3
F0.033024274008602215
sba(innWeight
NNWeight
p12
(dp13
g3
F0.01898589232488931
sba(innWeight
NNWeight
p14
(dp15
g3
F0.016055030572638938
sba(innWeight
NNWeight
p16
(dp17
g3
F-0.02585239624612859
sba(innWeight
NNWeight
p18
(dp19
g3
F-0.007559484944532815
sba(innWeight
NNWeight
p20
(dp21
g3
F-0.004075104042954175
sba(innWeight
NNWeight
p22
(dp23
g3
F-0.010555377952858195
sba(innWeight
NNWeight
p24
(dp25
g3
F0.019124056334871083
sba(innWeight
NNWeight
p26
(dp27
g3
F0.03423438728140992
sba(innWeight
NNWeight
p28
(dp29
g3
F-0.04981899369440623
sba(innWeight
NNWeight
p30
(dp31
g3
F-0.00561880691813022
sba(innWeight
NNWeight
p32
(dp33
g3
F-0.04617375158819172
sba(innWeight
NNWeight
p34
(dp35
g3
F-0.020975065054229778
sba(innWeight
NNWeight
p36
(dp37
g3
F0.006763038346442723
sba(innWeight
NNWeight
p38
(dp39
g3
F-0.021654627976212062
sba(innWeight
NNWeight
p40
(dp41
g3
F-0.03690258120659804
sba(innWeight
NNWeight
p42
(dp43
g3
F0.013109563097272823
sba(innWeight
NNWeight
p44
(dp45
g3
F0.027411392754269456
sba(innWeight
NNWeight
p46
(dp47
g3
F-0.02836018673715406
sba(innWeight
NNWeight
p48
(dp49
g3
F0.014791281851554166
sba(innWeight
NNWeight
p50
(dp51
g3
F0.004680449143092058
sba(innWeight
NNWeight
p52
(dp53
g3
F-0.03165993265014942
sba(innWeight
NNWeight
p54
(dp55
g3
F0.022389663844396883
sba(innWeight
NNWeight
p56
(dp57
g3
F0.018824477436301564
sba(innWeight
NNWeight
p58
(dp59
g3
F0.034633633759742065
sba(innWeight
NNWeight
p60
(dp61
g3
F0.02352931407601779
sba(innWeight
NNWeight
p62
(dp63
g3
F-0.03065158950759778
sba(innWeight
NNWeight
p64
(dp65
g3
F-0.019372617883980134
sba(innWeight
NNWeight
p66
(dp67
g3
F-0.00443728524712608
sba(innWeight
NNWeight
p68
(dp69
g3
F-0.023882387449139352
sba(innWeight
NNWeight
p70
(dp71
g3
F-0.01722322831565726
sba(innWeight
NNWeight
p72
(dp73
g3
F0.002045997807558872
sba(innWeight
NNWeight
p74
(dp75
g3
F-0.03385592558867342
sba(innWeight
NNWeight
p76
(dp77
g3
F0.005322058880642372
sba(innWeight
NNWeight
p78
(dp79
g3
F-0.008156378001469235
sba(innWeight
NNWeight
p80
(dp81
g3
F0.04933939656177626
sba(innWeight
NNWeight
p82
(dp83
g3
F-0.010174893156570044
sba(innWeight
NNWeight
p84
(dp85
g3
F-0.038474521398094305
sba(innWeight
NNWeight
p86
(dp87
g3
F-0.04356284861137515
sba(innWeight
NNWeight
p88
(dp89
g3
F0.0004328783263459543
sba(innWeight
NNWeight
p90
(dp91
g3
F-0.013370226343506897
sba(innWeight
NNWeight
p92
(dp93
g3
F-0.03885340093600783
sba(innWeight
NNWeight
p94
(dp95
g3
F0.037436511162767444
sba(innWeight
NNWeight
p96
(dp97
g3
F-0.005310244708312193
sba(innWeight
NNWeight
p98
(dp99
g3
F-0.041078821704708036
sba(innWeight
NNWeight
p100
(dp101
g3
F-0.022685300864673925
sba(innWeight
NNWeight
p102
(dp103
g3
F-0.04666364218814383
sba(innWeight
NNWeight
p104
(dp105
g3
F-0.027902776804168628
sba(innWeight
NNWeight
p106
(dp107
g3
F-0.050229294327850685
sba(innWeight
NNWeight
p108
(dp109
g3
F0.024696308758414613
sba(innWeight
NNWeight
p110
(dp111
g3
F0.04258824598488522
sba(innWeight
NNWeight
p112
(dp113
g3
F0.007636191090096252
sba(innWeight
NNWeight
p114
(dp115
g3
F-0.027517231492896338
sba(innWeight
NNWeight
p116
(dp117
g3
F0.023234079005483993
sba(innWeight
NNWeight
p118
(dp119
g3
F0.043691900791899586
sba(innWeight
NNWeight
p120
(dp121
g3
F0.0055519426814552506
sba(innWeight
NNWeight
p122
(dp123
g3
F-0.018463234692767814
sba(innWeight
NNWeight
p124
(dp125
g3
F0.04458387854398444
sba(innWeight
NNWeight
p126
(dp127
g3
F-0.01059745171190046
sba(innWeight
NNWeight
p128
(dp129
g3
F0.0439200144188262
sba(innWeight
NNWeight
p130
(dp131
g3
F0.03110185131953656
sba(innWeight
NNWeight
p132
(dp133
g3
F-0.022872712639103034
sba(innWeight
NNWeight
p134
(dp135
g3
F0.0286588938089781
sba(innWeight
NNWeight
p136
(dp137
g3
F0.039665187384455784
sba(innWeight
NNWeight
p138
(dp139
g3
F0.04468027935593312
sba(innWeight
NNWeight
p140
(dp141
g3
F-0.015014735363498531
sba(innWeight
NNWeight
p142
(dp143
g3
F0.00750643694154693
sba(innWeight
NNWeight
p144
(dp145
g3
F-0.01755291600955906
sba(innWeight
NNWeight
p146
(dp147
g3
F-0.010997210252791993
sba(innWeight
NNWeight
p148
(dp149
g3
F-0.05051511449818757
sba(innWeight
NNWeight
p150
(dp151
g3
F-0.03070938300448898
sba(innWeight
NNWeight
p152
(dp153
g3
F0.03834902437224884
sba(innWeight
NNWeight
p154
(dp155
g3
F-0.031189252699305076
sba(innWeight
NNWeight
p156
(dp157
g3
F-0.03792745024693805
sba(innWeight
NNWeight
p158
(dp159
g3
F0.007005718576735163
sba(innWeight
NNWeight
p160
(dp161
g3
F0.04552108548202288
sba(innWeight
NNWeight
p162
(dp163
g3
F0.05217470553547225
sba(innWeight
NNWeight
p164
(dp165
g3
F-0.02756085117643049
sba(innWeight
NNWeight
p166
(dp167
g3
F-0.0006173054772384953
sba(innWeight
NNWeight
p168
(dp169
g3
F-0.03560356480889435
sba(innWeight
NNWeight
p170
(dp171
g3
F-0.03796596187025729
sba(innWeight
NNWeight
p172
(dp173
g3
F-0.0009343287500594709
sba(innWeight
NNWeight
p174
(dp175
g3
F-0.047915896182323295
sba(innWeight
NNWeight
p176
(dp177
g3
F-0.030489938332064686
sba(innWeight
NNWeight
p178
(dp179
g3
F-0.006441496041529188
sba(innWeight
NNWeight
p180
(dp181
g3
F0.022500716425950886
sba(innWeight
NNWeight
p182
(dp183
g3
F-0.03943839392125919
sba(innWeight
NNWeight
p184
(dp185
g3
F-0.008413735778731037
sba(innWeight
NNWeight
p186
(dp187
g3
F0.038933833037464345
sba(innWeight
NNWeight
p188
(dp189
g3
F0.03307432845781577
sba(innWeight
NNWeight
p190
(dp191
g3
F0.0002653518777781089
sba(innWeight
NNWeight
p192
(dp193
g3
F0.044269684706571
sba(innWeight
NNWeight
p194
(dp195
g3
F0.030917715058718393
sba(innWeight
NNWeight
p196
(dp197
g3
F-0.020825885665531407
sba(innWeight
NNWeight
p198
(dp199
g3
F-0.04457617825270774
sba(innWeight
NNWeight
p200
(dp201
g3
F-0.03737179820746949
sba(innWeight
NNWeight
p202
(dp203
g3
F-0.03140851069397523
sba(innWeight
NNWeight
p204
(dp205
g3
F-0.03703378994232757
sba(innWeight
NNWeight
p206
(dp207
g3
F-0.04556209813224419
sba(innWeight
NNWeight
p208
(dp209
g3
F-0.04503639122941788
sba(innWeight
NNWeight
p210
(dp211
g3
F0.01726129266920333
sba(innWeight
NNWeight
p212
(dp213
g3
F0.014562455319480189
sba(innWeight
NNWeight
p214
(dp215
g3
F-0.00030792366715961617
sba(innWeight
NNWeight
p216
(dp217
g3
F-0.011963190333122632
sba(innWeight
NNWeight
p218
(dp219
g3
F0.03580788439942778
sba(innWeight
NNWeight
p220
(dp221
g3
F-0.0007029416161752197
sba(innWeight
NNWeight
p222
(dp223
g3
F0.04864047222220529
sba(innWeight
NNWeight
p224
(dp225
g3
F0.03100145123799117
sba(innWeight
NNWeight
p226
(dp227
g3
F0.00961531227746871
sba(innWeight
NNWeight
p228
(dp229
g3
F-0.04059335130705225
sba(innWeight
NNWeight
p230
(dp231
g3
F0.04136299747189709
sba(innWeight
NNWeight
p232
(dp233
g3
F0.019927561905511048
sba(innWeight
NNWeight
p234
(dp235
g3
F0.04664951818362131
sba(innWeight
NNWeight
p236
(dp237
g3
F0.0147862240729956
sba(innWeight
NNWeight
p238
(dp239
g3
F-0.03572199608869985
sba(innWeight
NNWeight
p240
(dp241
g3
F-0.0189179571132356
sba(innWeight
NNWeight
p242
(dp243
g3
F0.012842084702151353
sba(innWeight
NNWeight
p244
(dp245
g3
F0.011868168588523294
sba(innWeight
NNWeight
p246
(dp247
g3
F-0.036479276387902014
sba(innWeight
NNWeight
p248
(dp249
g3
F-0.04233382768958179
sba(innWeight
NNWeight
p250
(dp251
g3
F-0.03334702370314019
sba(innWeight
NNWeight
p252
(dp253
g3
F-0.048167389012840976
sba(innWeight
NNWeight
p254
(dp255
g3
F0.04886682161997724
sba(innWeight
NNWeight
p256
(dp257
g3
F-0.04512114758763288
sba(innWeight
NNWeight
p258
(dp259
g3
F0.001112294932895937
sba(innWeight
NNWeight
p260
(dp261
g3
F-0.014987352729829154
sba(innWeight
NNWeight
p262
(dp263
g3
F0.01756201298438324
sba(innWeight
NNWeight
p264
(dp265
g3
F0.04226422653203414
sba(innWeight
NNWeight
p266
(dp267
g3
F-0.02918020392815191
sba(innWeight
NNWeight
p268
(dp269
g3
F0.011041577741768921
sba(innWeight
NNWeight
p270
(dp271
g3
F0.030971194488200602
sba(innWeight
NNWeight
p272
(dp273
g3
F0.021711200402198764
sba(innWeight
NNWeight
p274
(dp275
g3
F-0.04981348997381501
sba(innWeight
NNWeight
p276
(dp277
g3
F0.026179153241148657
sba(innWeight
NNWeight
p278
(dp279
g3
F0.042440777534149515
sba(innWeight
NNWeight
p280
(dp281
g3
F0.02910069359402563
sba(innWeight
NNWeight
p282
(dp283
g3
F-0.015985435643880833
sba(innWeight
NNWeight
p284
(dp285
g3
F0.04042425296008528
sba(innWeight
NNWeight
p286
(dp287
g3
F0.019208450882331553
sba(innWeight
NNWeight
p288
(dp289
g3
F0.04161928945029048
sba(innWeight
NNWeight
p290
(dp291
g3
F-0.011016814446784883
sba(innWeight
NNWeight
p292
(dp293
g3
F-0.01747246625287794
sba(innWeight
NNWeight
p294
(dp295
g3
F-0.04510850184470834
sba(innWeight
NNWeight
p296
(dp297
g3
F0.012384945925831746
sba(innWeight
NNWeight
p298
(dp299
g3
F-0.02852024030539833
sba(innWeight
NNWeight
p300
(dp301
g3
F0.017695343768615146
sba(innWeight
NNWeight
p302
(dp303
g3
F0.013324216760024972
sba(innWeight
NNWeight
p304
(dp305
g3
F-0.004327109573272079
sba(innWeight
NNWeight
p306
(dp307
g3
F-0.020403411992953313
sba(innWeight
NNWeight
p308
(dp309
g3
F0.01164794605597001
sba(innWeight
NNWeight
p310
(dp311
g3
F0.01992768544955624
sba(innWeight
NNWeight
p312
(dp313
g3
F-0.05045992627215665
sba(innWeight
NNWeight
p314
(dp315
g3
F0.030030337311163183
sba(innWeight
NNWeight
p316
(dp317
g3
F-0.01495092323091371
sba(innWeight
NNWeight
p318
(dp319
g3
F0.024758431556210308
sba(innWeight
NNWeight
p320
(dp321
g3
F-0.04573990504110123
sba(innWeight
NNWeight
p322
(dp323
g3
F0.0035817434367492375
sba(innWeight
NNWeight
p324
(dp325
g3
F0.0005449264397938712
sba(innWeight
NNWeight
p326
(dp327
g3
F0.030075122101735935
sba(innWeight
NNWeight
p328
(dp329
g3
F-0.030965840105332276
sba(innWeight
NNWeight
p330
(dp331
g3
F-0.03627749120003237
sba(innWeight
NNWeight
p332
(dp333
g3
F-0.047433013628889874
sba(innWeight
NNWeight
p334
(dp335
g3
F-0.0073152161794757635
sba(innWeight
NNWeight
p336
(dp337
g3
F0.045618758986173936
sba(innWeight
NNWeight
p338
(dp339
g3
F-0.028316250385969063
sba(innWeight
NNWeight
p340
(dp341
g3
F-0.0011556430267010086
sba(innWeight
NNWeight
p342
(dp343
g3
F-0.04120421533608102
sba(innWeight
NNWeight
p344
(dp345
g3
F-0.026323313645042732
sba(innWeight
NNWeight
p346
(dp347
g3
F-0.05356934003738253
sba(innWeight
NNWeight
p348
(dp349
g3
F0.029097635400634512
sba(innWeight
NNWeight
p350
(dp351
g3
F-0.03604203307988939
sba(innWeight
NNWeight
p352
(dp353
g3
F0.03596365820749248
sba(innWeight
NNWeight
p354
(dp355
g3
F-0.011813477748876228
sba(innWeight
NNWeight
p356
(dp357
g3
F-0.001991179238904558
sba(innWeight
NNWeight
p358
(dp359
g3
F0.008902950602791511
sba(innWeight
NNWeight
p360
(dp361
g3
F0.02606868515538272
sba(innWeight
NNWeight
p362
(dp363
g3
F0.02890199401412473
sba(innWeight
NNWeight
p364
(dp365
g3
F-0.04076073103299188
sba(innWeight
NNWeight
p366
(dp367
g3
F-0.04393937854226133
sba(innWeight
NNWeight
p368
(dp369
g3
F0.010124585784223265
sba(innWeight
NNWeight
p370
(dp371
g3
F0.04328130527842169
sba(innWeight
NNWeight
p372
(dp373
g3
F-0.04208445791473672
sba(innWeight
NNWeight
p374
(dp375
g3
F-0.01702081653042828
sba(innWeight
NNWeight
p376
(dp377
g3
F0.02548437835052351
sba(innWeight
NNWeight
p378
(dp379
g3
F0.03391358402103126
sba(innWeight
NNWeight
p380
(dp381
g3
F0.02006012507437458
sba(innWeight
NNWeight
p382
(dp383
g3
F0.031506078760882086
sba(innWeight
NNWeight
p384
(dp385
g3
F-0.04968492681709515
sba(innWeight
NNWeight
p386
(dp387
g3
F-0.0061949909313746615
sba(innWeight
NNWeight
p388
(dp389
g3
F-0.047833551589982454
sba(innWeight
NNWeight
p390
(dp391
g3
F0.01391995412539665
sba(innWeight
NNWeight
p392
(dp393
g3
F0.0010259518989349156
sba(innWeight
NNWeight
p394
(dp395
g3
F-0.017614226672029536
sba(innWeight
NNWeight
p396
(dp397
g3
F0.025901685647006015
sba(innWeight
NNWeight
p398
(dp399
g3
F0.030728871831588248
sba(innWeight
NNWeight
p400
(dp401
g3
F0.013119983139500562
sba(innWeight
NNWeight
p402
(dp403
g3
F-0.0055836911289274945
sba(innWeight
NNWeight
p404
(dp405
g3
F-0.04028667968808486
sba(innWeight
NNWeight
p406
(dp407
g3
F-0.05141844084475448
sba(innWeight
NNWeight
p408
(dp409
g3
F-0.0013827984197267644
sba(innWeight
NNWeight
p410
(dp411
g3
F0.019898164260523824
sba(innWeight
NNWeight
p412
(dp413
g3
F0.0028039855903914915
sba(innWeight
NNWeight
p414
(dp415
g3
F-0.006501699613371099
sba(innWeight
NNWeight
p416
(dp417
g3
F0.032824976691840535
sba(innWeight
NNWeight
p418
(dp419
g3
F-0.04817719902456777
sba(innWeight
NNWeight
p420
(dp421
g3
F-0.04611593143000732
sba(innWeight
NNWeight
p422
(dp423
g3
F0.04228244177841845
sba(innWeight
NNWeight
p424
(dp425
g3
F0.023679608531261755
sba(innWeight
NNWeight
p426
(dp427
g3
F-0.04279876220038034
sba(innWeight
NNWeight
p428
(dp429
g3
F-0.031111153441302344
sba(innWeight
NNWeight
p430
(dp431
g3
F0.016057748537885507
sba(innWeight
NNWeight
p432
(dp433
g3
F-0.03531294749780549
sba(innWeight
NNWeight
p434
(dp435
g3
F-0.011865843427653107
sba(innWeight
NNWeight
p436
(dp437
g3
F-0.041649530088041245
sba(innWeight
NNWeight
p438
(dp439
g3
F0.0017713163565244022
sba(innWeight
NNWeight
p440
(dp441
g3
F-0.0057978727526706185
sba(innWeight
NNWeight
p442
(dp443
g3
F-0.03908049481920889
sba(innWeight
NNWeight
p444
(dp445
g3
F-0.03191036977700485
sba(innWeight
NNWeight
p446
(dp447
g3
F0.014125900667265103
sba(innWeight
NNWeight
p448
(dp449
g3
F0.0184146152069848
sba(innWeight
NNWeight
p450
(dp451
g3
F0.027080559583947447
sba(innWeight
NNWeight
p452
(dp453
g3
F-0.012663678438320393
sba(innWeight
NNWeight
p454
(dp455
g3
F0.01687621075049644
sba(innWeight
NNWeight
p456
(dp457
g3
F-0.015799216269172002
sba(innWeight
NNWeight
p458
(dp459
g3
F-0.04113326224503276
sba(innWeight
NNWeight
p460
(dp461
g3
F0.014572938177923905
sba(innWeight
NNWeight
p462
(dp463
g3
F-0.01947458902196579
sba(innWeight
NNWeight
p464
(dp465
g3
F0.025903899318234645
sba(innWeight
NNWeight
p466
(dp467
g3
F0.03767511827695525
sba(innWeight
NNWeight
p468
(dp469
g3
F0.021644429920604894
sba(innWeight
NNWeight
p470
(dp471
g3
F0.024070954604831933
sba(innWeight
NNWeight
p472
(dp473
g3
F-0.02901365985956309
sba(innWeight
NNWeight
p474
(dp475
g3
F-0.012324906760789138
sba(innWeight
NNWeight
p476
(dp477
g3
F0.00033156833285435006
sba(innWeight
NNWeight
p478
(dp479
g3
F0.01944552069786061
sba(innWeight
NNWeight
p480
(dp481
g3
F-0.05045063905446421
sba(innWeight
NNWeight
p482
(dp483
g3
F0.00478931528711074
sba(innWeight
NNWeight
p484
(dp485
g3
F0.02735127554359074
sba(innWeight
NNWeight
p486
(dp487
g3
F-0.007502661810613757
sba(innWeight
NNWeight
p488
(dp489
g3
F0.03858803861813978
sba(innWeight
NNWeight
p490
(dp491
g3
F0.032694913729502034
sba(innWeight
NNWeight
p492
(dp493
g3
F0.036964667397722126
sba(innWeight
NNWeight
p494
(dp495
g3
F-0.034256863880723964
sba(innWeight
NNWeight
p496
(dp497
g3
F0.03586279949100694
sba(innWeight
NNWeight
p498
(dp499
g3
F-0.010884028057753781
sba(innWeight
NNWeight
p500
(dp501
g3
F0.03315763915121637
sba(innWeight
NNWeight
p502
(dp503
g3
F0.02040224754114255
sba(innWeight
NNWeight
p504
(dp505
g3
F0.011394783044064221
sba(innWeight
NNWeight
p506
(dp507
g3
F-0.01341263205191093
sba(innWeight
NNWeight
p508
(dp509
g3
F-0.007021503227399504
sba(innWeight
NNWeight
p510
(dp511
g3
F0.04027261797478704
sba(innWeight
NNWeight
p512
(dp513
g3
F-0.0400882420759327
sba(innWeight
NNWeight
p514
(dp515
g3
F-0.005790797656010112
sba(innWeight
NNWeight
p516
(dp517
g3
F-0.006200735532865915
sba(innWeight
NNWeight
p518
(dp519
g3
F-0.012117779014668558
sba(innWeight
NNWeight
p520
(dp521
g3
F0.02559774343559429
sba(innWeight
NNWeight
p522
(dp523
g3
F0.006900016419701183
sba(innWeight
NNWeight
p524
(dp525
g3
F-0.03480665704815826
sba(innWeight
NNWeight
p526
(dp527
g3
F0.040323229392399976
sba(innWeight
NNWeight
p528
(dp529
g3
F0.005677466342159923
sba(innWeight
NNWeight
p530
(dp531
g3
F0.03920269076469397
sba(innWeight
NNWeight
p532
(dp533
g3
F0.033205868289091785
sba(innWeight
NNWeight
p534
(dp535
g3
F0.023921523223862085
sba(innWeight
NNWeight
p536
(dp537
g3
F0.030096036351704516
sba(innWeight
NNWeight
p538
(dp539
g3
F-0.017271469265470445
sba(innWeight
NNWeight
p540
(dp541
g3
F-0.04825751599336617
sba(innWeight
NNWeight
p542
(dp543
g3
F-0.045612223555071205
sba(innWeight
NNWeight
p544
(dp545
g3
F-0.016483652919102396
sba(innWeight
NNWeight
p546
(dp547
g3
F0.010813775150247893
sba(innWeight
NNWeight
p548
(dp549
g3
F-0.01703143529217529
sba(innWeight
NNWeight
p550
(dp551
g3
F0.046153432450950264
sba(innWeight
NNWeight
p552
(dp553
g3
F0.016448639136651035
sba(innWeight
NNWeight
p554
(dp555
g3
F-0.03402691170480886
sba(innWeight
NNWeight
p556
(dp557
g3
F0.020751598670047597
sba(innWeight
NNWeight
p558
(dp559
g3
F0.03362208333608946
sba(innWeight
NNWeight
p560
(dp561
g3
F0.0010499824428063147
sba(innWeight
NNWeight
p562
(dp563
g3
F-0.023399221516175846
sba(innWeight
NNWeight
p564
(dp565
g3
F0.04659509596297322
sba(innWeight
NNWeight
p566
(dp567
g3
F-0.03891580035483552
sba(innWeight
NNWeight
p568
(dp569
g3
F-0.043736341703515355
sba(innWeight
NNWeight
p570
(dp571
g3
F-0.0013619993912377154
sba(innWeight
NNWeight
p572
(dp573
g3
F-0.030609496545842923
sba(innWeight
NNWeight
p574
(dp575
g3
F0.005895303501916279
sba(innWeight
NNWeight
p576
(dp577
g3
F-0.03613501962869072
sba(innWeight
NNWeight
p578
(dp579
g3
F-0.03878678590583007
sba(innWeight
NNWeight
p580
(dp581
g3
F0.026922911206680722
sba(innWeight
NNWeight
p582
(dp583
g3
F-0.007650530668112567
sba(innWeight
NNWeight
p584
(dp585
g3
F-0.010411700944546996
sba(innWeight
NNWeight
p586
(dp587
g3
F-0.046868273419583814
sba(innWeight
NNWeight
p588
(dp589
g3
F-0.02666834174031249
sba(innWeight
NNWeight
p590
(dp591
g3
F0.0003599695984592227
sba(innWeight
NNWeight
p592
(dp593
g3
F-0.029928618590649547
sba(innWeight
NNWeight
p594
(dp595
g3
F0.016844873191976154
sba(innWeight
NNWeight
p596
(dp597
g3
F-0.03638356856606853
sba(innWeight
NNWeight
p598
(dp599
g3
F0.031661448956764725
sba(innWeight
NNWeight
p600
(dp601
g3
F-0.0462935530046661
sba(innWeight
NNWeight
p602
(dp603
g3
F-0.04238932151672638
sba(innWeight
NNWeight
p604
(dp605
g3
F-0.025791031733439388
sba(innWeight
NNWeight
p606
(dp607
g3
F0.03240417180816941
sba(innWeight
NNWeight
p608
(dp609
g3
F0.0440441678272208
sba(innWeight
NNWeight
p610
(dp611
g3
F-0.0037765812114847813
sba(innWeight
NNWeight
p612
(dp613
g3
F-0.004114339329823089
sba(innWeight
NNWeight
p614
(dp615
g3
F-0.035868214592782284
sba(innWeight
NNWeight
p616
(dp617
g3
F0.019566303809843744
sba(innWeight
NNWeight
p618
(dp619
g3
F0.031059148746334687
sba(innWeight
NNWeight
p620
(dp621
g3
F-0.032614826451779586
sba(innWeight
NNWeight
p622
(dp623
g3
F0.046504914933779076
sba(innWeight
NNWeight
p624
(dp625
g3
F0.003333422573474351
sba(innWeight
NNWeight
p626
(dp627
g3
F-0.02368918584917517
sba(innWeight
NNWeight
p628
(dp629
g3
F2.641627604426568e-05
sba(innWeight
NNWeight
p630
(dp631
g3
F-0.03665370958413698
sba(innWeight
NNWeight
p632
(dp633
g3
F-0.04189125196861559
sba(innWeight
NNWeight
p634
(dp635
g3
F0.005869969383079204
sba(innWeight
NNWeight
p636
(dp637
g3
F-0.027010315645749784
sba(innWeight
NNWeight
p638
(dp639
g3
F0.03902642037331066
sba(innWeight
NNWeight
p640
(dp641
g3
F-0.0350724000129742
sba(innWeight
NNWeight
p642
(dp643
g3
F0.039483877750423446
sba(innWeight
NNWeight
p644
(dp645
g3
F0.02875724143709395
sba(innWeight
NNWeight
p646
(dp647
g3
F-0.03424145331924931
sba(innWeight
NNWeight
p648
(dp649
g3
F0.00804347972530067
sba(innWeight
NNWeight
p650
(dp651
g3
F0.010088210218547547
sba(innWeight
NNWeight
p652
(dp653
g3
F-0.012923215469886383
sba(innWeight
NNWeight
p654
(dp655
g3
F-0.030551952434032102
sba(innWeight
NNWeight
p656
(dp657
g3
F0.029312474529109442
sba(innWeight
NNWeight
p658
(dp659
g3
F0.04520775601229527
sba(innWeight
NNWeight
p660
(dp661
g3
F-0.045088744761137445
sba(innWeight
NNWeight
p662
(dp663
g3
F-0.022744589045686922
sba(innWeight
NNWeight
p664
(dp665
g3
F-0.029799603353738758
sba(innWeight
NNWeight
p666
(dp667
g3
F0.048406042513174395
sba(innWeight
NNWeight
p668
(dp669
g3
F0.017932771028338894
sba(innWeight
NNWeight
p670
(dp671
g3
F-0.042577552680783115
sba(innWeight
NNWeight
p672
(dp673
g3
F0.024211275335917673
sba(innWeight
NNWeight
p674
(dp675
g3
F0.003136016390642017
sba(innWeight
NNWeight
p676
(dp677
g3
F-0.029084033825032364
sba(innWeight
NNWeight
p678
(dp679
g3
F-0.026102806540676968
sba(innWeight
NNWeight
p680
(dp681
g3
F-0.03534896550258207
sba(innWeight
NNWeight
p682
(dp683
g3
F-0.008859586477166479
sba(innWeight
NNWeight
p684
(dp685
g3
F-0.005776113039799456
sba(innWeight
NNWeight
p686
(dp687
g3
F0.028298151881218852
sba(innWeight
NNWeight
p688
(dp689
g3
F-0.02041138567816352
sba(innWeight
NNWeight
p690
(dp691
g3
F-0.011951435666670417
sba(innWeight
NNWeight
p692
(dp693
g3
F0.004530831327704642
sba(innWeight
NNWeight
p694
(dp695
g3
F0.0018165879903334885
sba(innWeight
NNWeight
p696
(dp697
g3
F0.05113393636859414
sba(innWeight
NNWeight
p698
(dp699
g3
F0.01642871414310645
sba(innWeight
NNWeight
p700
(dp701
g3
F0.014827860717660788
sba(innWeight
NNWeight
p702
(dp703
g3
F-0.0046931866471252495
sba(innWeight
NNWeight
p704
(dp705
g3
F-0.010178291080785426
sba(innWeight
NNWeight
p706
(dp707
g3
F0.008376222067191394
sba(innWeight
NNWeight
p708
(dp709
g3
F-0.009661110680821724
sba(innWeight
NNWeight
p710
(dp711
g3
F-0.008554497656318173
sba(innWeight
NNWeight
p712
(dp713
g3
F-0.004067553195532922
sba(innWeight
NNWeight
p714
(dp715
g3
F0.03378780618776541
sba(innWeight
NNWeight
p716
(dp717
g3
F-0.03215903812906588
sba(innWeight
NNWeight
p718
(dp719
g3
F-0.04618952704788996
sba(innWeight
NNWeight
p720
(dp721
g3
F0.03644849236971423
sba(innWeight
NNWeight
p722
(dp723
g3
F-0.02990229470709242
sba(innWeight
NNWeight
p724
(dp725
g3
F0.008733684398424108
sba(innWeight
NNWeight
p726
(dp727
g3
F-0.04431717217584844
sba(innWeight
NNWeight
p728
(dp729
g3
F-0.029212810374126173
sba(innWeight
NNWeight
p730
(dp731
g3
F0.007841132852220463
sba(innWeight
NNWeight
p732
(dp733
g3
F-0.04936523204150586
sba(innWeight
NNWeight
p734
(dp735
g3
F0.04125783059655425
sba(innWeight
NNWeight
p736
(dp737
g3
F0.050299845706977646
sba(innWeight
NNWeight
p738
(dp739
g3
F0.0019534357157358294
sba(innWeight
NNWeight
p740
(dp741
g3
F-0.021255655298660536
sba(innWeight
NNWeight
p742
(dp743
g3
F-0.028060670761686436
sba(innWeight
NNWeight
p744
(dp745
g3
F0.045257995607956875
sba(innWeight
NNWeight
p746
(dp747
g3
F-0.014238687807772822
sba(innWeight
NNWeight
p748
(dp749
g3
F0.04845518027569349
sba(innWeight
NNWeight
p750
(dp751
g3
F-0.04576382727277597
sba(innWeight
NNWeight
p752
(dp753
g3
F-0.03653547424574281
sba(innWeight
NNWeight
p754
(dp755
g3
F0.030293212692509414
sba(innWeight
NNWeight
p756
(dp757
g3
F-0.032278643202695044
sba(innWeight
NNWeight
p758
(dp759
g3
F-0.011596503988624447
sba(innWeight
NNWeight
p760
(dp761
g3
F-0.04468742905602073
sba(innWeight
NNWeight
p762
(dp763
g3
F-0.028667633064954262
sba(innWeight
NNWeight
p764
(dp765
g3
F-0.029672589060942403
sba(innWeight
NNWeight
p766
(dp767
g3
F0.03268157958397213
sba(innWeight
NNWeight
p768
(dp769
g3
F0.017302264580632724
sba(innWeight
NNWeight
p770
(dp771
g3
F-0.0040116967525281304
sba(innWeight
NNWeight
p772
(dp773
g3
F-0.017886976013257245
sba(innWeight
NNWeight
p774
(dp775
g3
F0.006130896556910927
sba(innWeight
NNWeight
p776
(dp777
g3
F-0.011815545508214358
sba(innWeight
NNWeight
p778
(dp779
g3
F-0.03541332432794633
sba(innWeight
NNWeight
p780
(dp781
g3
F-0.0015421611172306568
sba(innWeight
NNWeight
p782
(dp783
g3
F-0.007038887740942213
sba(innWeight
NNWeight
p784
(dp785
g3
F0.01669617204723264
sba(innWeight
NNWeight
p786
(dp787
g3
F0.03725496779876716
sba(innWeight
NNWeight
p788
(dp789
g3
F0.04463413475966635
sba(innWeight
NNWeight
p790
(dp791
g3
F-0.03728992805615541
sba(innWeight
NNWeight
p792
(dp793
g3
F-0.009653867124241985
sba(innWeight
NNWeight
p794
(dp795
g3
F-0.04110927385294394
sba(innWeight
NNWeight
p796
(dp797
g3
F-0.04683871416565787
sba(innWeight
NNWeight
p798
(dp799
g3
F0.037654407060120326
sba(innWeight
NNWeight
p800
(dp801
g3
F-0.0030079631710616134
sba(innWeight
NNWeight
p802
(dp803
g3
F0.014812110527787904
sba(innWeight
NNWeight
p804
(dp805
g3
F0.019414620761206362
sba(innWeight
NNWeight
p806
(dp807
g3
F0.037098208660486305
sba(innWeight
NNWeight
p808
(dp809
g3
F-0.007043405051738036
sba(innWeight
NNWeight
p810
(dp811
g3
F-0.023876553164744515
sba(innWeight
NNWeight
p812
(dp813
g3
F-0.002899430664239893
sba(innWeight
NNWeight
p814
(dp815
g3
F-0.04165712034603044
sba(innWeight
NNWeight
p816
(dp817
g3
F-0.03064197996050123
sba(innWeight
NNWeight
p818
(dp819
g3
F-0.041936889659070074
sba(innWeight
NNWeight
p820
(dp821
g3
F0.044339834597635186
sba(innWeight
NNWeight
p822
(dp823
g3
F-0.026389727976762964
sba(innWeight
NNWeight
p824
(dp825
g3
F0.025479496212866614
sba(innWeight
NNWeight
p826
(dp827
g3
F0.015391991514450358
sba(innWeight
NNWeight
p828
(dp829
g3
F-0.04010323502691159
sba(innWeight
NNWeight
p830
(dp831
g3
F0.01871039551410039
sba(innWeight
NNWeight
p832
(dp833
g3
F0.013893326474464056
sba(innWeight
NNWeight
p834
(dp835
g3
F-0.001958388582416386
sba(innWeight
NNWeight
p836
(dp837
g3
F0.026804000896623485
sba(innWeight
NNWeight
p838
(dp839
g3
F0.002663090985956821
sba(innWeight
NNWeight
p840
(dp841
g3
F0.032512146780311085
sba(innWeight
NNWeight
p842
(dp843
g3
F-0.03035311961211061
sba(innWeight
NNWeight
p844
(dp845
g3
F0.006883018186820076
sba(innWeight
NNWeight
p846
(dp847
g3
F-0.02867102223694197
sba(innWeight
NNWeight
p848
(dp849
g3
F-0.026627891225425877
sba(innWeight
NNWeight
p850
(dp851
g3
F8.442774808565375e-05
sba(innWeight
NNWeight
p852
(dp853
g3
F-0.007440304068785965
sba(innWeight
NNWeight
p854
(dp855
g3
F0.020191277252903903
sba(innWeight
NNWeight
p856
(dp857
g3
F-0.005611773574054596
sba(innWeight
NNWeight
p858
(dp859
g3
F-0.044059438729605084
sba(innWeight
NNWeight
p860
(dp861
g3
F0.03829286876440575
sba(innWeight
NNWeight
p862
(dp863
g3
F-0.004374435111432959
sba(innWeight
NNWeight
p864
(dp865
g3
F0.011523585237603492
sba(innWeight
NNWeight
p866
(dp867
g3
F0.01098207969399512
sba(innWeight
NNWeight
p868
(dp869
g3
F-0.04773516742246133
sba(innWeight
NNWeight
p870
(dp871
g3
F0.04821216904138525
sba(innWeight
NNWeight
p872
(dp873
g3
F-0.05044791889046917
sba(innWeight
NNWeight
p874
(dp875
g3
F0.04068112055028106
sba(innWeight
NNWeight
p876
(dp877
g3
F0.041282522900993275
sba(innWeight
NNWeight
p878
(dp879
g3
F0.002796846392975923
sba(innWeight
NNWeight
p880
(dp881
g3
F0.011037030548056593
sba(innWeight
NNWeight
p882
(dp883
g3
F-0.014679139585503213
sba(innWeight
NNWeight
p884
(dp885
g3
F0.04112569106550495
sba(innWeight
NNWeight
p886
(dp887
g3
F-0.032176519566505746
sba(innWeight
NNWeight
p888
(dp889
g3
F-0.011196051116276053
sba(innWeight
NNWeight
p890
(dp891
g3
F-0.008464275040450256
sba(innWeight
NNWeight
p892
(dp893
g3
F-0.024428549277437962
sba(innWeight
NNWeight
p894
(dp895
g3
F-0.031684255218158264
sba(innWeight
NNWeight
p896
(dp897
g3
F-0.02680321062028584
sba(innWeight
NNWeight
p898
(dp899
g3
F0.025939066280651357
sba(innWeight
NNWeight
p900
(dp901
g3
F0.035002232182902646
sba(innWeight
NNWeight
p902
(dp903
g3
F0.015666671867556183
sba(innWeight
NNWeight
p904
(dp905
g3
F-0.040234566811462175
sba(innWeight
NNWeight
p906
(dp907
g3
F-0.0358339034432677
sba(innWeight
NNWeight
p908
(dp909
g3
F-0.00021929226958442407
sba(innWeight
NNWeight
p910
(dp911
g3
F-0.02769576185017435
sba(innWeight
NNWeight
p912
(dp913
g3
F0.02051890110121848
sba(innWeight
NNWeight
p914
(dp915
g3
F-0.027694724623973262
sba(innWeight
NNWeight
p916
(dp917
g3
F-0.016796571484861595
sba(innWeight
NNWeight
p918
(dp919
g3
F0.04294061459308047
sba(innWeight
NNWeight
p920
(dp921
g3
F0.035392748198362654
sba(innWeight
NNWeight
p922
(dp923
g3
F-0.021841334192428136
sba(innWeight
NNWeight
p924
(dp925
g3
F0.02117173680771218
sba(innWeight
NNWeight
p926
(dp927
g3
F0.003032000414604623
sba(innWeight
NNWeight
p928
(dp929
g3
F0.011105028874186492
sba(innWeight
NNWeight
p930
(dp931
g3
F-0.012237572567373805
sba(innWeight
NNWeight
p932
(dp933
g3
F0.02218762805649324
sba(innWeight
NNWeight
p934
(dp935
g3
F0.011102323847479572
sba(innWeight
NNWeight
p936
(dp937
g3
F-0.0049989445248468335
sba(innWeight
NNWeight
p938
(dp939
g3
F0.028097168086205885
sba(innWeight
NNWeight
p940
(dp941
g3
F0.01688086740534005
sba(innWeight
NNWeight
p942
(dp943
g3
F0.022387933576262564
sba(innWeight
NNWeight
p944
(dp945
g3
F-0.021496383468213618
sba(innWeight
NNWeight
p946
(dp947
g3
F0.03382998216887283
sba(innWeight
NNWeight
p948
(dp949
g3
F0.04119781647815674
sba(innWeight
NNWeight
p950
(dp951
g3
F0.0352932996880343
sba(innWeight
NNWeight
p952
(dp953
g3
F0.0020762143077531874
sba(innWeight
NNWeight
p954
(dp955
g3
F0.03344508244957386
sba(innWeight
NNWeight
p956
(dp957
g3
F-0.041363605824341454
sba(innWeight
NNWeight
p958
(dp959
g3
F-0.01672912688149103
sba(innWeight
NNWeight
p960
(dp961
g3
F-0.05347431017049855
sba(innWeight
NNWeight
p962
(dp963
g3
F-0.015153687332707414
sba(innWeight
NNWeight
p964
(dp965
g3
F0.02502150974282436
sba(innWeight
NNWeight
p966
(dp967
g3
F0.020332542217256538
sba(innWeight
NNWeight
p968
(dp969
g3
F0.026331693822851304
sba(innWeight
NNWeight
p970
(dp971
g3
F-0.031193214161660262
sba(innWeight
NNWeight
p972
(dp973
g3
F-0.006602111227300924
sba(innWeight
NNWeight
p974
(dp975
g3
F-0.02552987486260065
sba(innWeight
NNWeight
p976
(dp977
g3
F-0.013853672402902174
sba(innWeight
NNWeight
p978
(dp979
g3
F-0.010716863380157184
sba(innWeight
NNWeight
p980
(dp981
g3
F-0.017472557529532466
sba(innWeight
NNWeight
p982
(dp983
g3
F-0.030394602781192492
sba(innWeight
NNWeight
p984
(dp985
g3
F-0.0291478808276256
sba(innWeight
NNWeight
p986
(dp987
g3
F0.015432095271192837
sba(innWeight
NNWeight
p988
(dp989
g3
F0.027812639294777872
sba(innWeight
NNWeight
p990
(dp991
g3
F-0.01651503957227804
sba(innWeight
NNWeight
p992
(dp993
g3
F-0.013530773918088441
sba(innWeight
NNWeight
p994
(dp995
g3
F-0.006171880346507444
sba(innWeight
NNWeight
p996
(dp997
g3
F0.017069267115855467
sba(innWeight
NNWeight
p998
(dp999
g3
F0.037695940019246664
sba(innWeight
NNWeight
p1000
(dp1001
g3
F-0.033534948190551694
sba(innWeight
NNWeight
p1002
(dp1003
g3
F-0.020540404071264444
sba(innWeight
NNWeight
p1004
(dp1005
g3
F-0.02197768476300254
sba(innWeight
NNWeight
p1006
(dp1007
g3
F0.002366374888812251
sba(innWeight
NNWeight
p1008
(dp1009
g3
F0.03804427697586539
sba(innWeight
NNWeight
p1010
(dp1011
g3
F0.004621773717974911
sba(innWeight
NNWeight
p1012
(dp1013
g3
F0.03815177319076039
sba(innWeight
NNWeight
p1014
(dp1015
g3
F-0.012383781428077976
sba(innWeight
NNWeight
p1016
(dp1017
g3
F-0.015334514763144454
sba(innWeight
NNWeight
p1018
(dp1019
g3
F-0.01401835418750495
sba(innWeight
NNWeight
p1020
(dp1021
g3
F0.047347111088981604
sba(innWeight
NNWeight
p1022
(dp1023
g3
F0.041965025028954404
sba(innWeight
NNWeight
p1024
(dp1025
g3
F0.03305651473093097
sba(innWeight
NNWeight
p1026
(dp1027
g3
F0.037155633905637815
sba(innWeight
NNWeight
p1028
(dp1029
g3
F0.034356791305769956
sba(innWeight
NNWeight
p1030
(dp1031
g3
F0.01474965366968037
sba(innWeight
NNWeight
p1032
(dp1033
g3
F-0.048104335322395574
sba(innWeight
NNWeight
p1034
(dp1035
g3
F-0.04059259764499027
sba(innWeight
NNWeight
p1036
(dp1037
g3
F-0.03183183552758872
sba(innWeight
NNWeight
p1038
(dp1039
g3
F-0.02298087315989229
sba(innWeight
NNWeight
p1040
(dp1041
g3
F0.04613512370650359
sba(innWeight
NNWeight
p1042
(dp1043
g3
F0.0033469744680714644
sba(innWeight
NNWeight
p1044
(dp1045
g3
F-0.005161215689838073
sba(innWeight
NNWeight
p1046
(dp1047
g3
F-0.046381451284280915
sba(innWeight
NNWeight
p1048
(dp1049
g3
F-0.005100496301329358
sba(innWeight
NNWeight
p1050
(dp1051
g3
F0.018093907122512406
sba(innWeight
NNWeight
p1052
(dp1053
g3
F0.01274000475972466
sba(innWeight
NNWeight
p1054
(dp1055
g3
F0.037617567171833746
sba(innWeight
NNWeight
p1056
(dp1057
g3
F0.01250105503934879
sba(innWeight
NNWeight
p1058
(dp1059
g3
F0.029753986029845553
sba(innWeight
NNWeight
p1060
(dp1061
g3
F-0.03524527620944697
sba(innWeight
NNWeight
p1062
(dp1063
g3
F-0.02479794459561003
sba(innWeight
NNWeight
p1064
(dp1065
g3
F-0.0002956569597496217
sba(innWeight
NNWeight
p1066
(dp1067
g3
F-0.01127700257747513
sba(innWeight
NNWeight
p1068
(dp1069
g3
F0.04373127368031246
sba(innWeight
NNWeight
p1070
(dp1071
g3
F-0.01776870116644605
sba(innWeight
NNWeight
p1072
(dp1073
g3
F-0.03663407200101986
sba(innWeight
NNWeight
p1074
(dp1075
g3
F0.005160049270599232
sba(innWeight
NNWeight
p1076
(dp1077
g3
F-0.01791301055396823
sba(innWeight
NNWeight
p1078
(dp1079
g3
F-0.01679301064429719
sba(innWeight
NNWeight
p1080
(dp1081
g3
F-0.013784894929259758
sba(innWeight
NNWeight
p1082
(dp1083
g3
F-0.034435035740082706
sba(innWeight
NNWeight
p1084
(dp1085
g3
F0.0074623100012715035
sba(innWeight
NNWeight
p1086
(dp1087
g3
F-0.0430740309164531
sba(innWeight
NNWeight
p1088
(dp1089
g3
F0.010860886259051857
sba(innWeight
NNWeight
p1090
(dp1091
g3
F-0.03897055206640452
sba(innWeight
NNWeight
p1092
(dp1093
g3
F0.015323866068626438
sba(innWeight
NNWeight
p1094
(dp1095
g3
F-0.03908387245683229
sba(innWeight
NNWeight
p1096
(dp1097
g3
F-0.025271447681390984
sba(innWeight
NNWeight
p1098
(dp1099
g3
F-0.040445207596367834
sba(innWeight
NNWeight
p1100
(dp1101
g3
F-0.04411381641212487
sba(innWeight
NNWeight
p1102
(dp1103
g3
F-0.011823105412153721
sba(innWeight
NNWeight
p1104
(dp1105
g3
F0.018278038152787005
sba(innWeight
NNWeight
p1106
(dp1107
g3
F0.0055126987731423166
sba(innWeight
NNWeight
p1108
(dp1109
g3
F-0.02280378957587508
sba(innWeight
NNWeight
p1110
(dp1111
g3
F-0.03733050431171694
sba(innWeight
NNWeight
p1112
(dp1113
g3
F0.03580744018786212
sba(innWeight
NNWeight
p1114
(dp1115
g3
F-0.003699213236899934
sba(innWeight
NNWeight
p1116
(dp1117
g3
F-0.04838223463275611
sba(innWeight
NNWeight
p1118
(dp1119
g3
F0.008807319786368114
sba(innWeight
NNWeight
p1120
(dp1121
g3
F-0.02316657906425523
sba(innWeight
NNWeight
p1122
(dp1123
g3
F-0.005145085231602426
sba(innWeight
NNWeight
p1124
(dp1125
g3
F0.009231166565198632
sba(innWeight
NNWeight
p1126
(dp1127
g3
F-0.010862494004705433
sba(innWeight
NNWeight
p1128
(dp1129
g3
F0.05304061881352046
sba(innWeight
NNWeight
p1130
(dp1131
g3
F0.02496097896619774
sba(innWeight
NNWeight
p1132
(dp1133
g3
F-0.0358436226214398
sba(innWeight
NNWeight
p1134
(dp1135
g3
F0.002680792707281371
sba(innWeight
NNWeight
p1136
(dp1137
g3
F0.030684479192835123
sba(innWeight
NNWeight
p1138
(dp1139
g3
F-0.02556475090433424
sba(innWeight
NNWeight
p1140
(dp1141
g3
F-0.033914710545341425
sba(innWeight
NNWeight
p1142
(dp1143
g3
F0.007599498096037099
sba(innWeight
NNWeight
p1144
(dp1145
g3
F-0.01539852298218388
sba(innWeight
NNWeight
p1146
(dp1147
g3
F0.04124694825695936
sba(innWeight
NNWeight
p1148
(dp1149
g3
F0.03912692197700412
sba(innWeight
NNWeight
p1150
(dp1151
g3
F0.011192665351737028
sba(innWeight
NNWeight
p1152
(dp1153
g3
F-0.029583002338938767
sba(innWeight
NNWeight
p1154
(dp1155
g3
F-0.05276377351106102
sba(innWeight
NNWeight
p1156
(dp1157
g3
F8.178622831033573e-05
sba(innWeight
NNWeight
p1158
(dp1159
g3
F-0.05129174950995537
sba(innWeight
NNWeight
p1160
(dp1161
g3
F-0.03641627607455092
sba(innWeight
NNWeight
p1162
(dp1163
g3
F-0.05076460896664625
sba(innWeight
NNWeight
p1164
(dp1165
g3
F0.02130962080367715
sba(innWeight
NNWeight
p1166
(dp1167
g3
F-0.02925880806497994
sba(innWeight
NNWeight
p1168
(dp1169
g3
F0.009246977078970906
sba(innWeight
NNWeight
p1170
(dp1171
g3
F-0.008162616121006544
sba(innWeight
NNWeight
p1172
(dp1173
g3
F0.0006928825740142425
sba(innWeight
NNWeight
p1174
(dp1175
g3
F0.04896297141309236
sba(innWeight
NNWeight
p1176
(dp1177
g3
F-0.03104747431342173
sba(innWeight
NNWeight
p1178
(dp1179
g3
F-0.012926211597836938
sba(innWeight
NNWeight
p1180
(dp1181
g3
F-0.019393064788742084
sba(innWeight
NNWeight
p1182
(dp1183
g3
F0.00993293152868421
sba(innWeight
NNWeight
p1184
(dp1185
g3
F-0.018861045538929148
sba(innWeight
NNWeight
p1186
(dp1187
g3
F0.00538546603538588
sba(innWeight
NNWeight
p1188
(dp1189
g3
F0.041995243320507164
sba(innWeight
NNWeight
p1190
(dp1191
g3
F-0.010603618108226543
sba(innWeight
NNWeight
p1192
(dp1193
g3
F0.021167984611524554
sba(innWeight
NNWeight
p1194
(dp1195
g3
F0.03350009757082772
sba(innWeight
NNWeight
p1196
(dp1197
g3
F-0.0026140010086033324
sba(innWeight
NNWeight
p1198
(dp1199
g3
F0.020139692821821802
sba(innWeight
NNWeight
p1200
(dp1201
g3
F-0.009892547243211779
sba(innWeight
NNWeight
p1202
(dp1203
g3
F0.03894677924552673
sba(innWeight
NNWeight
p1204
(dp1205
g3
F-0.00888171428135965
sba(innWeight
NNWeight
p1206
(dp1207
g3
F0.02958667700818938
sba(innWeight
NNWeight
p1208
(dp1209
g3
F0.0033987480517048527
sba(innWeight
NNWeight
p1210
(dp1211
g3
F-0.017571756963324872
sba(innWeight
NNWeight
p1212
(dp1213
g3
F-0.03688967557513219
sba(innWeight
NNWeight
p1214
(dp1215
g3
F0.01285361255202594
sba(innWeight
NNWeight
p1216
(dp1217
g3
F0.011863092100430878
sba(innWeight
NNWeight
p1218
(dp1219
g3
F-0.026902801168505682
sba(innWeight
NNWeight
p1220
(dp1221
g3
F-0.04030184816721628
sba(innWeight
NNWeight
p1222
(dp1223
g3
F-0.0366421324907852
sba(innWeight
NNWeight
p1224
(dp1225
g3
F-0.022958968484476337
sba(innWeight
NNWeight
p1226
(dp1227
g3
F-0.029868747415019874
sba(innWeight
NNWeight
p1228
(dp1229
g3
F-0.03776959362371835
sba(innWeight
NNWeight
p1230
(dp1231
g3
F-0.04112581706216638
sba(innWeight
NNWeight
p1232
(dp1233
g3
F0.04204402286026051
sba(innWeight
NNWeight
p1234
(dp1235
g3
F-0.02086758904964661
sba(innWeight
NNWeight
p1236
(dp1237
g3
F-0.0022619252406587383
sba(innWeight
NNWeight
p1238
(dp1239
g3
F0.04404320121759333
sba(innWeight
NNWeight
p1240
(dp1241
g3
F0.04384147856382631
sba(innWeight
NNWeight
p1242
(dp1243
g3
F0.0034748574673213214
sba(innWeight
NNWeight
p1244
(dp1245
g3
F-0.03313414569616587
sba(innWeight
NNWeight
p1246
(dp1247
g3
F-0.0043441364688791735
sba(innWeight
NNWeight
p1248
(dp1249
g3
F-0.022764064692665023
sba(innWeight
NNWeight
p1250
(dp1251
g3
F0.046923362747530624
sba(innWeight
NNWeight
p1252
(dp1253
g3
F0.031450314154275426
sba(innWeight
NNWeight
p1254
(dp1255
g3
F0.03796987353753122
sba(innWeight
NNWeight
p1256
(dp1257
g3
F0.04661841963243989
sba(innWeight
NNWeight
p1258
(dp1259
g3
F-0.025594704640077737
sba(innWeight
NNWeight
p1260
(dp1261
g3
F-0.013111663095312264
sba(innWeight
NNWeight
p1262
(dp1263
g3
F-0.045008868475445205
sba(innWeight
NNWeight
p1264
(dp1265
g3
F-0.029996149568449124
sba(innWeight
NNWeight
p1266
(dp1267
g3
F-0.03677071260677419
sba(innWeight
NNWeight
p1268
(dp1269
g3
F0.012939059334779297
sba(innWeight
NNWeight
p1270
(dp1271
g3
F-0.0013378285666944454
sba(innWeight
NNWeight
p1272
(dp1273
g3
F-0.005935663360670905
sba(innWeight
NNWeight
p1274
(dp1275
g3
F0.035745038880361235
sba(innWeight
NNWeight
p1276
(dp1277
g3
F-0.024802238864194564
sba(innWeight
NNWeight
p1278
(dp1279
g3
F-0.02755228818495829
sba(innWeight
NNWeight
p1280
(dp1281
g3
F-0.014577822710152625
sba(innWeight
NNWeight
p1282
(dp1283
g3
F-0.04593333996543117
sba(innWeight
NNWeight
p1284
(dp1285
g3
F0.04122565147065452
sba(innWeight
NNWeight
p1286
(dp1287
g3
F-0.019309864605654682
sba(innWeight
NNWeight
p1288
(dp1289
g3
F-0.03350016046905021
sba(innWeight
NNWeight
p1290
(dp1291
g3
F0.028748926119032136
sba(innWeight
NNWeight
p1292
(dp1293
g3
F-1.4646152388112649e-05
sba(innWeight
NNWeight
p1294
(dp1295
g3
F-0.02979952183967327
sba(innWeight
NNWeight
p1296
(dp1297
g3
F-0.016176452710878208
sba(innWeight
NNWeight
p1298
(dp1299
g3
F-0.04738209697393903
sba(innWeight
NNWeight
p1300
(dp1301
g3
F0.02332344796516422
sba(innWeight
NNWeight
p1302
(dp1303
g3
F-0.013358278544298854
sba(innWeight
NNWeight
p1304
(dp1305
g3
F0.03650699991473587
sba(innWeight
NNWeight
p1306
(dp1307
g3
F-0.013227989010027875
sba(innWeight
NNWeight
p1308
(dp1309
g3
F-0.01563801644950143
sba(innWeight
NNWeight
p1310
(dp1311
g3
F0.0019023502241241055
sba(innWeight
NNWeight
p1312
(dp1313
g3
F0.036948505060721386
sba(innWeight
NNWeight
p1314
(dp1315
g3
F-0.00035950802244330197
sba(innWeight
NNWeight
p1316
(dp1317
g3
F-0.008847071524898241
sba(innWeight
NNWeight
p1318
(dp1319
g3
F-0.0445799545385338
sba(innWeight
NNWeight
p1320
(dp1321
g3
F-0.032677257503317965
sba(innWeight
NNWeight
p1322
(dp1323
g3
F-0.029570038430422094
sba(innWeight
NNWeight
p1324
(dp1325
g3
F-0.02464546548669038
sba(innWeight
NNWeight
p1326
(dp1327
g3
F-0.020006724434334888
sba(innWeight
NNWeight
p1328
(dp1329
g3
F0.04431737198726262
sba(innWeight
NNWeight
p1330
(dp1331
g3
F0.014163577146979772
sba(innWeight
NNWeight
p1332
(dp1333
g3
F-0.021774271242201566
sba(innWeight
NNWeight
p1334
(dp1335
g3
F-0.03378707755936997
sba(innWeight
NNWeight
p1336
(dp1337
g3
F-0.03362781997939811
sba(innWeight
NNWeight
p1338
(dp1339
g3
F-0.03912443371379376
sba(innWeight
NNWeight
p1340
(dp1341
g3
F0.039792951563228506
sba(innWeight
NNWeight
p1342
(dp1343
g3
F0.022247855690129156
sba(innWeight
NNWeight
p1344
(dp1345
g3
F0.0247174048527696
sba(innWeight
NNWeight
p1346
(dp1347
g3
F-0.04406756972875801
sba(innWeight
NNWeight
p1348
(dp1349
g3
F-0.0323422979340121
sba(innWeight
NNWeight
p1350
(dp1351
g3
F-0.012281247732625298
sba(innWeight
NNWeight
p1352
(dp1353
g3
F-0.04346827417171887
sba(innWeight
NNWeight
p1354
(dp1355
g3
F0.028042329117409587
sba(innWeight
NNWeight
p1356
(dp1357
g3
F-0.0029435937441598687
sba(innWeight
NNWeight
p1358
(dp1359
g3
F0.02570764421056865
sba(innWeight
NNWeight
p1360
(dp1361
g3
F-0.019368005955154463
sba(innWeight
NNWeight
p1362
(dp1363
g3
F-0.0389275571389437
sba(innWeight
NNWeight
p1364
(dp1365
g3
F-0.044998470645168404
sba(innWeight
NNWeight
p1366
(dp1367
g3
F-1.1431317355260136e-05
sba(innWeight
NNWeight
p1368
(dp1369
g3
F0.03691361245080872
sba(innWeight
NNWeight
p1370
(dp1371
g3
F-0.0355991534409444
sba(innWeight
NNWeight
p1372
(dp1373
g3
F-0.027299341001508385
sba(innWeight
NNWeight
p1374
(dp1375
g3
F-0.03871851292690478
sba(innWeight
NNWeight
p1376
(dp1377
g3
F-0.045001102638890074
sba(innWeight
NNWeight
p1378
(dp1379
g3
F-0.011856496122614347
sba(innWeight
NNWeight
p1380
(dp1381
g3
F0.014421751812871298
sba(innWeight
NNWeight
p1382
(dp1383
g3
F0.014934996982592503
sba(innWeight
NNWeight
p1384
(dp1385
g3
F0.020349867326941364
sba(innWeight
NNWeight
p1386
(dp1387
g3
F-0.013390514947816779
sba(innWeight
NNWeight
p1388
(dp1389
g3
F0.022271254822858303
sba(innWeight
NNWeight
p1390
(dp1391
g3
F0.012478935142117089
sba(innWeight
NNWeight
p1392
(dp1393
g3
F-0.04292138015713165
sba(innWeight
NNWeight
p1394
(dp1395
g3
F0.014119439944250106
sba(innWeight
NNWeight
p1396
(dp1397
g3
F-0.008689082703900668
sba(innWeight
NNWeight
p1398
(dp1399
g3
F-0.04550119508705581
sba(innWeight
NNWeight
p1400
(dp1401
g3
F0.025985358596087825
sba(innWeight
NNWeight
p1402
(dp1403
g3
F-0.03247648365191895
sba(innWeight
NNWeight
p1404
(dp1405
g3
F-0.03404408208265889
sba(innWeight
NNWeight
p1406
(dp1407
g3
F0.023071585563328757
sba(innWeight
NNWeight
p1408
(dp1409
g3
F0.0418115505617278
sba(innWeight
NNWeight
p1410
(dp1411
g3
F0.015430343539087024
sba(innWeight
NNWeight
p1412
(dp1413
g3
F0.021866897034604912
sba(innWeight
NNWeight
p1414
(dp1415
g3
F0.0036804440002557756
sba(innWeight
NNWeight
p1416
(dp1417
g3
F0.00411287293934658
sba(innWeight
NNWeight
p1418
(dp1419
g3
F0.004635498252125756
sba(innWeight
NNWeight
p1420
(dp1421
g3
F0.025738265542212032
sba(innWeight
NNWeight
p1422
(dp1423
g3
F-0.03255006183089177
sba(innWeight
NNWeight
p1424
(dp1425
g3
F-0.024094843385230005
sba(innWeight
NNWeight
p1426
(dp1427
g3
F-0.02124624126216762
sba(innWeight
NNWeight
p1428
(dp1429
g3
F-0.031604369373113346
sba(innWeight
NNWeight
p1430
(dp1431
g3
F0.027083643977991935
sba(innWeight
NNWeight
p1432
(dp1433
g3
F0.04647745596408865
sba(innWeight
NNWeight
p1434
(dp1435
g3
F-0.0380630434511903
sba(innWeight
NNWeight
p1436
(dp1437
g3
F-0.03252923032761415
sba(innWeight
NNWeight
p1438
(dp1439
g3
F-0.009929450824752719
sba(innWeight
NNWeight
p1440
(dp1441
g3
F0.03958694748935217
sba(innWeight
NNWeight
p1442
(dp1443
g3
F-0.0017528511421133963
sba(innWeight
NNWeight
p1444
(dp1445
g3
F-0.005643852381980557
sba(innWeight
NNWeight
p1446
(dp1447
g3
F0.041467464591928696
sba(innWeight
NNWeight
p1448
(dp1449
g3
F-0.03892928114169064
sba(innWeight
NNWeight
p1450
(dp1451
g3
F0.01471570040841973
sba(innWeight
NNWeight
p1452
(dp1453
g3
F-0.033307385575663595
sba(innWeight
NNWeight
p1454
(dp1455
g3
F-0.03105187080272848
sba(innWeight
NNWeight
p1456
(dp1457
g3
F-0.007760545606991426
sba(innWeight
NNWeight
p1458
(dp1459
g3
F-0.04590719180398881
sba(innWeight
NNWeight
p1460
(dp1461
g3
F-0.009377591466697725
sba(innWeight
NNWeight
p1462
(dp1463
g3
F0.01945620605345312
sba(innWeight
NNWeight
p1464
(dp1465
g3
F0.04549089700464373
sba(innWeight
NNWeight
p1466
(dp1467
g3
F0.027770438767825933
sba(innWeight
NNWeight
p1468
(dp1469
g3
F0.013896277151508866
sba(innWeight
NNWeight
p1470
(dp1471
g3
F0.033493573477093565
sba(innWeight
NNWeight
p1472
(dp1473
g3
F0.031659876662824486
sba(innWeight
NNWeight
p1474
(dp1475
g3
F0.00686834249846863
sba(innWeight
NNWeight
p1476
(dp1477
g3
F0.008556642488728379
sba(innWeight
NNWeight
p1478
(dp1479
g3
F-0.04320580121424473
sba(innWeight
NNWeight
p1480
(dp1481
g3
F0.015304639176499412
sba(innWeight
NNWeight
p1482
(dp1483
g3
F0.006012394485115235
sba(innWeight
NNWeight
p1484
(dp1485
g3
F0.041204609139030415
sba(innWeight
NNWeight
p1486
(dp1487
g3
F0.021069215096324825
sba(innWeight
NNWeight
p1488
(dp1489
g3
F-0.03156194623457464
sba(innWeight
NNWeight
p1490
(dp1491
g3
F-0.021994611122716754
sba(innWeight
NNWeight
p1492
(dp1493
g3
F0.02716775366811957
sba(innWeight
NNWeight
p1494
(dp1495
g3
F-0.022848209944870454
sba(innWeight
NNWeight
p1496
(dp1497
g3
F-0.04580986197204576
sba(innWeight
NNWeight
p1498
(dp1499
g3
F0.020081649031925813
sba(innWeight
NNWeight
p1500
(dp1501
g3
F0.003425202416255239
sba(innWeight
NNWeight
p1502
(dp1503
g3
F-0.017222804716501363
sba(innWeight
NNWeight
p1504
(dp1505
g3
F-0.01819695093493327
sba(innWeight
NNWeight
p1506
(dp1507
g3
F-0.013351916443737458
sba(innWeight
NNWeight
p1508
(dp1509
g3
F-0.01988781901794772
sba(innWeight
NNWeight
p1510
(dp1511
g3
F-0.04640875572591874
sba(innWeight
NNWeight
p1512
(dp1513
g3
F0.04584870637685796
sba(innWeight
NNWeight
p1514
(dp1515
g3
F0.05385305240767337
sba(innWeight
NNWeight
p1516
(dp1517
g3
F-0.024149893795644743
sba(innWeight
NNWeight
p1518
(dp1519
g3
F-0.04245252277349029
sba(innWeight
NNWeight
p1520
(dp1521
g3
F-0.02173012310307837
sba(innWeight
NNWeight
p1522
(dp1523
g3
F-0.0046323496066914506
sba(innWeight
NNWeight
p1524
(dp1525
g3
F-0.03887066224057388
sba(innWeight
NNWeight
p1526
(dp1527
g3
F0.032772946011051345
sba(innWeight
NNWeight
p1528
(dp1529
g3
F-0.017637882938787493
sba(innWeight
NNWeight
p1530
(dp1531
g3
F0.010917273382727256
sba(innWeight
NNWeight
p1532
(dp1533
g3
F-0.02569134711143266
sba(innWeight
NNWeight
p1534
(dp1535
g3
F0.03709485509741698
sba(innWeight
NNWeight
p1536
(dp1537
g3
F0.04081873402582767
sba(innWeight
NNWeight
p1538
(dp1539
g3
F0.026030815957655076
sba(innWeight
NNWeight
p1540
(dp1541
g3
F0.036332533292813315
sba(innWeight
NNWeight
p1542
(dp1543
g3
F0.03274300123265861
sba(innWeight
NNWeight
p1544
(dp1545
g3
F0.0020409038995363856
sba(innWeight
NNWeight
p1546
(dp1547
g3
F0.012876741387682326
sba(innWeight
NNWeight
p1548
(dp1549
g3
F0.03324488432594142
sba(innWeight
NNWeight
p1550
(dp1551
g3
F0.011209018725666752
sba(innWeight
NNWeight
p1552
(dp1553
g3
F-0.016815237724583015
sba(innWeight
NNWeight
p1554
(dp1555
g3
F-0.037423318539357577
sba(innWeight
NNWeight
p1556
(dp1557
g3
F-0.044075399054447885
sba(innWeight
NNWeight
p1558
(dp1559
g3
F0.009960064581701737
sba(innWeight
NNWeight
p1560
(dp1561
g3
F0.01900215730753424
sba(innWeight
NNWeight
p1562
(dp1563
g3
F-0.03716912149015009
sba(innWeight
NNWeight
p1564
(dp1565
g3
F0.01617057984805567
sba(innWeight
NNWeight
p1566
(dp1567
g3
F0.027259260798192003
sba(innWeight
NNWeight
p1568
(dp1569
g3
F-0.0009755217704742083
sba(innWeight
NNWeight
p1570
(dp1571
g3
F-0.023303613824353166
sba(innWeight
NNWeight
p1572
(dp1573
g3
F-0.024359541916509884
sba(innWeight
NNWeight
p1574
(dp1575
g3
F0.020922992027545252
sba(innWeight
NNWeight
p1576
(dp1577
g3
F-0.021925434101805173
sba(innWeight
NNWeight
p1578
(dp1579
g3
F0.02684729624481771
sba(innWeight
NNWeight
p1580
(dp1581
g3
F-0.04888852619605998
sba(innWeight
NNWeight
p1582
(dp1583
g3
F0.04945744061685237
sba(innWeight
NNWeight
p1584
(dp1585
g3
F-0.03865946289625336
sba(innWeight
NNWeight
p1586
(dp1587
g3
F-0.013951646640572532
sba(innWeight
NNWeight
p1588
(dp1589
g3
F0.04670022397534083
sba(innWeight
NNWeight
p1590
(dp1591
g3
F-0.016502232543214573
sba(innWeight
NNWeight
p1592
(dp1593
g3
F-0.05307635305437521
sba(innWeight
NNWeight
p1594
(dp1595
g3
F0.04526759268703065
sba(innWeight
NNWeight
p1596
(dp1597
g3
F-0.007051236883999233
sba(innWeight
NNWeight
p1598
(dp1599
g3
F-0.012355802392200603
sba(innWeight
NNWeight
p1600
(dp1601
g3
F-0.011369893327063892
sba(innWeight
NNWeight
p1602
(dp1603
g3
F0.008130527092105358
sba(innWeight
NNWeight
p1604
(dp1605
g3
F0.006311356055272358
sba(innWeight
NNWeight
p1606
(dp1607
g3
F0.028487107748484126
sba(innWeight
NNWeight
p1608
(dp1609
g3
F0.0035264571954818184
sba(innWeight
NNWeight
p1610
(dp1611
g3
F0.037467494012401556
sba(innWeight
NNWeight
p1612
(dp1613
g3
F0.03488803894086326
sba(innWeight
NNWeight
p1614
(dp1615
g3
F0.010061458661140495
sba(innWeight
NNWeight
p1616
(dp1617
g3
F0.036314060499607656
sba(innWeight
NNWeight
p1618
(dp1619
g3
F0.004181607163352419
sba(innWeight
NNWeight
p1620
(dp1621
g3
F-0.052002687600484966
sba(innWeight
NNWeight
p1622
(dp1623
g3
F-0.0033331740573653147
sba(innWeight
NNWeight
p1624
(dp1625
g3
F-0.004151827386341138
sba(innWeight
NNWeight
p1626
(dp1627
g3
F0.03017732777633009
sba(innWeight
NNWeight
p1628
(dp1629
g3
F-0.010118028887853247
sba(innWeight
NNWeight
p1630
(dp1631
g3
F-0.036538173926265974
sba(innWeight
NNWeight
p1632
(dp1633
g3
F-0.04223589402179036
sba(innWeight
NNWeight
p1634
(dp1635
g3
F-0.039163760096832985
sba(innWeight
NNWeight
p1636
(dp1637
g3
F0.03310767270695774
sba(innWeight
NNWeight
p1638
(dp1639
g3
F-0.023910801900011065
sba(innWeight
NNWeight
p1640
(dp1641
g3
F0.04896642424095152
sba(innWeight
NNWeight
p1642
(dp1643
g3
F0.015808458645388393
sba(innWeight
NNWeight
p1644
(dp1645
g3
F0.008046431385837029
sba(innWeight
NNWeight
p1646
(dp1647
g3
F0.004883248702295184
sba(innWeight
NNWeight
p1648
(dp1649
g3
F-0.004756346224529682
sba(innWeight
NNWeight
p1650
(dp1651
g3
F0.0004031864532578449
sba(innWeight
NNWeight
p1652
(dp1653
g3
F-0.022112967963091222
sba(innWeight
NNWeight
p1654
(dp1655
g3
F0.021764104211674448
sba(innWeight
NNWeight
p1656
(dp1657
g3
F-0.04308187039527817
sba(innWeight
NNWeight
p1658
(dp1659
g3
F0.0329870365854396
sba(innWeight
NNWeight
p1660
(dp1661
g3
F0.022934215196877203
sba(innWeight
NNWeight
p1662
(dp1663
g3
F-0.02445373174219635
sba(innWeight
NNWeight
p1664
(dp1665
g3
F-0.036631843178340374
sba(innWeight
NNWeight
p1666
(dp1667
g3
F0.032033270026268476
sba(innWeight
NNWeight
p1668
(dp1669
g3
F-0.043442313199543156
sba(innWeight
NNWeight
p1670
(dp1671
g3
F-0.033859534052431646
sba(innWeight
NNWeight
p1672
(dp1673
g3
F0.04980218962813427
sba(innWeight
NNWeight
p1674
(dp1675
g3
F0.0033451860973821718
sba(innWeight
NNWeight
p1676
(dp1677
g3
F0.01888328880667212
sba(innWeight
NNWeight
p1678
(dp1679
g3
F-0.04515314966921422
sba(innWeight
NNWeight
p1680
(dp1681
g3
F-0.009156190045288582
sba(innWeight
NNWeight
p1682
(dp1683
g3
F0.02917078647874437
sba(innWeight
NNWeight
p1684
(dp1685
g3
F-0.03466105413886611
sba(innWeight
NNWeight
p1686
(dp1687
g3
F0.017661431148184453
sba(innWeight
NNWeight
p1688
(dp1689
g3
F-0.029483911882704456
sba(innWeight
NNWeight
p1690
(dp1691
g3
F0.04489178242012458
sba(innWeight
NNWeight
p1692
(dp1693
g3
F-0.011885801324748745
sba(innWeight
NNWeight
p1694
(dp1695
g3
F-0.011444588338699945
sba(innWeight
NNWeight
p1696
(dp1697
g3
F-0.008242587967821518
sba(innWeight
NNWeight
p1698
(dp1699
g3
F0.04862019208442113
sba(innWeight
NNWeight
p1700
(dp1701
g3
F-0.02912652830470455
sba(innWeight
NNWeight
p1702
(dp1703
g3
F-0.015289507441108754
sba(innWeight
NNWeight
p1704
(dp1705
g3
F-0.030877683280947855
sba(innWeight
NNWeight
p1706
(dp1707
g3
F-0.036234325350432244
sba(innWeight
NNWeight
p1708
(dp1709
g3
F0.043417095358655386
sba(innWeight
NNWeight
p1710
(dp1711
g3
F0.04212658627653079
sba(innWeight
NNWeight
p1712
(dp1713
g3
F-0.025870719416201757
sba(innWeight
NNWeight
p1714
(dp1715
g3
F0.029331938207989957
sba(innWeight
NNWeight
p1716
(dp1717
g3
F-0.027996224166875895
sba(innWeight
NNWeight
p1718
(dp1719
g3
F-0.019156027778507733
sba(innWeight
NNWeight
p1720
(dp1721
g3
F0.031651768774491405
sba(innWeight
NNWeight
p1722
(dp1723
g3
F-0.020359423419039964
sba(innWeight
NNWeight
p1724
(dp1725
g3
F-0.0451222713277521
sba(innWeight
NNWeight
p1726
(dp1727
g3
F-0.023405403722427914
sba(innWeight
NNWeight
p1728
(dp1729
g3
F-0.03906738099099126
sba(innWeight
NNWeight
p1730
(dp1731
g3
F-0.019881189337428967
sba(innWeight
NNWeight
p1732
(dp1733
g3
F-0.048777231580525916
sba(innWeight
NNWeight
p1734
(dp1735
g3
F-0.03369601151036076
sba(innWeight
NNWeight
p1736
(dp1737
g3
F0.012105495979647317
sba(innWeight
NNWeight
p1738
(dp1739
g3
F0.005325633176056049
sba(innWeight
NNWeight
p1740
(dp1741
g3
F0.016035921304232172
sba(innWeight
NNWeight
p1742
(dp1743
g3
F-0.049804944186640165
sba(innWeight
NNWeight
p1744
(dp1745
g3
F0.011662405118197368
sba(innWeight
NNWeight
p1746
(dp1747
g3
F-0.03852000355163516
sba(innWeight
NNWeight
p1748
(dp1749
g3
F0.02137744326741075
sba(innWeight
NNWeight
p1750
(dp1751
g3
F0.035014192603705085
sba(innWeight
NNWeight
p1752
(dp1753
g3
F-0.041149911158828247
sba(innWeight
NNWeight
p1754
(dp1755
g3
F-0.01297890471445531
sba(innWeight
NNWeight
p1756
(dp1757
g3
F0.0019368230746420333
sba(innWeight
NNWeight
p1758
(dp1759
g3
F0.03610694369903232
sba(innWeight
NNWeight
p1760
(dp1761
g3
F0.029621028420131177
sba(innWeight
NNWeight
p1762
(dp1763
g3
F0.025045936740298556
sba(innWeight
NNWeight
p1764
(dp1765
g3
F-0.03271861259198118
sba(innWeight
NNWeight
p1766
(dp1767
g3
F0.010425310486875516
sba(innWeight
NNWeight
p1768
(dp1769
g3
F0.030046786660263128
sba(innWeight
NNWeight
p1770
(dp1771
g3
F0.03209429034889079
sba(innWeight
NNWeight
p1772
(dp1773
g3
F-0.04911665107170126
sba(innWeight
NNWeight
p1774
(dp1775
g3
F0.038690107295484236
sba(innWeight
NNWeight
p1776
(dp1777
g3
F-0.03648839607501607
sba(innWeight
NNWeight
p1778
(dp1779
g3
F-0.000730187252376995
sba(innWeight
NNWeight
p1780
(dp1781
g3
F0.046544760977817914
sba(innWeight
NNWeight
p1782
(dp1783
g3
F0.03569420232889889
sba(innWeight
NNWeight
p1784
(dp1785
g3
F-0.010506151382682577
sba(innWeight
NNWeight
p1786
(dp1787
g3
F-0.00621604156279871
sba(innWeight
NNWeight
p1788
(dp1789
g3
F0.02573546428636228
sba(innWeight
NNWeight
p1790
(dp1791
g3
F0.021198188184406996
sba(innWeight
NNWeight
p1792
(dp1793
g3
F0.03769586603459007
sba(innWeight
NNWeight
p1794
(dp1795
g3
F-0.02853131991572334
sba(innWeight
NNWeight
p1796
(dp1797
g3
F-0.041888590234638
sba(innWeight
NNWeight
p1798
(dp1799
g3
F-0.022484802956575033
sba(innWeight
NNWeight
p1800
(dp1801
g3
F0.003305215254560522
sba(innWeight
NNWeight
p1802
(dp1803
g3
F-0.029266859062309688
sba(innWeight
NNWeight
p1804
(dp1805
g3
F0.02797978009492328
sba(innWeight
NNWeight
p1806
(dp1807
g3
F-0.041034996176357016
sba(innWeight
NNWeight
p1808
(dp1809
g3
F0.009796538871883937
sba(innWeight
NNWeight
p1810
(dp1811
g3
F-0.015418463564220972
sba(innWeight
NNWeight
p1812
(dp1813
g3
F0.039341831631728
sba(innWeight
NNWeight
p1814
(dp1815
g3
F0.008342547992314323
sba(innWeight
NNWeight
p1816
(dp1817
g3
F-0.0482899280426113
sba(innWeight
NNWeight
p1818
(dp1819
g3
F-0.0431812064315547
sba(innWeight
NNWeight
p1820
(dp1821
g3
F-0.05321054337612361
sba(innWeight
NNWeight
p1822
(dp1823
g3
F-0.025362187163915268
sba(innWeight
NNWeight
p1824
(dp1825
g3
F0.04817348214118712
sba(innWeight
NNWeight
p1826
(dp1827
g3
F-0.0229110365328695
sba(innWeight
NNWeight
p1828
(dp1829
g3
F0.03892561282150374
sba(innWeight
NNWeight
p1830
(dp1831
g3
F0.011120309109389494
sba(innWeight
NNWeight
p1832
(dp1833
g3
F0.03816728786963126
sba(innWeight
NNWeight
p1834
(dp1835
g3
F-0.04129010068309331
sba(innWeight
NNWeight
p1836
(dp1837
g3
F0.02207080163223073
sba(innWeight
NNWeight
p1838
(dp1839
g3
F0.007602687822403251
sba(innWeight
NNWeight
p1840
(dp1841
g3
F-0.019110252098908542
sba(innWeight
NNWeight
p1842
(dp1843
g3
F-0.011541071937841313
sba(innWeight
NNWeight
p1844
(dp1845
g3
F-0.04065282014747905
sba(innWeight
NNWeight
p1846
(dp1847
g3
F-0.01718851576432628
sba(innWeight
NNWeight
p1848
(dp1849
g3
F-0.040260621848327814
sba(innWeight
NNWeight
p1850
(dp1851
g3
F-0.0006543720694346391
sba(innWeight
NNWeight
p1852
(dp1853
g3
F0.02068505584419397
sba(innWeight
NNWeight
p1854
(dp1855
g3
F-0.01563419192755045
sba(innWeight
NNWeight
p1856
(dp1857
g3
F0.029754591706253157
sba(innWeight
NNWeight
p1858
(dp1859
g3
F0.03167074108750735
sba(innWeight
NNWeight
p1860
(dp1861
g3
F-0.018594139159007123
sba(innWeight
NNWeight
p1862
(dp1863
g3
F-0.03003521044191146
sba(innWeight
NNWeight
p1864
(dp1865
g3
F0.05181392343457928
sba(innWeight
NNWeight
p1866
(dp1867
g3
F0.044587517622655434
sba(innWeight
NNWeight
p1868
(dp1869
g3
F0.02723934999715645
sba(innWeight
NNWeight
p1870
(dp1871
g3
F0.040647932348788746
sba(innWeight
NNWeight
p1872
(dp1873
g3
F-0.025392266501040938
sba(innWeight
NNWeight
p1874
(dp1875
g3
F-0.02812339734168137
sba(innWeight
NNWeight
p1876
(dp1877
g3
F0.03492259138216018
sba(innWeight
NNWeight
p1878
(dp1879
g3
F0.007332283851973794
sba(innWeight
NNWeight
p1880
(dp1881
g3
F-0.021895568181152673
sba(innWeight
NNWeight
p1882
(dp1883
g3
F-0.03863577471456833
sba(innWeight
NNWeight
p1884
(dp1885
g3
F-0.0485557998289966
sba(innWeight
NNWeight
p1886
(dp1887
g3
F-0.0027696271672452174
sba(innWeight
NNWeight
p1888
(dp1889
g3
F0.008300208727710772
sba(innWeight
NNWeight
p1890
(dp1891
g3
F0.005985921004967538
sba(innWeight
NNWeight
p1892
(dp1893
g3
F0.023105511458621608
sba(innWeight
NNWeight
p1894
(dp1895
g3
F-0.006579566584108302
sba(innWeight
NNWeight
p1896
(dp1897
g3
F0.04439860360159872
sba(innWeight
NNWeight
p1898
(dp1899
g3
F-0.034281568103273985
sba(innWeight
NNWeight
p1900
(dp1901
g3
F-0.017906141891878388
sba(innWeight
NNWeight
p1902
(dp1903
g3
F-0.03383877678450199
sba(innWeight
NNWeight
p1904
(dp1905
g3
F0.04317001974479299
sba(innWeight
NNWeight
p1906
(dp1907
g3
F0.01916257702038236
sba(innWeight
NNWeight
p1908
(dp1909
g3
F-0.019798009998780727
sba(innWeight
NNWeight
p1910
(dp1911
g3
F-0.03853211105248263
sba(innWeight
NNWeight
p1912
(dp1913
g3
F-0.0033539865808109894
sba(innWeight
NNWeight
p1914
(dp1915
g3
F-0.013531848274427593
sba(innWeight
NNWeight
p1916
(dp1917
g3
F0.027713859495276015
sba(innWeight
NNWeight
p1918
(dp1919
g3
F0.030060411451658883
sba(innWeight
NNWeight
p1920
(dp1921
g3
F0.024203853617461784
sba(innWeight
NNWeight
p1922
(dp1923
g3
F-0.031161882802938717
sba(innWeight
NNWeight
p1924
(dp1925
g3
F0.028887153031165593
sba(innWeight
NNWeight
p1926
(dp1927
g3
F0.03872169284932396
sba(innWeight
NNWeight
p1928
(dp1929
g3
F-0.022804292445411052
sba(innWeight
NNWeight
p1930
(dp1931
g3
F0.029896792139966193
sba(innWeight
NNWeight
p1932
(dp1933
g3
F0.04440823301859651
sba(innWeight
NNWeight
p1934
(dp1935
g3
F-0.048310036663146774
sba(innWeight
NNWeight
p1936
(dp1937
g3
F0.04424485569351105
sba(innWeight
NNWeight
p1938
(dp1939
g3
F0.029477372004589105
sba(innWeight
NNWeight
p1940
(dp1941
g3
F0.006588940499795462
sba(innWeight
NNWeight
p1942
(dp1943
g3
F-0.01156631296727108
sba(innWeight
NNWeight
p1944
(dp1945
g3
F0.01508178027309844
sba(innWeight
NNWeight
p1946
(dp1947
g3
F0.02076295116671078
sba(innWeight
NNWeight
p1948
(dp1949
g3
F0.039089361749144944
sba(innWeight
NNWeight
p1950
(dp1951
g3
F-0.012340386495942766
sba(innWeight
NNWeight
p1952
(dp1953
g3
F-0.03821081651608911
sba(innWeight
NNWeight
p1954
(dp1955
g3
F-0.024444352733953106
sba(innWeight
NNWeight
p1956
(dp1957
g3
F0.03075971549140225
sba(innWeight
NNWeight
p1958
(dp1959
g3
F0.0005455474531413024
sba(innWeight
NNWeight
p1960
(dp1961
g3
F0.008028341144589527
sba(innWeight
NNWeight
p1962
(dp1963
g3
F0.01021686140204853
sba(innWeight
NNWeight
p1964
(dp1965
g3
F0.023068217132358227
sba(innWeight
NNWeight
p1966
(dp1967
g3
F-0.05181941799274398
sba(innWeight
NNWeight
p1968
(dp1969
g3
F-0.010183707763238542
sba(innWeight
NNWeight
p1970
(dp1971
g3
F0.036333123678044074
sba(innWeight
NNWeight
p1972
(dp1973
g3
F-0.02414557329085201
sba(innWeight
NNWeight
p1974
(dp1975
g3
F-0.03850928789315617
sba(innWeight
NNWeight
p1976
(dp1977
g3
F-0.015332389663841917
sba(innWeight
NNWeight
p1978
(dp1979
g3
F0.045681961192669325
sba(innWeight
NNWeight
p1980
(dp1981
g3
F0.010836553931537606
sba(innWeight
NNWeight
p1982
(dp1983
g3
F0.026733069683391928
sba(innWeight
NNWeight
p1984
(dp1985
g3
F0.010493460356160564
sba(innWeight
NNWeight
p1986
(dp1987
g3
F-0.02929635889494966
sba(innWeight
NNWeight
p1988
(dp1989
g3
F-0.00994587961877492
sba(innWeight
NNWeight
p1990
(dp1991
g3
F-0.03108941376236869
sba(innWeight
NNWeight
p1992
(dp1993
g3
F-0.018021377982875807
sba(innWeight
NNWeight
p1994
(dp1995
g3
F-0.04800253677828457
sba(innWeight
NNWeight
p1996
(dp1997
g3
F-0.028043248703018803
sba(innWeight
NNWeight
p1998
(dp1999
g3
F-0.009925468825446117
sba(innWeight
NNWeight
p2000
(dp2001
g3
F-0.009528324030510975
sba(innWeight
NNWeight
p2002
(dp2003
g3
F0.015838262109346343
sba(innWeight
NNWeight
p2004
(dp2005
g3
F-0.039485188161492255
sba(innWeight
NNWeight
p2006
(dp2007
g3
F0.04606457283529686
sba(innWeight
NNWeight
p2008
(dp2009
g3
F0.010594461793669649
sba(innWeight
NNWeight
p2010
(dp2011
g3
F0.01178147216013797
sba(innWeight
NNWeight
p2012
(dp2013
g3
F0.044044873025475495
sba(innWeight
NNWeight
p2014
(dp2015
g3
F0.0045998437647844686
sba(innWeight
NNWeight
p2016
(dp2017
g3
F0.041397265139727496
sba(innWeight
NNWeight
p2018
(dp2019
g3
F-0.03787241796013394
sba(innWeight
NNWeight
p2020
(dp2021
g3
F-0.041159386558630474
sba.