(lp0
(innWeight
NNWeight
p1
(dp2
S'val'
p3
F-0.02504737114216586
sba(innWeight
NNWeight
p4
(dp5
g3
F-0.048182981407924555
sba(innWeight
NNWeight
p6
(dp7
g3
F-0.029815286892182873
sba(innWeight
NNWeight
p8
(dp9
g3
F-0.019629938302244687
sba(innWeight
NNWeight
p10
(dp11
g3
F-0.020943776797796895
sba(innWeight
NNWeight
p12
(dp13
g3
F-0.020604927626357426
sba(innWeight
NNWeight
p14
(dp15
g3
F0.010064267593096197
sba(innWeight
NNWeight
p16
(dp17
g3
F-0.001382560000323009
sba(innWeight
NNWeight
p18
(dp19
g3
F-0.041860728312099825
sba(innWeight
NNWeight
p20
(dp21
g3
F-0.015196444949082847
sba(innWeight
NNWeight
p22
(dp23
g3
F0.01366792363835336
sba(innWeight
NNWeight
p24
(dp25
g3
F-0.036878173613829154
sba(innWeight
NNWeight
p26
(dp27
g3
F0.05012514535607427
sba(innWeight
NNWeight
p28
(dp29
g3
F-0.011549626065528543
sba(innWeight
NNWeight
p30
(dp31
g3
F0.029350745765716096
sba(innWeight
NNWeight
p32
(dp33
g3
F-0.025856203704312165
sba(innWeight
NNWeight
p34
(dp35
g3
F0.021897718349789746
sba(innWeight
NNWeight
p36
(dp37
g3
F-0.0005658364458318407
sba(innWeight
NNWeight
p38
(dp39
g3
F0.02064022178216812
sba(innWeight
NNWeight
p40
(dp41
g3
F0.031114161886289505
sba(innWeight
NNWeight
p42
(dp43
g3
F0.044654608661473895
sba(innWeight
NNWeight
p44
(dp45
g3
F0.03338172935604256
sba(innWeight
NNWeight
p46
(dp47
g3
F-0.02729563287035031
sba(innWeight
NNWeight
p48
(dp49
g3
F-0.009126734815519127
sba(innWeight
NNWeight
p50
(dp51
g3
F0.03343967196222819
sba(innWeight
NNWeight
p52
(dp53
g3
F-0.0482393874880504
sba(innWeight
NNWeight
p54
(dp55
g3
F0.017828326006559064
sba(innWeight
NNWeight
p56
(dp57
g3
F-0.042774031898322046
sba(innWeight
NNWeight
p58
(dp59
g3
F-0.023977803409247204
sba(innWeight
NNWeight
p60
(dp61
g3
F0.006466265023706957
sba(innWeight
NNWeight
p62
(dp63
g3
F-0.048771221906895486
sba(innWeight
NNWeight
p64
(dp65
g3
F0.060632937029395935
sba(innWeight
NNWeight
p66
(dp67
g3
F0.015331846177641086
sba(innWeight
NNWeight
p68
(dp69
g3
F-0.0071836416493593035
sba(innWeight
NNWeight
p70
(dp71
g3
F-0.002281209060404542
sba(innWeight
NNWeight
p72
(dp73
g3
F-0.05778750009846033
sba(innWeight
NNWeight
p74
(dp75
g3
F-0.01847907707374958
sba(innWeight
NNWeight
p76
(dp77
g3
F0.0021886749623680913
sba(innWeight
NNWeight
p78
(dp79
g3
F-0.003111082837316016
sba(innWeight
NNWeight
p80
(dp81
g3
F-0.026431418288146585
sba(innWeight
NNWeight
p82
(dp83
g3
F0.058810657173545854
sba(innWeight
NNWeight
p84
(dp85
g3
F0.02262373932384166
sba(innWeight
NNWeight
p86
(dp87
g3
F-0.0027597437329238868
sba(innWeight
NNWeight
p88
(dp89
g3
F0.0234604125770278
sba(innWeight
NNWeight
p90
(dp91
g3
F0.01868197208702986
sba(innWeight
NNWeight
p92
(dp93
g3
F-0.03857508692347434
sba(innWeight
NNWeight
p94
(dp95
g3
F0.04009731320942205
sba(innWeight
NNWeight
p96
(dp97
g3
F-0.039768249008948216
sba(innWeight
NNWeight
p98
(dp99
g3
F0.04077243246125106
sba(innWeight
NNWeight
p100
(dp101
g3
F-0.003634795384431025
sba(innWeight
NNWeight
p102
(dp103
g3
F0.007554082334007319
sba(innWeight
NNWeight
p104
(dp105
g3
F-0.01797149181697496
sba(innWeight
NNWeight
p106
(dp107
g3
F-0.04034523413446432
sba(innWeight
NNWeight
p108
(dp109
g3
F-0.008345461469716488
sba(innWeight
NNWeight
p110
(dp111
g3
F-0.03440521232552508
sba(innWeight
NNWeight
p112
(dp113
g3
F-0.018672014916308204
sba(innWeight
NNWeight
p114
(dp115
g3
F-0.008322739720434128
sba(innWeight
NNWeight
p116
(dp117
g3
F0.013354171143740996
sba(innWeight
NNWeight
p118
(dp119
g3
F0.012379586272689784
sba(innWeight
NNWeight
p120
(dp121
g3
F0.01823995795398538
sba(innWeight
NNWeight
p122
(dp123
g3
F0.026640932493829372
sba(innWeight
NNWeight
p124
(dp125
g3
F0.005740955352990999
sba(innWeight
NNWeight
p126
(dp127
g3
F-0.014499721005594643
sba(innWeight
NNWeight
p128
(dp129
g3
F-0.04224669881210961
sba(innWeight
NNWeight
p130
(dp131
g3
F0.0256879652613086
sba(innWeight
NNWeight
p132
(dp133
g3
F-0.03645347586444895
sba(innWeight
NNWeight
p134
(dp135
g3
F0.014006757680528165
sba(innWeight
NNWeight
p136
(dp137
g3
F0.024565095249245893
sba(innWeight
NNWeight
p138
(dp139
g3
F-0.05179155228203281
sba(innWeight
NNWeight
p140
(dp141
g3
F-0.01076519975344235
sba(innWeight
NNWeight
p142
(dp143
g3
F-0.01407698676824057
sba(innWeight
NNWeight
p144
(dp145
g3
F0.014857361858830938
sba(innWeight
NNWeight
p146
(dp147
g3
F-0.049003569041272496
sba(innWeight
NNWeight
p148
(dp149
g3
F0.021021667145996674
sba(innWeight
NNWeight
p150
(dp151
g3
F0.038109053661957465
sba(innWeight
NNWeight
p152
(dp153
g3
F0.03194234274567633
sba(innWeight
NNWeight
p154
(dp155
g3
F0.020165886619511547
sba(innWeight
NNWeight
p156
(dp157
g3
F-0.025370300764487815
sba(innWeight
NNWeight
p158
(dp159
g3
F0.05063165205745607
sba(innWeight
NNWeight
p160
(dp161
g3
F-0.03588731054786814
sba(innWeight
NNWeight
p162
(dp163
g3
F0.026667844472616904
sba(innWeight
NNWeight
p164
(dp165
g3
F0.039990546559761274
sba(innWeight
NNWeight
p166
(dp167
g3
F-0.04787746251978474
sba(innWeight
NNWeight
p168
(dp169
g3
F0.033006639731737134
sba(innWeight
NNWeight
p170
(dp171
g3
F-0.001042921031538713
sba(innWeight
NNWeight
p172
(dp173
g3
F0.04808812889520845
sba(innWeight
NNWeight
p174
(dp175
g3
F-0.010395054219050716
sba(innWeight
NNWeight
p176
(dp177
g3
F0.016318671005931238
sba(innWeight
NNWeight
p178
(dp179
g3
F0.007301403896882919
sba(innWeight
NNWeight
p180
(dp181
g3
F-0.02392319860654505
sba(innWeight
NNWeight
p182
(dp183
g3
F0.06105171186788005
sba(innWeight
NNWeight
p184
(dp185
g3
F0.01285307007417357
sba(innWeight
NNWeight
p186
(dp187
g3
F0.0468537564385792
sba(innWeight
NNWeight
p188
(dp189
g3
F-0.0019133593724546922
sba(innWeight
NNWeight
p190
(dp191
g3
F-0.00834902633842074
sba(innWeight
NNWeight
p192
(dp193
g3
F-0.014510495493894762
sba(innWeight
NNWeight
p194
(dp195
g3
F0.04081595120175062
sba(innWeight
NNWeight
p196
(dp197
g3
F0.055055204376009366
sba(innWeight
NNWeight
p198
(dp199
g3
F0.034182411818263404
sba(innWeight
NNWeight
p200
(dp201
g3
F0.013666435320507524
sba(innWeight
NNWeight
p202
(dp203
g3
F-0.03298688384669528
sba(innWeight
NNWeight
p204
(dp205
g3
F0.012608539255293198
sba(innWeight
NNWeight
p206
(dp207
g3
F-0.017859294448730356
sba(innWeight
NNWeight
p208
(dp209
g3
F0.033179404886201004
sba(innWeight
NNWeight
p210
(dp211
g3
F0.03487028612958139
sba(innWeight
NNWeight
p212
(dp213
g3
F0.01776509199727606
sba(innWeight
NNWeight
p214
(dp215
g3
F-0.043781149512723584
sba(innWeight
NNWeight
p216
(dp217
g3
F-0.004481193696987852
sba(innWeight
NNWeight
p218
(dp219
g3
F-0.05584814154348148
sba(innWeight
NNWeight
p220
(dp221
g3
F0.02449482152538227
sba(innWeight
NNWeight
p222
(dp223
g3
F0.003140239716791432
sba(innWeight
NNWeight
p224
(dp225
g3
F-0.001930766702951357
sba(innWeight
NNWeight
p226
(dp227
g3
F0.02639579309008415
sba(innWeight
NNWeight
p228
(dp229
g3
F-0.03767407062922782
sba(innWeight
NNWeight
p230
(dp231
g3
F-0.04268028004823659
sba(innWeight
NNWeight
p232
(dp233
g3
F-0.027332334025238776
sba(innWeight
NNWeight
p234
(dp235
g3
F-0.04353358083341698
sba(innWeight
NNWeight
p236
(dp237
g3
F-0.03876186009945222
sba(innWeight
NNWeight
p238
(dp239
g3
F-0.006037719625859173
sba(innWeight
NNWeight
p240
(dp241
g3
F-0.00278057455691958
sba(innWeight
NNWeight
p242
(dp243
g3
F0.03392597875608525
sba(innWeight
NNWeight
p244
(dp245
g3
F0.028872718106341736
sba(innWeight
NNWeight
p246
(dp247
g3
F-0.04256940509441291
sba(innWeight
NNWeight
p248
(dp249
g3
F0.06235083536169854
sba(innWeight
NNWeight
p250
(dp251
g3
F0.027697044162247608
sba(innWeight
NNWeight
p252
(dp253
g3
F0.015116049735320417
sba(innWeight
NNWeight
p254
(dp255
g3
F0.018635199260520686
sba(innWeight
NNWeight
p256
(dp257
g3
F-0.015609049752183708
sba(innWeight
NNWeight
p258
(dp259
g3
F0.009644498483753438
sba(innWeight
NNWeight
p260
(dp261
g3
F-0.026222068624358975
sba(innWeight
NNWeight
p262
(dp263
g3
F0.008509649551005638
sba(innWeight
NNWeight
p264
(dp265
g3
F0.02806472367772181
sba(innWeight
NNWeight
p266
(dp267
g3
F-0.021456290177741425
sba(innWeight
NNWeight
p268
(dp269
g3
F0.03307482614023764
sba(innWeight
NNWeight
p270
(dp271
g3
F-0.015624524834896786
sba(innWeight
NNWeight
p272
(dp273
g3
F0.02108770173864819
sba(innWeight
NNWeight
p274
(dp275
g3
F-0.00645991907949604
sba(innWeight
NNWeight
p276
(dp277
g3
F0.013641980907968641
sba(innWeight
NNWeight
p278
(dp279
g3
F0.04052928086325258
sba(innWeight
NNWeight
p280
(dp281
g3
F-0.04369706489234351
sba(innWeight
NNWeight
p282
(dp283
g3
F0.0346309321051309
sba(innWeight
NNWeight
p284
(dp285
g3
F0.0050239102145828544
sba(innWeight
NNWeight
p286
(dp287
g3
F-0.021781470173063987
sba(innWeight
NNWeight
p288
(dp289
g3
F-0.055856604714285794
sba(innWeight
NNWeight
p290
(dp291
g3
F-0.02429298205405626
sba(innWeight
NNWeight
p292
(dp293
g3
F-0.010485920855172245
sba(innWeight
NNWeight
p294
(dp295
g3
F-0.00312508175394197
sba(innWeight
NNWeight
p296
(dp297
g3
F0.030158667823923846
sba(innWeight
NNWeight
p298
(dp299
g3
F0.030377893165901792
sba(innWeight
NNWeight
p300
(dp301
g3
F-0.04024620240703786
sba(innWeight
NNWeight
p302
(dp303
g3
F-0.0507231693212555
sba(innWeight
NNWeight
p304
(dp305
g3
F-0.021876656663654064
sba(innWeight
NNWeight
p306
(dp307
g3
F0.032739794882126194
sba(innWeight
NNWeight
p308
(dp309
g3
F0.051037712395479905
sba(innWeight
NNWeight
p310
(dp311
g3
F0.015885641787211514
sba(innWeight
NNWeight
p312
(dp313
g3
F0.023358481241847636
sba(innWeight
NNWeight
p314
(dp315
g3
F0.023562948710508354
sba(innWeight
NNWeight
p316
(dp317
g3
F-0.006934282703692571
sba(innWeight
NNWeight
p318
(dp319
g3
F0.045375723508436494
sba(innWeight
NNWeight
p320
(dp321
g3
F-0.05961075724229139
sba(innWeight
NNWeight
p322
(dp323
g3
F-0.021283526867191576
sba(innWeight
NNWeight
p324
(dp325
g3
F0.0523914782204416
sba(innWeight
NNWeight
p326
(dp327
g3
F-0.06421071284180602
sba(innWeight
NNWeight
p328
(dp329
g3
F-0.029866508122339992
sba(innWeight
NNWeight
p330
(dp331
g3
F-0.034356932724796056
sba(innWeight
NNWeight
p332
(dp333
g3
F-0.02790629841635102
sba(innWeight
NNWeight
p334
(dp335
g3
F-0.05728008578113192
sba(innWeight
NNWeight
p336
(dp337
g3
F-0.04031521683075173
sba(innWeight
NNWeight
p338
(dp339
g3
F0.027820219409964646
sba(innWeight
NNWeight
p340
(dp341
g3
F0.011220239426833728
sba(innWeight
NNWeight
p342
(dp343
g3
F0.009306872906664392
sba(innWeight
NNWeight
p344
(dp345
g3
F0.005870279758123286
sba(innWeight
NNWeight
p346
(dp347
g3
F0.0350351630570847
sba(innWeight
NNWeight
p348
(dp349
g3
F0.024221693731286423
sba(innWeight
NNWeight
p350
(dp351
g3
F0.003941031525226649
sba(innWeight
NNWeight
p352
(dp353
g3
F-0.015847321052286804
sba(innWeight
NNWeight
p354
(dp355
g3
F0.016637932369851345
sba(innWeight
NNWeight
p356
(dp357
g3
F-0.007423117177030973
sba(innWeight
NNWeight
p358
(dp359
g3
F-0.006199275438319658
sba(innWeight
NNWeight
p360
(dp361
g3
F0.04016019945833086
sba(innWeight
NNWeight
p362
(dp363
g3
F-0.02552519974569764
sba(innWeight
NNWeight
p364
(dp365
g3
F-0.01166161511380336
sba(innWeight
NNWeight
p366
(dp367
g3
F-0.051416261951433076
sba(innWeight
NNWeight
p368
(dp369
g3
F0.031345240274041924
sba(innWeight
NNWeight
p370
(dp371
g3
F0.03766233288390102
sba(innWeight
NNWeight
p372
(dp373
g3
F-0.03106006869588789
sba(innWeight
NNWeight
p374
(dp375
g3
F-0.0024102440593098237
sba(innWeight
NNWeight
p376
(dp377
g3
F-0.053718013552009516
sba(innWeight
NNWeight
p378
(dp379
g3
F0.03044487249299418
sba(innWeight
NNWeight
p380
(dp381
g3
F0.02599204049654494
sba(innWeight
NNWeight
p382
(dp383
g3
F0.011253051270933824
sba(innWeight
NNWeight
p384
(dp385
g3
F-0.05093532008763618
sba(innWeight
NNWeight
p386
(dp387
g3
F0.04038299431463442
sba(innWeight
NNWeight
p388
(dp389
g3
F0.03539044195273576
sba(innWeight
NNWeight
p390
(dp391
g3
F0.031825026011112395
sba(innWeight
NNWeight
p392
(dp393
g3
F-0.0195128744759309
sba(innWeight
NNWeight
p394
(dp395
g3
F-0.016986837827440194
sba(innWeight
NNWeight
p396
(dp397
g3
F-0.03306390999316487
sba(innWeight
NNWeight
p398
(dp399
g3
F0.055781419428727365
sba(innWeight
NNWeight
p400
(dp401
g3
F0.009508023020206074
sba(innWeight
NNWeight
p402
(dp403
g3
F0.020064232483983497
sba(innWeight
NNWeight
p404
(dp405
g3
F-0.026370837223444264
sba(innWeight
NNWeight
p406
(dp407
g3
F-0.05758240592379676
sba(innWeight
NNWeight
p408
(dp409
g3
F0.005382876726757992
sba(innWeight
NNWeight
p410
(dp411
g3
F-0.04562893520799554
sba(innWeight
NNWeight
p412
(dp413
g3
F-0.007367278523327191
sba(innWeight
NNWeight
p414
(dp415
g3
F-0.05146147772356022
sba(innWeight
NNWeight
p416
(dp417
g3
F0.033445187906166046
sba(innWeight
NNWeight
p418
(dp419
g3
F-0.041301870921614844
sba(innWeight
NNWeight
p420
(dp421
g3
F-0.05096075162297978
sba(innWeight
NNWeight
p422
(dp423
g3
F-0.001238124723562853
sba(innWeight
NNWeight
p424
(dp425
g3
F0.012929587342617118
sba(innWeight
NNWeight
p426
(dp427
g3
F0.04596141505949738
sba(innWeight
NNWeight
p428
(dp429
g3
F0.017566515653738766
sba(innWeight
NNWeight
p430
(dp431
g3
F-0.03459986785566733
sba(innWeight
NNWeight
p432
(dp433
g3
F0.04332656065037377
sba(innWeight
NNWeight
p434
(dp435
g3
F0.04755217401142165
sba(innWeight
NNWeight
p436
(dp437
g3
F-0.01619580089289108
sba(innWeight
NNWeight
p438
(dp439
g3
F0.04384943122779473
sba(innWeight
NNWeight
p440
(dp441
g3
F0.008845636835361822
sba(innWeight
NNWeight
p442
(dp443
g3
F-0.01225456876509509
sba(innWeight
NNWeight
p444
(dp445
g3
F0.014657646303017323
sba(innWeight
NNWeight
p446
(dp447
g3
F0.01460648195373405
sba(innWeight
NNWeight
p448
(dp449
g3
F-0.011028485860242663
sba(innWeight
NNWeight
p450
(dp451
g3
F0.05213470543479085
sba(innWeight
NNWeight
p452
(dp453
g3
F-0.04607505203114288
sba(innWeight
NNWeight
p454
(dp455
g3
F-0.01788594057753372
sba(innWeight
NNWeight
p456
(dp457
g3
F0.027607591249146378
sba(innWeight
NNWeight
p458
(dp459
g3
F0.02790190136931503
sba(innWeight
NNWeight
p460
(dp461
g3
F-0.0103189063056659
sba(innWeight
NNWeight
p462
(dp463
g3
F0.03523700663543933
sba(innWeight
NNWeight
p464
(dp465
g3
F0.008752915329955117
sba(innWeight
NNWeight
p466
(dp467
g3
F-0.013250501180053513
sba(innWeight
NNWeight
p468
(dp469
g3
F0.02302225625565252
sba(innWeight
NNWeight
p470
(dp471
g3
F0.05086420978072868
sba(innWeight
NNWeight
p472
(dp473
g3
F-0.041154191246952805
sba(innWeight
NNWeight
p474
(dp475
g3
F-0.040027354711800585
sba(innWeight
NNWeight
p476
(dp477
g3
F0.02155515934211254
sba(innWeight
NNWeight
p478
(dp479
g3
F0.03231415394091858
sba(innWeight
NNWeight
p480
(dp481
g3
F-0.033760275154391006
sba(innWeight
NNWeight
p482
(dp483
g3
F0.011052593943904938
sba(innWeight
NNWeight
p484
(dp485
g3
F-0.03508379700240159
sba(innWeight
NNWeight
p486
(dp487
g3
F0.03565940620621298
sba(innWeight
NNWeight
p488
(dp489
g3
F0.0352232988379501
sba(innWeight
NNWeight
p490
(dp491
g3
F-0.023387666034950027
sba(innWeight
NNWeight
p492
(dp493
g3
F-0.044048208909485534
sba(innWeight
NNWeight
p494
(dp495
g3
F0.010757035454114577
sba(innWeight
NNWeight
p496
(dp497
g3
F0.04880664295559752
sba(innWeight
NNWeight
p498
(dp499
g3
F0.0472183111603323
sba(innWeight
NNWeight
p500
(dp501
g3
F0.014862191616141556
sba(innWeight
NNWeight
p502
(dp503
g3
F-0.016560549647444116
sba(innWeight
NNWeight
p504
(dp505
g3
F-0.06452646121406759
sba(innWeight
NNWeight
p506
(dp507
g3
F-0.016990460613435364
sba(innWeight
NNWeight
p508
(dp509
g3
F-0.010696520411120269
sba(innWeight
NNWeight
p510
(dp511
g3
F0.017397123546500484
sba(innWeight
NNWeight
p512
(dp513
g3
F-0.013502044918145327
sba(innWeight
NNWeight
p514
(dp515
g3
F0.030209599843663955
sba(innWeight
NNWeight
p516
(dp517
g3
F0.03232600364821869
sba(innWeight
NNWeight
p518
(dp519
g3
F0.03246398341119155
sba(innWeight
NNWeight
p520
(dp521
g3
F0.009139030066268553
sba(innWeight
NNWeight
p522
(dp523
g3
F0.025523780813406276
sba(innWeight
NNWeight
p524
(dp525
g3
F0.04343422885101254
sba(innWeight
NNWeight
p526
(dp527
g3
F0.03530421309933146
sba(innWeight
NNWeight
p528
(dp529
g3
F-0.04500071015932497
sba(innWeight
NNWeight
p530
(dp531
g3
F-0.021777206583284695
sba(innWeight
NNWeight
p532
(dp533
g3
F-0.041782528521527744
sba(innWeight
NNWeight
p534
(dp535
g3
F-0.035217384341358335
sba(innWeight
NNWeight
p536
(dp537
g3
F-0.053833998273723045
sba(innWeight
NNWeight
p538
(dp539
g3
F0.02577451797138123
sba(innWeight
NNWeight
p540
(dp541
g3
F-0.010780459014156077
sba(innWeight
NNWeight
p542
(dp543
g3
F-0.011641078232665279
sba(innWeight
NNWeight
p544
(dp545
g3
F-0.011128059930312099
sba(innWeight
NNWeight
p546
(dp547
g3
F0.0039131665987492395
sba(innWeight
NNWeight
p548
(dp549
g3
F0.019246517840796402
sba(innWeight
NNWeight
p550
(dp551
g3
F-0.012641948992504986
sba(innWeight
NNWeight
p552
(dp553
g3
F-0.03746726357983537
sba(innWeight
NNWeight
p554
(dp555
g3
F-0.021941125759394064
sba(innWeight
NNWeight
p556
(dp557
g3
F-0.021651954907659445
sba(innWeight
NNWeight
p558
(dp559
g3
F0.027877908254026064
sba(innWeight
NNWeight
p560
(dp561
g3
F-0.04298465246777974
sba(innWeight
NNWeight
p562
(dp563
g3
F-0.04185006393804493
sba(innWeight
NNWeight
p564
(dp565
g3
F0.04244244006551852
sba(innWeight
NNWeight
p566
(dp567
g3
F0.006605912444401657
sba(innWeight
NNWeight
p568
(dp569
g3
F0.0070601453830416595
sba(innWeight
NNWeight
p570
(dp571
g3
F-0.017958405487055854
sba(innWeight
NNWeight
p572
(dp573
g3
F0.01453154942606937
sba(innWeight
NNWeight
p574
(dp575
g3
F0.04573017145764736
sba(innWeight
NNWeight
p576
(dp577
g3
F0.016746752111143886
sba(innWeight
NNWeight
p578
(dp579
g3
F-0.008619770643998676
sba(innWeight
NNWeight
p580
(dp581
g3
F0.031876541534680655
sba(innWeight
NNWeight
p582
(dp583
g3
F0.014279135991795458
sba(innWeight
NNWeight
p584
(dp585
g3
F-0.024600252457089536
sba(innWeight
NNWeight
p586
(dp587
g3
F-0.047692448705335844
sba(innWeight
NNWeight
p588
(dp589
g3
F0.0264510608740038
sba(innWeight
NNWeight
p590
(dp591
g3
F-0.029751387738271146
sba(innWeight
NNWeight
p592
(dp593
g3
F-0.03481071504001392
sba(innWeight
NNWeight
p594
(dp595
g3
F-0.010202167331027932
sba(innWeight
NNWeight
p596
(dp597
g3
F-0.040243023499712365
sba(innWeight
NNWeight
p598
(dp599
g3
F0.01430570015400666
sba(innWeight
NNWeight
p600
(dp601
g3
F0.039293094955845376
sba(innWeight
NNWeight
p602
(dp603
g3
F0.03771631393975192
sba(innWeight
NNWeight
p604
(dp605
g3
F0.03165354413937635
sba(innWeight
NNWeight
p606
(dp607
g3
F-0.04534922142616302
sba(innWeight
NNWeight
p608
(dp609
g3
F-0.03493856430623612
sba(innWeight
NNWeight
p610
(dp611
g3
F0.04026672382029766
sba(innWeight
NNWeight
p612
(dp613
g3
F-0.034635661868759486
sba(innWeight
NNWeight
p614
(dp615
g3
F0.009727065958010378
sba(innWeight
NNWeight
p616
(dp617
g3
F0.036333848553756126
sba(innWeight
NNWeight
p618
(dp619
g3
F-0.02680579917759642
sba(innWeight
NNWeight
p620
(dp621
g3
F-0.04609604548131881
sba(innWeight
NNWeight
p622
(dp623
g3
F0.013714467660774651
sba(innWeight
NNWeight
p624
(dp625
g3
F-0.0408425302586104
sba(innWeight
NNWeight
p626
(dp627
g3
F-0.0057307281554886
sba(innWeight
NNWeight
p628
(dp629
g3
F0.023143130801102748
sba(innWeight
NNWeight
p630
(dp631
g3
F-0.008048731922902234
sba(innWeight
NNWeight
p632
(dp633
g3
F-0.03354309683959932
sba(innWeight
NNWeight
p634
(dp635
g3
F0.029453913117093472
sba(innWeight
NNWeight
p636
(dp637
g3
F0.055309692363137736
sba(innWeight
NNWeight
p638
(dp639
g3
F-0.03391239836282858
sba(innWeight
NNWeight
p640
(dp641
g3
F-0.019512834338342225
sba(innWeight
NNWeight
p642
(dp643
g3
F0.0064400570113968564
sba(innWeight
NNWeight
p644
(dp645
g3
F0.011835397189609331
sba(innWeight
NNWeight
p646
(dp647
g3
F-0.0318088858722303
sba(innWeight
NNWeight
p648
(dp649
g3
F0.01418285300524276
sba(innWeight
NNWeight
p650
(dp651
g3
F0.05041180781563452
sba(innWeight
NNWeight
p652
(dp653
g3
F-0.01972753790080026
sba(innWeight
NNWeight
p654
(dp655
g3
F0.024379262168403585
sba(innWeight
NNWeight
p656
(dp657
g3
F-0.025836966791574094
sba(innWeight
NNWeight
p658
(dp659
g3
F-0.00990591662498695
sba(innWeight
NNWeight
p660
(dp661
g3
F0.03611948503116205
sba(innWeight
NNWeight
p662
(dp663
g3
F-0.033820528874363334
sba(innWeight
NNWeight
p664
(dp665
g3
F-0.029076659747914464
sba(innWeight
NNWeight
p666
(dp667
g3
F-0.03113851399459297
sba(innWeight
NNWeight
p668
(dp669
g3
F-0.002639439120898386
sba(innWeight
NNWeight
p670
(dp671
g3
F-0.01724718675748963
sba(innWeight
NNWeight
p672
(dp673
g3
F0.007754378663340642
sba(innWeight
NNWeight
p674
(dp675
g3
F-0.017801938715803715
sba(innWeight
NNWeight
p676
(dp677
g3
F0.026162788972944887
sba(innWeight
NNWeight
p678
(dp679
g3
F0.03494755412623612
sba(innWeight
NNWeight
p680
(dp681
g3
F-0.058765705804018346
sba(innWeight
NNWeight
p682
(dp683
g3
F0.02027105020712554
sba(innWeight
NNWeight
p684
(dp685
g3
F-0.021532323646402143
sba(innWeight
NNWeight
p686
(dp687
g3
F0.0056653178542352915
sba(innWeight
NNWeight
p688
(dp689
g3
F-0.011472842774219266
sba(innWeight
NNWeight
p690
(dp691
g3
F0.022600677313215023
sba(innWeight
NNWeight
p692
(dp693
g3
F-0.037994565575163154
sba(innWeight
NNWeight
p694
(dp695
g3
F-0.024807106341089145
sba(innWeight
NNWeight
p696
(dp697
g3
F-0.03881020261825202
sba(innWeight
NNWeight
p698
(dp699
g3
F0.036343451700705534
sba(innWeight
NNWeight
p700
(dp701
g3
F-0.03351827229860903
sba(innWeight
NNWeight
p702
(dp703
g3
F-0.019187819907871453
sba(innWeight
NNWeight
p704
(dp705
g3
F0.015086120740737648
sba(innWeight
NNWeight
p706
(dp707
g3
F0.011048621464152834
sba(innWeight
NNWeight
p708
(dp709
g3
F-0.03138493445563511
sba(innWeight
NNWeight
p710
(dp711
g3
F0.03327571505460496
sba(innWeight
NNWeight
p712
(dp713
g3
F0.03361954348373987
sba(innWeight
NNWeight
p714
(dp715
g3
F-0.022177448460111906
sba(innWeight
NNWeight
p716
(dp717
g3
F-0.020887672972024637
sba(innWeight
NNWeight
p718
(dp719
g3
F-0.050595590902354444
sba(innWeight
NNWeight
p720
(dp721
g3
F0.005486984694629409
sba(innWeight
NNWeight
p722
(dp723
g3
F-0.04023177592803576
sba(innWeight
NNWeight
p724
(dp725
g3
F-0.04568885929682521
sba(innWeight
NNWeight
p726
(dp727
g3
F0.025132566867456168
sba(innWeight
NNWeight
p728
(dp729
g3
F0.03346269559029423
sba(innWeight
NNWeight
p730
(dp731
g3
F0.008926194677213083
sba(innWeight
NNWeight
p732
(dp733
g3
F-0.035870124124358624
sba(innWeight
NNWeight
p734
(dp735
g3
F-0.020651309602757184
sba(innWeight
NNWeight
p736
(dp737
g3
F0.013567100384834035
sba(innWeight
NNWeight
p738
(dp739
g3
F-0.026777903617536163
sba(innWeight
NNWeight
p740
(dp741
g3
F0.02845416868145723
sba(innWeight
NNWeight
p742
(dp743
g3
F0.01902543842959132
sba(innWeight
NNWeight
p744
(dp745
g3
F-0.028012556271333484
sba(innWeight
NNWeight
p746
(dp747
g3
F0.023498953806546968
sba(innWeight
NNWeight
p748
(dp749
g3
F-0.033688596609662946
sba(innWeight
NNWeight
p750
(dp751
g3
F-0.022022215539001494
sba(innWeight
NNWeight
p752
(dp753
g3
F-0.016119893879206936
sba(innWeight
NNWeight
p754
(dp755
g3
F0.026755442842084844
sba(innWeight
NNWeight
p756
(dp757
g3
F-0.05202709582588994
sba(innWeight
NNWeight
p758
(dp759
g3
F-0.03583207468245704
sba(innWeight
NNWeight
p760
(dp761
g3
F-0.045284101268408386
sba(innWeight
NNWeight
p762
(dp763
g3
F-0.012669949647183334
sba(innWeight
NNWeight
p764
(dp765
g3
F-0.030413638591893055
sba(innWeight
NNWeight
p766
(dp767
g3
F-0.017684266347785627
sba(innWeight
NNWeight
p768
(dp769
g3
F0.04632942541805666
sba(innWeight
NNWeight
p770
(dp771
g3
F0.0015092735621187246
sba(innWeight
NNWeight
p772
(dp773
g3
F-0.0011106611869057407
sba(innWeight
NNWeight
p774
(dp775
g3
F0.03776129400173637
sba(innWeight
NNWeight
p776
(dp777
g3
F-0.027796342695150134
sba(innWeight
NNWeight
p778
(dp779
g3
F-0.028926400616006688
sba(innWeight
NNWeight
p780
(dp781
g3
F0.03383967382186844
sba(innWeight
NNWeight
p782
(dp783
g3
F-0.019565450443966136
sba(innWeight
NNWeight
p784
(dp785
g3
F-0.01732409591766869
sba(innWeight
NNWeight
p786
(dp787
g3
F-0.0176034072217094
sba(innWeight
NNWeight
p788
(dp789
g3
F-0.007967516411593515
sba(innWeight
NNWeight
p790
(dp791
g3
F0.028311920911279154
sba(innWeight
NNWeight
p792
(dp793
g3
F0.0012705146675344064
sba(innWeight
NNWeight
p794
(dp795
g3
F0.0059309158628860666
sba(innWeight
NNWeight
p796
(dp797
g3
F0.019806038850255187
sba(innWeight
NNWeight
p798
(dp799
g3
F-0.001436660438194146
sba(innWeight
NNWeight
p800
(dp801
g3
F0.041997549047612805
sba(innWeight
NNWeight
p802
(dp803
g3
F0.06256566484511299
sba(innWeight
NNWeight
p804
(dp805
g3
F0.04590255424221971
sba(innWeight
NNWeight
p806
(dp807
g3
F0.019180744543066664
sba(innWeight
NNWeight
p808
(dp809
g3
F-0.032491173031592484
sba(innWeight
NNWeight
p810
(dp811
g3
F0.013771701936900561
sba(innWeight
NNWeight
p812
(dp813
g3
F-0.009130039932386052
sba(innWeight
NNWeight
p814
(dp815
g3
F-0.030629553190270487
sba(innWeight
NNWeight
p816
(dp817
g3
F-0.032084157082678935
sba(innWeight
NNWeight
p818
(dp819
g3
F0.013614074396952976
sba(innWeight
NNWeight
p820
(dp821
g3
F-0.033767775110284975
sba(innWeight
NNWeight
p822
(dp823
g3
F0.022243028941612467
sba(innWeight
NNWeight
p824
(dp825
g3
F-0.058645101319801704
sba(innWeight
NNWeight
p826
(dp827
g3
F-0.04008711812433186
sba(innWeight
NNWeight
p828
(dp829
g3
F0.03808463956023117
sba(innWeight
NNWeight
p830
(dp831
g3
F-0.027220573006955198
sba(innWeight
NNWeight
p832
(dp833
g3
F-0.03813952995654145
sba(innWeight
NNWeight
p834
(dp835
g3
F-0.042444746180562404
sba(innWeight
NNWeight
p836
(dp837
g3
F-0.0472978072613811
sba(innWeight
NNWeight
p838
(dp839
g3
F0.014113529707111567
sba(innWeight
NNWeight
p840
(dp841
g3
F-0.03187534548580104
sba(innWeight
NNWeight
p842
(dp843
g3
F0.0373822935156265
sba(innWeight
NNWeight
p844
(dp845
g3
F-0.00913173422413374
sba(innWeight
NNWeight
p846
(dp847
g3
F-0.034400746127133605
sba(innWeight
NNWeight
p848
(dp849
g3
F-0.04808770293754522
sba(innWeight
NNWeight
p850
(dp851
g3
F-0.021266247250897947
sba(innWeight
NNWeight
p852
(dp853
g3
F0.015473871549054294
sba(innWeight
NNWeight
p854
(dp855
g3
F-0.02882424399895064
sba(innWeight
NNWeight
p856
(dp857
g3
F-0.03650680331005758
sba(innWeight
NNWeight
p858
(dp859
g3
F0.022588688449296356
sba(innWeight
NNWeight
p860
(dp861
g3
F-0.025868991157691503
sba(innWeight
NNWeight
p862
(dp863
g3
F-0.033373718792588034
sba(innWeight
NNWeight
p864
(dp865
g3
F-0.05209478331523793
sba(innWeight
NNWeight
p866
(dp867
g3
F0.012325027332334608
sba(innWeight
NNWeight
p868
(dp869
g3
F0.016182969634541678
sba(innWeight
NNWeight
p870
(dp871
g3
F0.016927564510824344
sba(innWeight
NNWeight
p872
(dp873
g3
F0.0192782965454586
sba(innWeight
NNWeight
p874
(dp875
g3
F0.0454759553178218
sba(innWeight
NNWeight
p876
(dp877
g3
F0.0458797789645826
sba(innWeight
NNWeight
p878
(dp879
g3
F0.04909684758808635
sba(innWeight
NNWeight
p880
(dp881
g3
F0.007165441740148262
sba(innWeight
NNWeight
p882
(dp883
g3
F0.0002446308705088921
sba(innWeight
NNWeight
p884
(dp885
g3
F-0.034953586280831596
sba(innWeight
NNWeight
p886
(dp887
g3
F-0.05175437042036463
sba(innWeight
NNWeight
p888
(dp889
g3
F0.009365082000031007
sba(innWeight
NNWeight
p890
(dp891
g3
F-0.04931201664021654
sba(innWeight
NNWeight
p892
(dp893
g3
F0.0025556568471352707
sba(innWeight
NNWeight
p894
(dp895
g3
F0.026795676251148957
sba(innWeight
NNWeight
p896
(dp897
g3
F0.003151940031168908
sba(innWeight
NNWeight
p898
(dp899
g3
F-0.04428977348253113
sba(innWeight
NNWeight
p900
(dp901
g3
F-0.009422191431542801
sba(innWeight
NNWeight
p902
(dp903
g3
F0.04674155225459175
sba(innWeight
NNWeight
p904
(dp905
g3
F0.0385239051296619
sba(innWeight
NNWeight
p906
(dp907
g3
F0.017976227073532747
sba(innWeight
NNWeight
p908
(dp909
g3
F-0.03565313010593322
sba(innWeight
NNWeight
p910
(dp911
g3
F0.03440330331105502
sba(innWeight
NNWeight
p912
(dp913
g3
F-0.0272096552020246
sba(innWeight
NNWeight
p914
(dp915
g3
F0.03843444575149586
sba(innWeight
NNWeight
p916
(dp917
g3
F-0.006431057045557802
sba(innWeight
NNWeight
p918
(dp919
g3
F-0.03266475474650791
sba(innWeight
NNWeight
p920
(dp921
g3
F0.01992990758661274
sba(innWeight
NNWeight
p922
(dp923
g3
F-0.028971108704978737
sba(innWeight
NNWeight
p924
(dp925
g3
F0.004714268641981923
sba(innWeight
NNWeight
p926
(dp927
g3
F-0.0198490105563008
sba(innWeight
NNWeight
p928
(dp929
g3
F0.009767078821286891
sba(innWeight
NNWeight
p930
(dp931
g3
F0.027541283763616434
sba(innWeight
NNWeight
p932
(dp933
g3
F-0.053110705965679184
sba(innWeight
NNWeight
p934
(dp935
g3
F0.00672229858785387
sba(innWeight
NNWeight
p936
(dp937
g3
F-0.009912487473627744
sba(innWeight
NNWeight
p938
(dp939
g3
F0.015704333470632596
sba(innWeight
NNWeight
p940
(dp941
g3
F-0.05910333502634486
sba(innWeight
NNWeight
p942
(dp943
g3
F0.038539875982182135
sba(innWeight
NNWeight
p944
(dp945
g3
F0.044981745342132014
sba(innWeight
NNWeight
p946
(dp947
g3
F-0.0414716201230371
sba(innWeight
NNWeight
p948
(dp949
g3
F-0.013653930002706082
sba(innWeight
NNWeight
p950
(dp951
g3
F-0.030236051615158726
sba(innWeight
NNWeight
p952
(dp953
g3
F0.01996302752770616
sba(innWeight
NNWeight
p954
(dp955
g3
F0.03719274787559554
sba(innWeight
NNWeight
p956
(dp957
g3
F-0.0038902007398385592
sba(innWeight
NNWeight
p958
(dp959
g3
F-0.003658844686037142
sba(innWeight
NNWeight
p960
(dp961
g3
F-0.02971354980509001
sba(innWeight
NNWeight
p962
(dp963
g3
F0.012673770521617516
sba(innWeight
NNWeight
p964
(dp965
g3
F-0.03571114967475058
sba(innWeight
NNWeight
p966
(dp967
g3
F-0.044260728972642584
sba(innWeight
NNWeight
p968
(dp969
g3
F0.01887169878056111
sba(innWeight
NNWeight
p970
(dp971
g3
F0.034066367821854175
sba(innWeight
NNWeight
p972
(dp973
g3
F-0.044317467613637786
sba(innWeight
NNWeight
p974
(dp975
g3
F0.03303716642758303
sba(innWeight
NNWeight
p976
(dp977
g3
F0.025112470290851466
sba(innWeight
NNWeight
p978
(dp979
g3
F0.04674627912066039
sba(innWeight
NNWeight
p980
(dp981
g3
F-0.026829417624222886
sba(innWeight
NNWeight
p982
(dp983
g3
F-0.02264811628151508
sba(innWeight
NNWeight
p984
(dp985
g3
F0.046610899651646415
sba(innWeight
NNWeight
p986
(dp987
g3
F0.027758596808672854
sba(innWeight
NNWeight
p988
(dp989
g3
F0.003908309675495595
sba(innWeight
NNWeight
p990
(dp991
g3
F0.02492683566341141
sba(innWeight
NNWeight
p992
(dp993
g3
F0.004685790951140968
sba(innWeight
NNWeight
p994
(dp995
g3
F0.04837192454933004
sba(innWeight
NNWeight
p996
(dp997
g3
F-0.04517236802026972
sba(innWeight
NNWeight
p998
(dp999
g3
F-0.022495400385111
sba(innWeight
NNWeight
p1000
(dp1001
g3
F-0.03356541769578382
sba(innWeight
NNWeight
p1002
(dp1003
g3
F0.0038920350553130817
sba(innWeight
NNWeight
p1004
(dp1005
g3
F0.03369809612849352
sba(innWeight
NNWeight
p1006
(dp1007
g3
F0.02408150038497041
sba(innWeight
NNWeight
p1008
(dp1009
g3
F-0.04721687423482854
sba(innWeight
NNWeight
p1010
(dp1011
g3
F0.008540830467236018
sba(innWeight
NNWeight
p1012
(dp1013
g3
F-0.050727569990888316
sba(innWeight
NNWeight
p1014
(dp1015
g3
F-0.002261036732039764
sba(innWeight
NNWeight
p1016
(dp1017
g3
F0.0398440258581798
sba(innWeight
NNWeight
p1018
(dp1019
g3
F-0.047262123833834234
sba(innWeight
NNWeight
p1020
(dp1021
g3
F-0.005205697058312775
sba(innWeight
NNWeight
p1022
(dp1023
g3
F-0.028656009201616116
sba(innWeight
NNWeight
p1024
(dp1025
g3
F-0.029144162135847595
sba(innWeight
NNWeight
p1026
(dp1027
g3
F0.012813431310194847
sba(innWeight
NNWeight
p1028
(dp1029
g3
F-0.05677453570739537
sba(innWeight
NNWeight
p1030
(dp1031
g3
F-0.05065582486701341
sba(innWeight
NNWeight
p1032
(dp1033
g3
F0.05151475958900743
sba(innWeight
NNWeight
p1034
(dp1035
g3
F-0.01843721789887925
sba(innWeight
NNWeight
p1036
(dp1037
g3
F-0.02713241953887408
sba(innWeight
NNWeight
p1038
(dp1039
g3
F0.027600315308436235
sba(innWeight
NNWeight
p1040
(dp1041
g3
F0.053824073712292954
sba(innWeight
NNWeight
p1042
(dp1043
g3
F-0.032009017803333484
sba(innWeight
NNWeight
p1044
(dp1045
g3
F0.01896174734933535
sba(innWeight
NNWeight
p1046
(dp1047
g3
F0.025824933450959695
sba(innWeight
NNWeight
p1048
(dp1049
g3
F-0.028843206184781495
sba(innWeight
NNWeight
p1050
(dp1051
g3
F-0.033389868487220864
sba(innWeight
NNWeight
p1052
(dp1053
g3
F-0.001078992067867726
sba(innWeight
NNWeight
p1054
(dp1055
g3
F0.008666063795457268
sba(innWeight
NNWeight
p1056
(dp1057
g3
F-0.02101992513334061
sba(innWeight
NNWeight
p1058
(dp1059
g3
F-0.018024120282960715
sba(innWeight
NNWeight
p1060
(dp1061
g3
F-0.033000571950883115
sba(innWeight
NNWeight
p1062
(dp1063
g3
F-0.02121583701296012
sba(innWeight
NNWeight
p1064
(dp1065
g3
F-0.05052698400908495
sba(innWeight
NNWeight
p1066
(dp1067
g3
F-0.04419128693531098
sba(innWeight
NNWeight
p1068
(dp1069
g3
F0.014569231604819466
sba(innWeight
NNWeight
p1070
(dp1071
g3
F-0.0381729568427587
sba(innWeight
NNWeight
p1072
(dp1073
g3
F0.007165433604298013
sba(innWeight
NNWeight
p1074
(dp1075
g3
F0.018342382804583772
sba(innWeight
NNWeight
p1076
(dp1077
g3
F0.05089336653148737
sba(innWeight
NNWeight
p1078
(dp1079
g3
F-0.020247447978575105
sba(innWeight
NNWeight
p1080
(dp1081
g3
F-0.018582380757663323
sba(innWeight
NNWeight
p1082
(dp1083
g3
F-0.04252249378819743
sba(innWeight
NNWeight
p1084
(dp1085
g3
F-0.06058293027755781
sba(innWeight
NNWeight
p1086
(dp1087
g3
F0.005453259369198678
sba(innWeight
NNWeight
p1088
(dp1089
g3
F-0.007252006902971451
sba(innWeight
NNWeight
p1090
(dp1091
g3
F-0.042175777629384466
sba(innWeight
NNWeight
p1092
(dp1093
g3
F0.030154538379796137
sba(innWeight
NNWeight
p1094
(dp1095
g3
F-0.02834514875937841
sba(innWeight
NNWeight
p1096
(dp1097
g3
F-0.055005805023175876
sba(innWeight
NNWeight
p1098
(dp1099
g3
F-0.020000685592815495
sba(innWeight
NNWeight
p1100
(dp1101
g3
F-0.02666415533519633
sba(innWeight
NNWeight
p1102
(dp1103
g3
F-0.023399254038662796
sba(innWeight
NNWeight
p1104
(dp1105
g3
F0.045599599800916546
sba(innWeight
NNWeight
p1106
(dp1107
g3
F-0.026506166677224653
sba(innWeight
NNWeight
p1108
(dp1109
g3
F-0.013404629435261486
sba(innWeight
NNWeight
p1110
(dp1111
g3
F-0.021762952906104402
sba(innWeight
NNWeight
p1112
(dp1113
g3
F-0.029280950422415485
sba(innWeight
NNWeight
p1114
(dp1115
g3
F0.019237987557301484
sba(innWeight
NNWeight
p1116
(dp1117
g3
F-0.01794916007913508
sba(innWeight
NNWeight
p1118
(dp1119
g3
F0.017446144189671112
sba(innWeight
NNWeight
p1120
(dp1121
g3
F-0.017053802215762172
sba(innWeight
NNWeight
p1122
(dp1123
g3
F-0.02018447197751185
sba(innWeight
NNWeight
p1124
(dp1125
g3
F-0.0410286073747943
sba(innWeight
NNWeight
p1126
(dp1127
g3
F-0.019276189260458747
sba(innWeight
NNWeight
p1128
(dp1129
g3
F-0.018536587084021023
sba(innWeight
NNWeight
p1130
(dp1131
g3
F-0.005107027852278279
sba(innWeight
NNWeight
p1132
(dp1133
g3
F-0.007200176005056812
sba(innWeight
NNWeight
p1134
(dp1135
g3
F-0.0621418386009794
sba(innWeight
NNWeight
p1136
(dp1137
g3
F0.013332378976480097
sba(innWeight
NNWeight
p1138
(dp1139
g3
F-0.05598597065751797
sba(innWeight
NNWeight
p1140
(dp1141
g3
F-0.011544746518555951
sba(innWeight
NNWeight
p1142
(dp1143
g3
F0.026829169508679154
sba(innWeight
NNWeight
p1144
(dp1145
g3
F0.03509925174204725
sba(innWeight
NNWeight
p1146
(dp1147
g3
F-0.031005290240176335
sba(innWeight
NNWeight
p1148
(dp1149
g3
F-0.05495074088531242
sba(innWeight
NNWeight
p1150
(dp1151
g3
F-0.020403545692596718
sba(innWeight
NNWeight
p1152
(dp1153
g3
F-0.03534406620950577
sba(innWeight
NNWeight
p1154
(dp1155
g3
F-0.011634068352371813
sba(innWeight
NNWeight
p1156
(dp1157
g3
F-0.03811508598269853
sba(innWeight
NNWeight
p1158
(dp1159
g3
F0.04211102137318618
sba(innWeight
NNWeight
p1160
(dp1161
g3
F-0.0323030132070976
sba(innWeight
NNWeight
p1162
(dp1163
g3
F0.0016241249025465618
sba(innWeight
NNWeight
p1164
(dp1165
g3
F0.036611301735316626
sba(innWeight
NNWeight
p1166
(dp1167
g3
F-0.01299310014638981
sba(innWeight
NNWeight
p1168
(dp1169
g3
F0.047745728307109554
sba(innWeight
NNWeight
p1170
(dp1171
g3
F0.04068987310543632
sba(innWeight
NNWeight
p1172
(dp1173
g3
F0.027298940699125862
sba(innWeight
NNWeight
p1174
(dp1175
g3
F0.0007096049172562495
sba(innWeight
NNWeight
p1176
(dp1177
g3
F0.025539657798101845
sba(innWeight
NNWeight
p1178
(dp1179
g3
F0.05006322896350241
sba(innWeight
NNWeight
p1180
(dp1181
g3
F0.012319263017507825
sba(innWeight
NNWeight
p1182
(dp1183
g3
F-0.02301564490259816
sba(innWeight
NNWeight
p1184
(dp1185
g3
F-0.018081940088897103
sba(innWeight
NNWeight
p1186
(dp1187
g3
F0.004768255100271952
sba(innWeight
NNWeight
p1188
(dp1189
g3
F0.004543202115150269
sba(innWeight
NNWeight
p1190
(dp1191
g3
F0.029507310023122346
sba(innWeight
NNWeight
p1192
(dp1193
g3
F0.028316468260570722
sba(innWeight
NNWeight
p1194
(dp1195
g3
F-0.036503908376020626
sba(innWeight
NNWeight
p1196
(dp1197
g3
F-0.013909891324392932
sba(innWeight
NNWeight
p1198
(dp1199
g3
F0.02770323476317379
sba(innWeight
NNWeight
p1200
(dp1201
g3
F-0.03779195535482422
sba(innWeight
NNWeight
p1202
(dp1203
g3
F-0.03655745882617171
sba(innWeight
NNWeight
p1204
(dp1205
g3
F-0.014402897157985789
sba(innWeight
NNWeight
p1206
(dp1207
g3
F-0.013987842598022014
sba(innWeight
NNWeight
p1208
(dp1209
g3
F-0.04135036128273862
sba(innWeight
NNWeight
p1210
(dp1211
g3
F0.04425495243784538
sba(innWeight
NNWeight
p1212
(dp1213
g3
F0.03827685483515205
sba(innWeight
NNWeight
p1214
(dp1215
g3
F-0.012048160665479172
sba(innWeight
NNWeight
p1216
(dp1217
g3
F0.007659708270387254
sba(innWeight
NNWeight
p1218
(dp1219
g3
F0.007921211714647014
sba(innWeight
NNWeight
p1220
(dp1221
g3
F0.0036671331791506222
sba(innWeight
NNWeight
p1222
(dp1223
g3
F0.030358429910305584
sba(innWeight
NNWeight
p1224
(dp1225
g3
F0.04180558910645442
sba(innWeight
NNWeight
p1226
(dp1227
g3
F0.02665383709739904
sba(innWeight
NNWeight
p1228
(dp1229
g3
F0.04062961764844703
sba(innWeight
NNWeight
p1230
(dp1231
g3
F0.022712208661339443
sba(innWeight
NNWeight
p1232
(dp1233
g3
F0.00971961331851419
sba(innWeight
NNWeight
p1234
(dp1235
g3
F-0.026855016741148995
sba(innWeight
NNWeight
p1236
(dp1237
g3
F0.04155210741622399
sba(innWeight
NNWeight
p1238
(dp1239
g3
F-0.037911430423038385
sba(innWeight
NNWeight
p1240
(dp1241
g3
F0.03361748536375757
sba(innWeight
NNWeight
p1242
(dp1243
g3
F-0.017116228465230733
sba(innWeight
NNWeight
p1244
(dp1245
g3
F-0.023804845522065153
sba(innWeight
NNWeight
p1246
(dp1247
g3
F-0.009819185109117737
sba(innWeight
NNWeight
p1248
(dp1249
g3
F0.05442992498632921
sba(innWeight
NNWeight
p1250
(dp1251
g3
F0.02870364055143466
sba(innWeight
NNWeight
p1252
(dp1253
g3
F0.042019254035364814
sba(innWeight
NNWeight
p1254
(dp1255
g3
F0.04596074471492201
sba(innWeight
NNWeight
p1256
(dp1257
g3
F-0.004886161494651238
sba(innWeight
NNWeight
p1258
(dp1259
g3
F0.01474470567258623
sba(innWeight
NNWeight
p1260
(dp1261
g3
F0.012409925509000708
sba(innWeight
NNWeight
p1262
(dp1263
g3
F-0.011781418035343619
sba(innWeight
NNWeight
p1264
(dp1265
g3
F-0.02163009702787902
sba(innWeight
NNWeight
p1266
(dp1267
g3
F-0.04332358406263472
sba(innWeight
NNWeight
p1268
(dp1269
g3
F-0.04052199834010705
sba(innWeight
NNWeight
p1270
(dp1271
g3
F-0.04863208326589795
sba(innWeight
NNWeight
p1272
(dp1273
g3
F0.025322952266495415
sba(innWeight
NNWeight
p1274
(dp1275
g3
F-0.053243817936441326
sba(innWeight
NNWeight
p1276
(dp1277
g3
F0.019125971905327752
sba(innWeight
NNWeight
p1278
(dp1279
g3
F-0.012669217968690766
sba(innWeight
NNWeight
p1280
(dp1281
g3
F0.01538164177348703
sba(innWeight
NNWeight
p1282
(dp1283
g3
F0.030409990987066066
sba(innWeight
NNWeight
p1284
(dp1285
g3
F-0.042674905511989485
sba(innWeight
NNWeight
p1286
(dp1287
g3
F-0.036702369781091156
sba(innWeight
NNWeight
p1288
(dp1289
g3
F0.023150136086018524
sba(innWeight
NNWeight
p1290
(dp1291
g3
F0.03168107747019771
sba(innWeight
NNWeight
p1292
(dp1293
g3
F-0.018355586246575035
sba(innWeight
NNWeight
p1294
(dp1295
g3
F0.022956224304981662
sba(innWeight
NNWeight
p1296
(dp1297
g3
F0.03243677215121006
sba(innWeight
NNWeight
p1298
(dp1299
g3
F-0.020806088361851195
sba(innWeight
NNWeight
p1300
(dp1301
g3
F-0.031992636341079884
sba(innWeight
NNWeight
p1302
(dp1303
g3
F-0.003056232065731495
sba(innWeight
NNWeight
p1304
(dp1305
g3
F0.04109409436876554
sba(innWeight
NNWeight
p1306
(dp1307
g3
F0.006024292419757698
sba(innWeight
NNWeight
p1308
(dp1309
g3
F-0.03825588754694925
sba(innWeight
NNWeight
p1310
(dp1311
g3
F-0.03656546830396644
sba(innWeight
NNWeight
p1312
(dp1313
g3
F0.010388353281633947
sba(innWeight
NNWeight
p1314
(dp1315
g3
F-0.05549635815981039
sba(innWeight
NNWeight
p1316
(dp1317
g3
F0.032672532259839
sba(innWeight
NNWeight
p1318
(dp1319
g3
F-0.02927563047656088
sba(innWeight
NNWeight
p1320
(dp1321
g3
F0.010633546570994497
sba(innWeight
NNWeight
p1322
(dp1323
g3
F-0.0366833936912715
sba(innWeight
NNWeight
p1324
(dp1325
g3
F0.025595798188444135
sba(innWeight
NNWeight
p1326
(dp1327
g3
F-0.016226719005585522
sba(innWeight
NNWeight
p1328
(dp1329
g3
F0.006385760895560169
sba(innWeight
NNWeight
p1330
(dp1331
g3
F-0.030283019373592988
sba(innWeight
NNWeight
p1332
(dp1333
g3
F-0.0421118097243328
sba(innWeight
NNWeight
p1334
(dp1335
g3
F0.04541935757504225
sba(innWeight
NNWeight
p1336
(dp1337
g3
F-0.053815087975402486
sba(innWeight
NNWeight
p1338
(dp1339
g3
F-0.03582261688763946
sba(innWeight
NNWeight
p1340
(dp1341
g3
F-0.03577077020653336
sba(innWeight
NNWeight
p1342
(dp1343
g3
F-0.01387475908642311
sba(innWeight
NNWeight
p1344
(dp1345
g3
F-0.05050479882758594
sba(innWeight
NNWeight
p1346
(dp1347
g3
F-0.013432327893040018
sba(innWeight
NNWeight
p1348
(dp1349
g3
F0.021837038014322914
sba(innWeight
NNWeight
p1350
(dp1351
g3
F-0.039308194694846185
sba(innWeight
NNWeight
p1352
(dp1353
g3
F0.02496182443112347
sba(innWeight
NNWeight
p1354
(dp1355
g3
F0.0196367964930033
sba(innWeight
NNWeight
p1356
(dp1357
g3
F-0.012757508896508195
sba(innWeight
NNWeight
p1358
(dp1359
g3
F-0.037285917262755194
sba(innWeight
NNWeight
p1360
(dp1361
g3
F-0.011334030559124785
sba(innWeight
NNWeight
p1362
(dp1363
g3
F-0.04216474388363511
sba(innWeight
NNWeight
p1364
(dp1365
g3
F0.017548288043853524
sba(innWeight
NNWeight
p1366
(dp1367
g3
F0.02965162833044887
sba(innWeight
NNWeight
p1368
(dp1369
g3
F0.031038318713073748
sba(innWeight
NNWeight
p1370
(dp1371
g3
F-0.03658834198812244
sba(innWeight
NNWeight
p1372
(dp1373
g3
F0.03949341113239012
sba(innWeight
NNWeight
p1374
(dp1375
g3
F0.026667978451477108
sba(innWeight
NNWeight
p1376
(dp1377
g3
F0.013849696056724958
sba(innWeight
NNWeight
p1378
(dp1379
g3
F0.011725718355525199
sba(innWeight
NNWeight
p1380
(dp1381
g3
F-0.04199267412622136
sba(innWeight
NNWeight
p1382
(dp1383
g3
F0.044977545691719724
sba(innWeight
NNWeight
p1384
(dp1385
g3
F0.0452118513541377
sba(innWeight
NNWeight
p1386
(dp1387
g3
F-0.03857531904608597
sba(innWeight
NNWeight
p1388
(dp1389
g3
F-0.0025712681858093673
sba(innWeight
NNWeight
p1390
(dp1391
g3
F-0.030560381523259565
sba(innWeight
NNWeight
p1392
(dp1393
g3
F-0.010194855597926045
sba(innWeight
NNWeight
p1394
(dp1395
g3
F-0.04247556099961759
sba(innWeight
NNWeight
p1396
(dp1397
g3
F0.040643932071071455
sba(innWeight
NNWeight
p1398
(dp1399
g3
F0.023222012689180765
sba(innWeight
NNWeight
p1400
(dp1401
g3
F-0.011131743466201586
sba(innWeight
NNWeight
p1402
(dp1403
g3
F-0.0027079590601394614
sba(innWeight
NNWeight
p1404
(dp1405
g3
F0.032920056080542284
sba(innWeight
NNWeight
p1406
(dp1407
g3
F-0.033201742933185625
sba(innWeight
NNWeight
p1408
(dp1409
g3
F0.047413423215913165
sba(innWeight
NNWeight
p1410
(dp1411
g3
F0.03320028210513733
sba(innWeight
NNWeight
p1412
(dp1413
g3
F0.04471280700035256
sba(innWeight
NNWeight
p1414
(dp1415
g3
F0.02571153967653054
sba(innWeight
NNWeight
p1416
(dp1417
g3
F-0.03960087419296751
sba(innWeight
NNWeight
p1418
(dp1419
g3
F-0.0365693995043226
sba(innWeight
NNWeight
p1420
(dp1421
g3
F-0.008172291241607984
sba(innWeight
NNWeight
p1422
(dp1423
g3
F-0.032383144243029356
sba(innWeight
NNWeight
p1424
(dp1425
g3
F-0.004262642117398469
sba(innWeight
NNWeight
p1426
(dp1427
g3
F-0.01544328524830325
sba(innWeight
NNWeight
p1428
(dp1429
g3
F0.01202636132961918
sba(innWeight
NNWeight
p1430
(dp1431
g3
F-0.01923591664812322
sba(innWeight
NNWeight
p1432
(dp1433
g3
F0.01624153459768849
sba(innWeight
NNWeight
p1434
(dp1435
g3
F0.026321647642065068
sba(innWeight
NNWeight
p1436
(dp1437
g3
F0.05409267658788891
sba(innWeight
NNWeight
p1438
(dp1439
g3
F0.05769951873565101
sba(innWeight
NNWeight
p1440
(dp1441
g3
F0.04527447475602162
sba(innWeight
NNWeight
p1442
(dp1443
g3
F-0.007292116845518204
sba(innWeight
NNWeight
p1444
(dp1445
g3
F-0.020060003376173776
sba(innWeight
NNWeight
p1446
(dp1447
g3
F-0.0030336989544316817
sba(innWeight
NNWeight
p1448
(dp1449
g3
F0.02421905612450938
sba(innWeight
NNWeight
p1450
(dp1451
g3
F0.00539824181438955
sba(innWeight
NNWeight
p1452
(dp1453
g3
F-0.007744658356667233
sba(innWeight
NNWeight
p1454
(dp1455
g3
F-0.011077438384978542
sba(innWeight
NNWeight
p1456
(dp1457
g3
F0.015696073923587378
sba(innWeight
NNWeight
p1458
(dp1459
g3
F-0.04460796865830853
sba(innWeight
NNWeight
p1460
(dp1461
g3
F-0.006554859541996208
sba(innWeight
NNWeight
p1462
(dp1463
g3
F-0.002333715773566433
sba(innWeight
NNWeight
p1464
(dp1465
g3
F0.0398162447790937
sba(innWeight
NNWeight
p1466
(dp1467
g3
F0.004295965497116097
sba(innWeight
NNWeight
p1468
(dp1469
g3
F0.012593454682260394
sba(innWeight
NNWeight
p1470
(dp1471
g3
F-0.027927320211149843
sba(innWeight
NNWeight
p1472
(dp1473
g3
F0.0304589292972814
sba(innWeight
NNWeight
p1474
(dp1475
g3
F0.03775583040723327
sba(innWeight
NNWeight
p1476
(dp1477
g3
F-0.046446056504652763
sba(innWeight
NNWeight
p1478
(dp1479
g3
F0.025604113806773427
sba(innWeight
NNWeight
p1480
(dp1481
g3
F0.019756019383713803
sba(innWeight
NNWeight
p1482
(dp1483
g3
F-0.04079049834591941
sba(innWeight
NNWeight
p1484
(dp1485
g3
F0.033307818449219935
sba(innWeight
NNWeight
p1486
(dp1487
g3
F-0.005232906079142962
sba(innWeight
NNWeight
p1488
(dp1489
g3
F-0.04305689230214135
sba(innWeight
NNWeight
p1490
(dp1491
g3
F0.018280430278663416
sba(innWeight
NNWeight
p1492
(dp1493
g3
F-0.045881934766756664
sba(innWeight
NNWeight
p1494
(dp1495
g3
F0.026147680672274815
sba(innWeight
NNWeight
p1496
(dp1497
g3
F-0.0036840819369569552
sba(innWeight
NNWeight
p1498
(dp1499
g3
F-0.030111970143364038
sba(innWeight
NNWeight
p1500
(dp1501
g3
F0.03921239692605909
sba(innWeight
NNWeight
p1502
(dp1503
g3
F0.008639541996212169
sba(innWeight
NNWeight
p1504
(dp1505
g3
F-0.007341802032339809
sba(innWeight
NNWeight
p1506
(dp1507
g3
F0.05422426697830489
sba(innWeight
NNWeight
p1508
(dp1509
g3
F0.014555494782245
sba(innWeight
NNWeight
p1510
(dp1511
g3
F0.04156609876837033
sba(innWeight
NNWeight
p1512
(dp1513
g3
F-0.004291176317089643
sba(innWeight
NNWeight
p1514
(dp1515
g3
F-0.0563767452535575
sba(innWeight
NNWeight
p1516
(dp1517
g3
F-0.031516479750636324
sba(innWeight
NNWeight
p1518
(dp1519
g3
F-0.04884220085428412
sba(innWeight
NNWeight
p1520
(dp1521
g3
F0.014446494014271333
sba(innWeight
NNWeight
p1522
(dp1523
g3
F0.00017197435812267952
sba(innWeight
NNWeight
p1524
(dp1525
g3
F-0.04783808020776765
sba(innWeight
NNWeight
p1526
(dp1527
g3
F-0.00567782961954399
sba(innWeight
NNWeight
p1528
(dp1529
g3
F0.04194027119023242
sba(innWeight
NNWeight
p1530
(dp1531
g3
F-0.03735067286449942
sba(innWeight
NNWeight
p1532
(dp1533
g3
F-0.025276674916759397
sba(innWeight
NNWeight
p1534
(dp1535
g3
F-0.03662305880953416
sba(innWeight
NNWeight
p1536
(dp1537
g3
F0.018924182613091884
sba(innWeight
NNWeight
p1538
(dp1539
g3
F0.022067986300649788
sba(innWeight
NNWeight
p1540
(dp1541
g3
F0.008530657620559795
sba(innWeight
NNWeight
p1542
(dp1543
g3
F-0.01554677425732316
sba(innWeight
NNWeight
p1544
(dp1545
g3
F-0.021765007467310117
sba(innWeight
NNWeight
p1546
(dp1547
g3
F-0.010511070812377411
sba(innWeight
NNWeight
p1548
(dp1549
g3
F0.02841595955497126
sba(innWeight
NNWeight
p1550
(dp1551
g3
F-0.007022563185513208
sba(innWeight
NNWeight
p1552
(dp1553
g3
F-0.026543998115769407
sba(innWeight
NNWeight
p1554
(dp1555
g3
F-0.012503670491783936
sba(innWeight
NNWeight
p1556
(dp1557
g3
F0.009036863450093285
sba(innWeight
NNWeight
p1558
(dp1559
g3
F-0.042945440962776645
sba(innWeight
NNWeight
p1560
(dp1561
g3
F-0.037874012734339386
sba(innWeight
NNWeight
p1562
(dp1563
g3
F0.0076230699402911
sba(innWeight
NNWeight
p1564
(dp1565
g3
F-0.04810141537843169
sba(innWeight
NNWeight
p1566
(dp1567
g3
F0.023942155313158624
sba(innWeight
NNWeight
p1568
(dp1569
g3
F0.02232755678805421
sba(innWeight
NNWeight
p1570
(dp1571
g3
F-0.027102582985045726
sba(innWeight
NNWeight
p1572
(dp1573
g3
F-0.05547581229598085
sba(innWeight
NNWeight
p1574
(dp1575
g3
F-0.04622852754159951
sba(innWeight
NNWeight
p1576
(dp1577
g3
F-0.0061530006093073126
sba(innWeight
NNWeight
p1578
(dp1579
g3
F0.043370479171812505
sba(innWeight
NNWeight
p1580
(dp1581
g3
F-0.032619042234419436
sba(innWeight
NNWeight
p1582
(dp1583
g3
F0.03708427570688592
sba(innWeight
NNWeight
p1584
(dp1585
g3
F0.023349854347316724
sba(innWeight
NNWeight
p1586
(dp1587
g3
F0.016294581113445332
sba(innWeight
NNWeight
p1588
(dp1589
g3
F-0.00017388874526518978
sba(innWeight
NNWeight
p1590
(dp1591
g3
F0.03347231091050407
sba(innWeight
NNWeight
p1592
(dp1593
g3
F-0.04076380346785964
sba(innWeight
NNWeight
p1594
(dp1595
g3
F-0.015716880907110025
sba(innWeight
NNWeight
p1596
(dp1597
g3
F0.01766176763048036
sba(innWeight
NNWeight
p1598
(dp1599
g3
F0.02257403399816746
sba(innWeight
NNWeight
p1600
(dp1601
g3
F0.004820716752446911
sba(innWeight
NNWeight
p1602
(dp1603
g3
F-0.031362179988921726
sba(innWeight
NNWeight
p1604
(dp1605
g3
F0.041042598738515894
sba(innWeight
NNWeight
p1606
(dp1607
g3
F-0.04615532484360328
sba(innWeight
NNWeight
p1608
(dp1609
g3
F0.053244914558332246
sba(innWeight
NNWeight
p1610
(dp1611
g3
F0.05489042048684056
sba(innWeight
NNWeight
p1612
(dp1613
g3
F0.009287461554798586
sba(innWeight
NNWeight
p1614
(dp1615
g3
F-0.02059429012351462
sba(innWeight
NNWeight
p1616
(dp1617
g3
F0.0056204954856563715
sba(innWeight
NNWeight
p1618
(dp1619
g3
F-0.03095594854136506
sba(innWeight
NNWeight
p1620
(dp1621
g3
F0.0007033434209969475
sba(innWeight
NNWeight
p1622
(dp1623
g3
F0.021048799432731347
sba(innWeight
NNWeight
p1624
(dp1625
g3
F-0.025950000160584966
sba(innWeight
NNWeight
p1626
(dp1627
g3
F-0.012921687335561614
sba(innWeight
NNWeight
p1628
(dp1629
g3
F0.022666199492134644
sba(innWeight
NNWeight
p1630
(dp1631
g3
F0.000864565292936557
sba(innWeight
NNWeight
p1632
(dp1633
g3
F-0.014404015815596416
sba(innWeight
NNWeight
p1634
(dp1635
g3
F-0.009738302015569057
sba(innWeight
NNWeight
p1636
(dp1637
g3
F0.03353188355588314
sba(innWeight
NNWeight
p1638
(dp1639
g3
F0.027689159311301566
sba(innWeight
NNWeight
p1640
(dp1641
g3
F-0.026576277028328432
sba(innWeight
NNWeight
p1642
(dp1643
g3
F-0.019014646203444754
sba(innWeight
NNWeight
p1644
(dp1645
g3
F0.022199263944499458
sba(innWeight
NNWeight
p1646
(dp1647
g3
F0.050949421909612706
sba(innWeight
NNWeight
p1648
(dp1649
g3
F0.0074896763969461875
sba(innWeight
NNWeight
p1650
(dp1651
g3
F-0.030932214406178486
sba(innWeight
NNWeight
p1652
(dp1653
g3
F0.034879915526500396
sba(innWeight
NNWeight
p1654
(dp1655
g3
F0.0012245399980199499
sba(innWeight
NNWeight
p1656
(dp1657
g3
F0.03197362681206076
sba(innWeight
NNWeight
p1658
(dp1659
g3
F0.027046009014781797
sba(innWeight
NNWeight
p1660
(dp1661
g3
F-0.009006571176944683
sba(innWeight
NNWeight
p1662
(dp1663
g3
F-0.004295088567148303
sba(innWeight
NNWeight
p1664
(dp1665
g3
F-0.01919756615958175
sba(innWeight
NNWeight
p1666
(dp1667
g3
F-0.037143783441542934
sba(innWeight
NNWeight
p1668
(dp1669
g3
F0.0218187782924739
sba(innWeight
NNWeight
p1670
(dp1671
g3
F0.04932529004852815
sba(innWeight
NNWeight
p1672
(dp1673
g3
F0.007445804132931649
sba(innWeight
NNWeight
p1674
(dp1675
g3
F-0.0232708819062941
sba(innWeight
NNWeight
p1676
(dp1677
g3
F-0.013948232829304495
sba(innWeight
NNWeight
p1678
(dp1679
g3
F-0.024245440433877722
sba(innWeight
NNWeight
p1680
(dp1681
g3
F-0.005612746391874522
sba(innWeight
NNWeight
p1682
(dp1683
g3
F0.051327439394822066
sba(innWeight
NNWeight
p1684
(dp1685
g3
F-0.03335011833253694
sba(innWeight
NNWeight
p1686
(dp1687
g3
F0.012484004183597911
sba(innWeight
NNWeight
p1688
(dp1689
g3
F-0.0496624377675408
sba(innWeight
NNWeight
p1690
(dp1691
g3
F-0.04631544501846131
sba(innWeight
NNWeight
p1692
(dp1693
g3
F-0.04670797984134505
sba(innWeight
NNWeight
p1694
(dp1695
g3
F0.00555075245677499
sba(innWeight
NNWeight
p1696
(dp1697
g3
F0.0192661884743621
sba(innWeight
NNWeight
p1698
(dp1699
g3
F-0.012709094064312882
sba(innWeight
NNWeight
p1700
(dp1701
g3
F-0.010791910834403107
sba(innWeight
NNWeight
p1702
(dp1703
g3
F0.03936744132515966
sba(innWeight
NNWeight
p1704
(dp1705
g3
F0.03415254112564803
sba(innWeight
NNWeight
p1706
(dp1707
g3
F-0.055191876462529536
sba(innWeight
NNWeight
p1708
(dp1709
g3
F0.0050408480717215945
sba(innWeight
NNWeight
p1710
(dp1711
g3
F-0.04709465628053622
sba(innWeight
NNWeight
p1712
(dp1713
g3
F-0.0353682197338149
sba(innWeight
NNWeight
p1714
(dp1715
g3
F0.04239361830661335
sba(innWeight
NNWeight
p1716
(dp1717
g3
F-0.04587974338413699
sba(innWeight
NNWeight
p1718
(dp1719
g3
F-0.05209809612116712
sba(innWeight
NNWeight
p1720
(dp1721
g3
F0.02856593327968447
sba(innWeight
NNWeight
p1722
(dp1723
g3
F0.024564082413891485
sba(innWeight
NNWeight
p1724
(dp1725
g3
F0.039740065910212626
sba(innWeight
NNWeight
p1726
(dp1727
g3
F0.01224076954819353
sba(innWeight
NNWeight
p1728
(dp1729
g3
F0.017932041820221938
sba(innWeight
NNWeight
p1730
(dp1731
g3
F-0.04845810972182871
sba(innWeight
NNWeight
p1732
(dp1733
g3
F0.039507180155057324
sba(innWeight
NNWeight
p1734
(dp1735
g3
F0.02351308582484247
sba(innWeight
NNWeight
p1736
(dp1737
g3
F-0.043692574720190815
sba(innWeight
NNWeight
p1738
(dp1739
g3
F0.011548809145617121
sba(innWeight
NNWeight
p1740
(dp1741
g3
F-0.00045233885715565683
sba(innWeight
NNWeight
p1742
(dp1743
g3
F0.02355355487869712
sba(innWeight
NNWeight
p1744
(dp1745
g3
F-0.03557723658172934
sba(innWeight
NNWeight
p1746
(dp1747
g3
F-0.04235854249852946
sba(innWeight
NNWeight
p1748
(dp1749
g3
F-0.01590143320384258
sba(innWeight
NNWeight
p1750
(dp1751
g3
F-0.03577526694688722
sba(innWeight
NNWeight
p1752
(dp1753
g3
F-0.016800784228756943
sba(innWeight
NNWeight
p1754
(dp1755
g3
F-0.05952836104251837
sba(innWeight
NNWeight
p1756
(dp1757
g3
F0.04442535152555466
sba(innWeight
NNWeight
p1758
(dp1759
g3
F-0.022615354551839592
sba(innWeight
NNWeight
p1760
(dp1761
g3
F0.018687176339427458
sba(innWeight
NNWeight
p1762
(dp1763
g3
F-0.045712808070367345
sba(innWeight
NNWeight
p1764
(dp1765
g3
F-0.025404309197391155
sba(innWeight
NNWeight
p1766
(dp1767
g3
F-0.05525895215886175
sba(innWeight
NNWeight
p1768
(dp1769
g3
F-0.00996908072448792
sba(innWeight
NNWeight
p1770
(dp1771
g3
F-0.007052975129055957
sba(innWeight
NNWeight
p1772
(dp1773
g3
F-0.036483984339481766
sba(innWeight
NNWeight
p1774
(dp1775
g3
F0.014266146780456141
sba(innWeight
NNWeight
p1776
(dp1777
g3
F-0.0246320332255442
sba(innWeight
NNWeight
p1778
(dp1779
g3
F-0.016264761515464174
sba(innWeight
NNWeight
p1780
(dp1781
g3
F-0.017023270085921104
sba(innWeight
NNWeight
p1782
(dp1783
g3
F-0.05267033332867816
sba(innWeight
NNWeight
p1784
(dp1785
g3
F-0.031095406666922405
sba(innWeight
NNWeight
p1786
(dp1787
g3
F0.04434758476429118
sba(innWeight
NNWeight
p1788
(dp1789
g3
F-0.04733532009960308
sba(innWeight
NNWeight
p1790
(dp1791
g3
F-0.05766739919859967
sba(innWeight
NNWeight
p1792
(dp1793
g3
F0.028541934068878314
sba(innWeight
NNWeight
p1794
(dp1795
g3
F0.008002600938433895
sba(innWeight
NNWeight
p1796
(dp1797
g3
F-0.03347410141347983
sba(innWeight
NNWeight
p1798
(dp1799
g3
F-0.0031136382892760326
sba(innWeight
NNWeight
p1800
(dp1801
g3
F-0.00016645070617935897
sba(innWeight
NNWeight
p1802
(dp1803
g3
F0.05129674980691357
sba(innWeight
NNWeight
p1804
(dp1805
g3
F0.03932216738120952
sba(innWeight
NNWeight
p1806
(dp1807
g3
F0.014590229836760187
sba(innWeight
NNWeight
p1808
(dp1809
g3
F0.01444303805821245
sba(innWeight
NNWeight
p1810
(dp1811
g3
F-0.04293390292271381
sba(innWeight
NNWeight
p1812
(dp1813
g3
F0.037148826665606746
sba(innWeight
NNWeight
p1814
(dp1815
g3
F-0.04819420470323896
sba(innWeight
NNWeight
p1816
(dp1817
g3
F0.03234739352208912
sba(innWeight
NNWeight
p1818
(dp1819
g3
F0.042039402579332
sba(innWeight
NNWeight
p1820
(dp1821
g3
F-0.025663285928855018
sba(innWeight
NNWeight
p1822
(dp1823
g3
F-0.024845774325366127
sba(innWeight
NNWeight
p1824
(dp1825
g3
F0.03573556272617012
sba(innWeight
NNWeight
p1826
(dp1827
g3
F-0.03840932440853325
sba(innWeight
NNWeight
p1828
(dp1829
g3
F-0.04524320501762674
sba(innWeight
NNWeight
p1830
(dp1831
g3
F-0.022406787257737825
sba(innWeight
NNWeight
p1832
(dp1833
g3
F-0.02489592480165221
sba(innWeight
NNWeight
p1834
(dp1835
g3
F-0.058039955929136425
sba(innWeight
NNWeight
p1836
(dp1837
g3
F-0.00844771330039499
sba(innWeight
NNWeight
p1838
(dp1839
g3
F-0.04031828810691106
sba(innWeight
NNWeight
p1840
(dp1841
g3
F-0.01998222727708394
sba(innWeight
NNWeight
p1842
(dp1843
g3
F0.0058114850662486315
sba(innWeight
NNWeight
p1844
(dp1845
g3
F-0.03710326467647524
sba(innWeight
NNWeight
p1846
(dp1847
g3
F-0.0009567643413098221
sba(innWeight
NNWeight
p1848
(dp1849
g3
F-0.040779504863066064
sba(innWeight
NNWeight
p1850
(dp1851
g3
F-0.010264153527727176
sba(innWeight
NNWeight
p1852
(dp1853
g3
F-0.00577950696626623
sba(innWeight
NNWeight
p1854
(dp1855
g3
F0.023271689464818564
sba(innWeight
NNWeight
p1856
(dp1857
g3
F0.003993542641268667
sba(innWeight
NNWeight
p1858
(dp1859
g3
F-0.05370748148108799
sba(innWeight
NNWeight
p1860
(dp1861
g3
F-0.004801345421162057
sba(innWeight
NNWeight
p1862
(dp1863
g3
F0.012368259285570102
sba(innWeight
NNWeight
p1864
(dp1865
g3
F0.003997942662309756
sba(innWeight
NNWeight
p1866
(dp1867
g3
F-0.010062555923697158
sba(innWeight
NNWeight
p1868
(dp1869
g3
F-0.028689513204851157
sba(innWeight
NNWeight
p1870
(dp1871
g3
F-0.023379289278468517
sba(innWeight
NNWeight
p1872
(dp1873
g3
F0.005402765153363356
sba(innWeight
NNWeight
p1874
(dp1875
g3
F0.034692284621151544
sba(innWeight
NNWeight
p1876
(dp1877
g3
F0.04847320008224714
sba(innWeight
NNWeight
p1878
(dp1879
g3
F-0.0075895962169107295
sba(innWeight
NNWeight
p1880
(dp1881
g3
F-0.0522162323599385
sba(innWeight
NNWeight
p1882
(dp1883
g3
F0.026420702391833077
sba(innWeight
NNWeight
p1884
(dp1885
g3
F0.023514742972185632
sba(innWeight
NNWeight
p1886
(dp1887
g3
F-0.03851010769703766
sba(innWeight
NNWeight
p1888
(dp1889
g3
F0.024753510711089555
sba(innWeight
NNWeight
p1890
(dp1891
g3
F0.02401160801059711
sba(innWeight
NNWeight
p1892
(dp1893
g3
F-0.057336330374483394
sba(innWeight
NNWeight
p1894
(dp1895
g3
F0.006765731636993714
sba(innWeight
NNWeight
p1896
(dp1897
g3
F0.023818156823242592
sba(innWeight
NNWeight
p1898
(dp1899
g3
F-0.03698140926224726
sba(innWeight
NNWeight
p1900
(dp1901
g3
F0.017239630722916226
sba(innWeight
NNWeight
p1902
(dp1903
g3
F-0.04889970139704736
sba(innWeight
NNWeight
p1904
(dp1905
g3
F-0.021370230323985634
sba(innWeight
NNWeight
p1906
(dp1907
g3
F0.015188938504882342
sba(innWeight
NNWeight
p1908
(dp1909
g3
F-0.018426357930208356
sba(innWeight
NNWeight
p1910
(dp1911
g3
F-0.035824840061964985
sba(innWeight
NNWeight
p1912
(dp1913
g3
F0.013754273308264092
sba(innWeight
NNWeight
p1914
(dp1915
g3
F-0.040678031084612945
sba(innWeight
NNWeight
p1916
(dp1917
g3
F-0.0008531572174296397
sba(innWeight
NNWeight
p1918
(dp1919
g3
F0.022492656039935395
sba(innWeight
NNWeight
p1920
(dp1921
g3
F-0.014459534354437344
sba(innWeight
NNWeight
p1922
(dp1923
g3
F0.012794551271526476
sba(innWeight
NNWeight
p1924
(dp1925
g3
F0.0435777350757486
sba(innWeight
NNWeight
p1926
(dp1927
g3
F-0.043720545905338186
sba(innWeight
NNWeight
p1928
(dp1929
g3
F-0.046165510843390156
sba(innWeight
NNWeight
p1930
(dp1931
g3
F-0.030259582129054594
sba(innWeight
NNWeight
p1932
(dp1933
g3
F-0.0024580611657844392
sba(innWeight
NNWeight
p1934
(dp1935
g3
F0.045166302112183566
sba(innWeight
NNWeight
p1936
(dp1937
g3
F0.04054551299042863
sba(innWeight
NNWeight
p1938
(dp1939
g3
F0.012936668327501068
sba(innWeight
NNWeight
p1940
(dp1941
g3
F0.012584343020667257
sba(innWeight
NNWeight
p1942
(dp1943
g3
F0.0027896502902053956
sba(innWeight
NNWeight
p1944
(dp1945
g3
F0.029078942316713003
sba(innWeight
NNWeight
p1946
(dp1947
g3
F-0.04684726016169882
sba(innWeight
NNWeight
p1948
(dp1949
g3
F0.021192651555864764
sba(innWeight
NNWeight
p1950
(dp1951
g3
F-0.018162473293085124
sba(innWeight
NNWeight
p1952
(dp1953
g3
F-0.0211053271458673
sba(innWeight
NNWeight
p1954
(dp1955
g3
F-0.026016907576963802
sba(innWeight
NNWeight
p1956
(dp1957
g3
F-0.02291759340323645
sba(innWeight
NNWeight
p1958
(dp1959
g3
F0.022934561930496155
sba(innWeight
NNWeight
p1960
(dp1961
g3
F0.02902906817610841
sba(innWeight
NNWeight
p1962
(dp1963
g3
F-0.022587754911393945
sba(innWeight
NNWeight
p1964
(dp1965
g3
F0.04696155022697229
sba(innWeight
NNWeight
p1966
(dp1967
g3
F0.037087475644717365
sba(innWeight
NNWeight
p1968
(dp1969
g3
F-0.014676944495555509
sba(innWeight
NNWeight
p1970
(dp1971
g3
F0.04641657964902958
sba(innWeight
NNWeight
p1972
(dp1973
g3
F-0.01655936046727902
sba(innWeight
NNWeight
p1974
(dp1975
g3
F0.028570632233935644
sba(innWeight
NNWeight
p1976
(dp1977
g3
F-0.055319086326710745
sba(innWeight
NNWeight
p1978
(dp1979
g3
F0.04832057859354171
sba(innWeight
NNWeight
p1980
(dp1981
g3
F-0.004143391043131293
sba(innWeight
NNWeight
p1982
(dp1983
g3
F-0.03413021221183937
sba(innWeight
NNWeight
p1984
(dp1985
g3
F-0.03174545540840966
sba(innWeight
NNWeight
p1986
(dp1987
g3
F0.008858110843646884
sba(innWeight
NNWeight
p1988
(dp1989
g3
F0.04727797709487556
sba(innWeight
NNWeight
p1990
(dp1991
g3
F-0.03624869020484115
sba(innWeight
NNWeight
p1992
(dp1993
g3
F-0.04793378288589698
sba(innWeight
NNWeight
p1994
(dp1995
g3
F-0.030058377981862467
sba(innWeight
NNWeight
p1996
(dp1997
g3
F-0.025283896075721807
sba(innWeight
NNWeight
p1998
(dp1999
g3
F-0.011184294489925403
sba(innWeight
NNWeight
p2000
(dp2001
g3
F-0.03456824343671517
sba(innWeight
NNWeight
p2002
(dp2003
g3
F0.03167941281457499
sba(innWeight
NNWeight
p2004
(dp2005
g3
F0.0009428379602597866
sba(innWeight
NNWeight
p2006
(dp2007
g3
F-0.039005922999605
sba(innWeight
NNWeight
p2008
(dp2009
g3
F-0.04588931510115803
sba(innWeight
NNWeight
p2010
(dp2011
g3
F0.04259465400155235
sba(innWeight
NNWeight
p2012
(dp2013
g3
F-0.04244698573206503
sba(innWeight
NNWeight
p2014
(dp2015
g3
F0.04645290971056013
sba(innWeight
NNWeight
p2016
(dp2017
g3
F-0.039562883068821504
sba(innWeight
NNWeight
p2018
(dp2019
g3
F0.009010278808735105
sba(innWeight
NNWeight
p2020
(dp2021
g3
F0.009195134164069748
sba.