(lp0
(innWeight
NNWeight
p1
(dp2
S'val'
p3
F0.01383881263065443
sba(innWeight
NNWeight
p4
(dp5
g3
F-0.029235945715563205
sba(innWeight
NNWeight
p6
(dp7
g3
F0.006103659516215865
sba(innWeight
NNWeight
p8
(dp9
g3
F-0.023040329124209946
sba(innWeight
NNWeight
p10
(dp11
g3
F-0.04671116782414875
sba(innWeight
NNWeight
p12
(dp13
g3
F-0.01057224349530609
sba(innWeight
NNWeight
p14
(dp15
g3
F0.004195956326691253
sba(innWeight
NNWeight
p16
(dp17
g3
F-0.018729308043324077
sba(innWeight
NNWeight
p18
(dp19
g3
F0.02636822995677096
sba(innWeight
NNWeight
p20
(dp21
g3
F-0.04931720700067737
sba(innWeight
NNWeight
p22
(dp23
g3
F0.015807408355631904
sba(innWeight
NNWeight
p24
(dp25
g3
F-0.0016096596254149944
sba(innWeight
NNWeight
p26
(dp27
g3
F-0.021088449681253466
sba(innWeight
NNWeight
p28
(dp29
g3
F0.042295765613488
sba(innWeight
NNWeight
p30
(dp31
g3
F0.0339933037860237
sba(innWeight
NNWeight
p32
(dp33
g3
F0.037735625452504834
sba(innWeight
NNWeight
p34
(dp35
g3
F0.027613014759960575
sba(innWeight
NNWeight
p36
(dp37
g3
F0.04250847790680837
sba(innWeight
NNWeight
p38
(dp39
g3
F-0.04409046159328381
sba(innWeight
NNWeight
p40
(dp41
g3
F-0.00024939665830154835
sba(innWeight
NNWeight
p42
(dp43
g3
F-0.003490984407728981
sba(innWeight
NNWeight
p44
(dp45
g3
F0.018824899367715676
sba(innWeight
NNWeight
p46
(dp47
g3
F-0.03483809366848465
sba(innWeight
NNWeight
p48
(dp49
g3
F0.036048444000447225
sba(innWeight
NNWeight
p50
(dp51
g3
F-0.042388251512120646
sba(innWeight
NNWeight
p52
(dp53
g3
F0.003283557440636842
sba(innWeight
NNWeight
p54
(dp55
g3
F0.011828088286240124
sba(innWeight
NNWeight
p56
(dp57
g3
F0.025038666365832976
sba(innWeight
NNWeight
p58
(dp59
g3
F-0.043956458348850806
sba(innWeight
NNWeight
p60
(dp61
g3
F-0.04944405879167964
sba(innWeight
NNWeight
p62
(dp63
g3
F-0.011644099881300319
sba(innWeight
NNWeight
p64
(dp65
g3
F0.03887064666426207
sba(innWeight
NNWeight
p66
(dp67
g3
F0.03931345956283472
sba(innWeight
NNWeight
p68
(dp69
g3
F-0.002097259552144082
sba(innWeight
NNWeight
p70
(dp71
g3
F-0.0076111335094267265
sba(innWeight
NNWeight
p72
(dp73
g3
F0.03134090173444517
sba(innWeight
NNWeight
p74
(dp75
g3
F0.049473451339252364
sba(innWeight
NNWeight
p76
(dp77
g3
F0.007753683979994642
sba(innWeight
NNWeight
p78
(dp79
g3
F-0.01968673164421806
sba(innWeight
NNWeight
p80
(dp81
g3
F-0.016441277425953305
sba(innWeight
NNWeight
p82
(dp83
g3
F0.048881841736173805
sba(innWeight
NNWeight
p84
(dp85
g3
F-0.007913862003313999
sba(innWeight
NNWeight
p86
(dp87
g3
F0.005333673027721909
sba(innWeight
NNWeight
p88
(dp89
g3
F0.03204072967759356
sba(innWeight
NNWeight
p90
(dp91
g3
F0.03037395746789061
sba(innWeight
NNWeight
p92
(dp93
g3
F0.02709018046674229
sba(innWeight
NNWeight
p94
(dp95
g3
F-0.02208905900618312
sba(innWeight
NNWeight
p96
(dp97
g3
F0.0279066172122747
sba(innWeight
NNWeight
p98
(dp99
g3
F0.014265839802241921
sba(innWeight
NNWeight
p100
(dp101
g3
F-0.04229337696643498
sba(innWeight
NNWeight
p102
(dp103
g3
F0.003682711723885535
sba(innWeight
NNWeight
p104
(dp105
g3
F0.028904074424152527
sba(innWeight
NNWeight
p106
(dp107
g3
F0.042742667966349436
sba(innWeight
NNWeight
p108
(dp109
g3
F0.0014847676288443968
sba(innWeight
NNWeight
p110
(dp111
g3
F-0.008899073900788246
sba(innWeight
NNWeight
p112
(dp113
g3
F0.043039356059485535
sba(innWeight
NNWeight
p114
(dp115
g3
F-0.047857587002154235
sba(innWeight
NNWeight
p116
(dp117
g3
F0.02750663800736776
sba(innWeight
NNWeight
p118
(dp119
g3
F0.0001447182214816656
sba(innWeight
NNWeight
p120
(dp121
g3
F0.023499039271892487
sba(innWeight
NNWeight
p122
(dp123
g3
F-0.00882828811985944
sba(innWeight
NNWeight
p124
(dp125
g3
F0.007676807697153521
sba(innWeight
NNWeight
p126
(dp127
g3
F-0.0028906718426097155
sba(innWeight
NNWeight
p128
(dp129
g3
F-0.03621042654406984
sba(innWeight
NNWeight
p130
(dp131
g3
F-0.023236434341609248
sba(innWeight
NNWeight
p132
(dp133
g3
F0.018833061986028257
sba(innWeight
NNWeight
p134
(dp135
g3
F-0.0012933457637716917
sba(innWeight
NNWeight
p136
(dp137
g3
F-0.0461018574656794
sba(innWeight
NNWeight
p138
(dp139
g3
F0.024667561927810555
sba(innWeight
NNWeight
p140
(dp141
g3
F-0.04664488339991196
sba(innWeight
NNWeight
p142
(dp143
g3
F-0.04828529124532247
sba(innWeight
NNWeight
p144
(dp145
g3
F-0.02880350109960458
sba(innWeight
NNWeight
p146
(dp147
g3
F-0.01110570627213805
sba(innWeight
NNWeight
p148
(dp149
g3
F-0.021131862636919366
sba(innWeight
NNWeight
p150
(dp151
g3
F0.001020392198624831
sba(innWeight
NNWeight
p152
(dp153
g3
F-0.04760035354895007
sba(innWeight
NNWeight
p154
(dp155
g3
F-0.029679565956212073
sba(innWeight
NNWeight
p156
(dp157
g3
F0.019083114966208438
sba(innWeight
NNWeight
p158
(dp159
g3
F-0.044686320867122514
sba(innWeight
NNWeight
p160
(dp161
g3
F0.03705704762265468
sba(innWeight
NNWeight
p162
(dp163
g3
F0.010759800196477343
sba(innWeight
NNWeight
p164
(dp165
g3
F0.007448752317904073
sba(innWeight
NNWeight
p166
(dp167
g3
F-0.04555546968912755
sba(innWeight
NNWeight
p168
(dp169
g3
F-0.010686176101902634
sba(innWeight
NNWeight
p170
(dp171
g3
F0.03137758088290398
sba(innWeight
NNWeight
p172
(dp173
g3
F-0.02736485219896825
sba(innWeight
NNWeight
p174
(dp175
g3
F0.011777431087249924
sba(innWeight
NNWeight
p176
(dp177
g3
F-0.017105080160451935
sba(innWeight
NNWeight
p178
(dp179
g3
F0.02219426361621657
sba(innWeight
NNWeight
p180
(dp181
g3
F-0.0106717569422644
sba(innWeight
NNWeight
p182
(dp183
g3
F0.0029873686334961347
sba(innWeight
NNWeight
p184
(dp185
g3
F0.040394199773623775
sba(innWeight
NNWeight
p186
(dp187
g3
F-0.01209815048530446
sba(innWeight
NNWeight
p188
(dp189
g3
F-0.015037570506760856
sba(innWeight
NNWeight
p190
(dp191
g3
F0.02107467987340078
sba(innWeight
NNWeight
p192
(dp193
g3
F-0.0032181585094173126
sba(innWeight
NNWeight
p194
(dp195
g3
F0.041087533104293764
sba(innWeight
NNWeight
p196
(dp197
g3
F0.015971251050164958
sba(innWeight
NNWeight
p198
(dp199
g3
F0.005706366661741069
sba(innWeight
NNWeight
p200
(dp201
g3
F0.023242557091325167
sba(innWeight
NNWeight
p202
(dp203
g3
F-0.009998599402184295
sba(innWeight
NNWeight
p204
(dp205
g3
F-0.01643947354013776
sba(innWeight
NNWeight
p206
(dp207
g3
F0.03107346614782335
sba(innWeight
NNWeight
p208
(dp209
g3
F0.013736642719670811
sba(innWeight
NNWeight
p210
(dp211
g3
F0.024676401324005528
sba(innWeight
NNWeight
p212
(dp213
g3
F0.040091990374575726
sba(innWeight
NNWeight
p214
(dp215
g3
F-0.013783336034956729
sba(innWeight
NNWeight
p216
(dp217
g3
F0.03839700529705599
sba(innWeight
NNWeight
p218
(dp219
g3
F-0.0033290310841395778
sba(innWeight
NNWeight
p220
(dp221
g3
F0.019162921387408716
sba(innWeight
NNWeight
p222
(dp223
g3
F-0.003127008845154877
sba(innWeight
NNWeight
p224
(dp225
g3
F-0.015082166252581276
sba(innWeight
NNWeight
p226
(dp227
g3
F0.00773575277834997
sba(innWeight
NNWeight
p228
(dp229
g3
F0.027991337384479998
sba(innWeight
NNWeight
p230
(dp231
g3
F0.02050372118802897
sba(innWeight
NNWeight
p232
(dp233
g3
F-0.03789534837706918
sba(innWeight
NNWeight
p234
(dp235
g3
F0.009768090899875237
sba(innWeight
NNWeight
p236
(dp237
g3
F-0.04825067305268799
sba(innWeight
NNWeight
p238
(dp239
g3
F-0.010440270117257334
sba(innWeight
NNWeight
p240
(dp241
g3
F-0.0022841353353181162
sba(innWeight
NNWeight
p242
(dp243
g3
F0.019243836682627927
sba(innWeight
NNWeight
p244
(dp245
g3
F-0.021176654133130746
sba(innWeight
NNWeight
p246
(dp247
g3
F-0.024928283355310332
sba(innWeight
NNWeight
p248
(dp249
g3
F0.04761892458092603
sba(innWeight
NNWeight
p250
(dp251
g3
F-0.018069174210492533
sba(innWeight
NNWeight
p252
(dp253
g3
F-0.03349714586646998
sba(innWeight
NNWeight
p254
(dp255
g3
F0.004140213986987307
sba(innWeight
NNWeight
p256
(dp257
g3
F0.005371099658080381
sba(innWeight
NNWeight
p258
(dp259
g3
F-0.027797719289237233
sba(innWeight
NNWeight
p260
(dp261
g3
F0.03214272518788587
sba(innWeight
NNWeight
p262
(dp263
g3
F-0.03413400008491068
sba(innWeight
NNWeight
p264
(dp265
g3
F0.017154149941110697
sba(innWeight
NNWeight
p266
(dp267
g3
F-0.02487319100158373
sba(innWeight
NNWeight
p268
(dp269
g3
F-0.04787687274709205
sba(innWeight
NNWeight
p270
(dp271
g3
F-0.029131324672663862
sba(innWeight
NNWeight
p272
(dp273
g3
F-0.04546010773274849
sba(innWeight
NNWeight
p274
(dp275
g3
F-0.009407636736899316
sba(innWeight
NNWeight
p276
(dp277
g3
F-0.04542355266816629
sba(innWeight
NNWeight
p278
(dp279
g3
F-0.04675432756702544
sba(innWeight
NNWeight
p280
(dp281
g3
F0.03045500903743492
sba(innWeight
NNWeight
p282
(dp283
g3
F-0.03163234938998407
sba(innWeight
NNWeight
p284
(dp285
g3
F0.032500538699427595
sba(innWeight
NNWeight
p286
(dp287
g3
F-0.02097533374416031
sba(innWeight
NNWeight
p288
(dp289
g3
F0.00865757604927543
sba(innWeight
NNWeight
p290
(dp291
g3
F0.020316748537113974
sba(innWeight
NNWeight
p292
(dp293
g3
F0.03158467686699703
sba(innWeight
NNWeight
p294
(dp295
g3
F-0.013453428428235714
sba(innWeight
NNWeight
p296
(dp297
g3
F-0.018674731394489563
sba(innWeight
NNWeight
p298
(dp299
g3
F-0.032625737167329485
sba(innWeight
NNWeight
p300
(dp301
g3
F0.006898224960133648
sba(innWeight
NNWeight
p302
(dp303
g3
F0.00957175130306106
sba(innWeight
NNWeight
p304
(dp305
g3
F0.011893164130975832
sba(innWeight
NNWeight
p306
(dp307
g3
F-0.025213339395703062
sba(innWeight
NNWeight
p308
(dp309
g3
F0.010199697268044173
sba(innWeight
NNWeight
p310
(dp311
g3
F-0.042705130912602134
sba(innWeight
NNWeight
p312
(dp313
g3
F0.01462438443581171
sba.