(lp0
(innWeight
NNWeight
p1
(dp2
S'val'
p3
F0.01729774533846177
sba(innWeight
NNWeight
p4
(dp5
g3
F0.04171875880933208
sba(innWeight
NNWeight
p6
(dp7
g3
F0.013280097464743668
sba(innWeight
NNWeight
p8
(dp9
g3
F-0.030068939951645335
sba(innWeight
NNWeight
p10
(dp11
g3
F-0.03500767812830246
sba(innWeight
NNWeight
p12
(dp13
g3
F-0.007162234009883506
sba(innWeight
NNWeight
p14
(dp15
g3
F0.016770217727975278
sba(innWeight
NNWeight
p16
(dp17
g3
F-0.0011606357418339486
sba(innWeight
NNWeight
p18
(dp19
g3
F-0.038661517544359786
sba(innWeight
NNWeight
p20
(dp21
g3
F-0.03260057127032756
sba(innWeight
NNWeight
p22
(dp23
g3
F0.031246190297906686
sba(innWeight
NNWeight
p24
(dp25
g3
F0.013450235852193704
sba(innWeight
NNWeight
p26
(dp27
g3
F0.043672981923286114
sba(innWeight
NNWeight
p28
(dp29
g3
F0.03544258328128959
sba(innWeight
NNWeight
p30
(dp31
g3
F0.03976166367349959
sba(innWeight
NNWeight
p32
(dp33
g3
F-0.0028899202447590366
sba(innWeight
NNWeight
p34
(dp35
g3
F0.03821949567176002
sba(innWeight
NNWeight
p36
(dp37
g3
F0.02676474283803816
sba(innWeight
NNWeight
p38
(dp39
g3
F-0.03734748654889678
sba(innWeight
NNWeight
p40
(dp41
g3
F-0.032980388630605574
sba(innWeight
NNWeight
p42
(dp43
g3
F0.024307920849085552
sba(innWeight
NNWeight
p44
(dp45
g3
F0.046986670007684195
sba(innWeight
NNWeight
p46
(dp47
g3
F-0.047577167186586
sba(innWeight
NNWeight
p48
(dp49
g3
F-0.041055272932892
sba(innWeight
NNWeight
p50
(dp51
g3
F0.0360655031066423
sba(innWeight
NNWeight
p52
(dp53
g3
F0.012320854311801188
sba(innWeight
NNWeight
p54
(dp55
g3
F-0.009732096277596282
sba(innWeight
NNWeight
p56
(dp57
g3
F0.022289934320699215
sba(innWeight
NNWeight
p58
(dp59
g3
F0.03476859086077688
sba(innWeight
NNWeight
p60
(dp61
g3
F-0.0247124184036862
sba(innWeight
NNWeight
p62
(dp63
g3
F-0.015962859206286917
sba(innWeight
NNWeight
p64
(dp65
g3
F0.03894591639080433
sba(innWeight
NNWeight
p66
(dp67
g3
F-0.010676133723377147
sba(innWeight
NNWeight
p68
(dp69
g3
F0.001697321927520168
sba(innWeight
NNWeight
p70
(dp71
g3
F-0.0003637331030430624
sba(innWeight
NNWeight
p72
(dp73
g3
F-0.0046005267040125425
sba(innWeight
NNWeight
p74
(dp75
g3
F-0.037760782062511336
sba(innWeight
NNWeight
p76
(dp77
g3
F-0.0291689413092753
sba(innWeight
NNWeight
p78
(dp79
g3
F0.0407796118841879
sba(innWeight
NNWeight
p80
(dp81
g3
F-0.02097581347851657
sba(innWeight
NNWeight
p82
(dp83
g3
F-0.013341500272438467
sba(innWeight
NNWeight
p84
(dp85
g3
F0.005201914150127585
sba(innWeight
NNWeight
p86
(dp87
g3
F0.029418816128951156
sba(innWeight
NNWeight
p88
(dp89
g3
F0.03200162025796579
sba(innWeight
NNWeight
p90
(dp91
g3
F-0.0378763437176301
sba(innWeight
NNWeight
p92
(dp93
g3
F0.01008635847746845
sba(innWeight
NNWeight
p94
(dp95
g3
F0.038194942376489516
sba(innWeight
NNWeight
p96
(dp97
g3
F-0.04715855109536202
sba(innWeight
NNWeight
p98
(dp99
g3
F-0.007608311462051287
sba(innWeight
NNWeight
p100
(dp101
g3
F-0.0403003849389066
sba(innWeight
NNWeight
p102
(dp103
g3
F-0.01877637989136062
sba(innWeight
NNWeight
p104
(dp105
g3
F-0.0456327734298829
sba(innWeight
NNWeight
p106
(dp107
g3
F0.02465275218158418
sba(innWeight
NNWeight
p108
(dp109
g3
F0.0295604694662982
sba(innWeight
NNWeight
p110
(dp111
g3
F0.03917956370949969
sba(innWeight
NNWeight
p112
(dp113
g3
F-0.021060251405107734
sba(innWeight
NNWeight
p114
(dp115
g3
F0.016109171083428353
sba(innWeight
NNWeight
p116
(dp117
g3
F0.026029042931733627
sba(innWeight
NNWeight
p118
(dp119
g3
F-0.020454330607655724
sba(innWeight
NNWeight
p120
(dp121
g3
F0.009542577618480041
sba(innWeight
NNWeight
p122
(dp123
g3
F-9.838597534581606e-05
sba(innWeight
NNWeight
p124
(dp125
g3
F0.04663167214910033
sba(innWeight
NNWeight
p126
(dp127
g3
F-0.04742847854987026
sba(innWeight
NNWeight
p128
(dp129
g3
F0.030714188685980106
sba(innWeight
NNWeight
p130
(dp131
g3
F0.04882079491888113
sba(innWeight
NNWeight
p132
(dp133
g3
F0.04785405330613199
sba(innWeight
NNWeight
p134
(dp135
g3
F-0.026126006441215235
sba(innWeight
NNWeight
p136
(dp137
g3
F-0.033048810724817634
sba(innWeight
NNWeight
p138
(dp139
g3
F0.026102151272062293
sba(innWeight
NNWeight
p140
(dp141
g3
F-0.004293732092297897
sba(innWeight
NNWeight
p142
(dp143
g3
F0.032238479658048845
sba(innWeight
NNWeight
p144
(dp145
g3
F0.00550068753020987
sba(innWeight
NNWeight
p146
(dp147
g3
F-0.0172926149176196
sba(innWeight
NNWeight
p148
(dp149
g3
F0.03950573139564385
sba(innWeight
NNWeight
p150
(dp151
g3
F-0.036797624151270206
sba(innWeight
NNWeight
p152
(dp153
g3
F-0.021165523316079918
sba(innWeight
NNWeight
p154
(dp155
g3
F-0.02211928526287048
sba(innWeight
NNWeight
p156
(dp157
g3
F-0.04818895437129032
sba(innWeight
NNWeight
p158
(dp159
g3
F0.04265359214852343
sba(innWeight
NNWeight
p160
(dp161
g3
F0.039470462455688776
sba(innWeight
NNWeight
p162
(dp163
g3
F-0.045032334385294005
sba(innWeight
NNWeight
p164
(dp165
g3
F-0.03304309828056038
sba(innWeight
NNWeight
p166
(dp167
g3
F0.025585201452478324
sba(innWeight
NNWeight
p168
(dp169
g3
F-0.029803219311720176
sba(innWeight
NNWeight
p170
(dp171
g3
F0.01926416676218904
sba(innWeight
NNWeight
p172
(dp173
g3
F-0.0413675462081387
sba(innWeight
NNWeight
p174
(dp175
g3
F-0.028006288764929235
sba(innWeight
NNWeight
p176
(dp177
g3
F0.03931735071781606
sba(innWeight
NNWeight
p178
(dp179
g3
F-0.01667433857977061
sba(innWeight
NNWeight
p180
(dp181
g3
F0.036618595943960955
sba(innWeight
NNWeight
p182
(dp183
g3
F-0.048926115571556475
sba(innWeight
NNWeight
p184
(dp185
g3
F0.012908807824949731
sba(innWeight
NNWeight
p186
(dp187
g3
F0.041032989450108685
sba(innWeight
NNWeight
p188
(dp189
g3
F0.0342842676124257
sba(innWeight
NNWeight
p190
(dp191
g3
F0.0081837171980498
sba(innWeight
NNWeight
p192
(dp193
g3
F-0.02380731504082223
sba(innWeight
NNWeight
p194
(dp195
g3
F0.028464205978254043
sba(innWeight
NNWeight
p196
(dp197
g3
F-0.02416507211026634
sba(innWeight
NNWeight
p198
(dp199
g3
F0.007292451970825642
sba(innWeight
NNWeight
p200
(dp201
g3
F-0.04189381019456732
sba(innWeight
NNWeight
p202
(dp203
g3
F0.010941632812089132
sba(innWeight
NNWeight
p204
(dp205
g3
F0.040590861665416506
sba(innWeight
NNWeight
p206
(dp207
g3
F-0.02610146026611836
sba(innWeight
NNWeight
p208
(dp209
g3
F0.024339934014900512
sba(innWeight
NNWeight
p210
(dp211
g3
F0.0035548782839449067
sba(innWeight
NNWeight
p212
(dp213
g3
F-0.04071331952939853
sba(innWeight
NNWeight
p214
(dp215
g3
F0.019552273116300645
sba(innWeight
NNWeight
p216
(dp217
g3
F0.041351763594857975
sba(innWeight
NNWeight
p218
(dp219
g3
F-0.0008451853984219105
sba(innWeight
NNWeight
p220
(dp221
g3
F0.02898843707596397
sba(innWeight
NNWeight
p222
(dp223
g3
F-0.03322660052361192
sba(innWeight
NNWeight
p224
(dp225
g3
F-0.020732776530811927
sba(innWeight
NNWeight
p226
(dp227
g3
F0.011211155488661051
sba(innWeight
NNWeight
p228
(dp229
g3
F-0.033696777524318114
sba(innWeight
NNWeight
p230
(dp231
g3
F-0.013046636618577068
sba(innWeight
NNWeight
p232
(dp233
g3
F-0.04858135872595503
sba(innWeight
NNWeight
p234
(dp235
g3
F0.02320133847602568
sba(innWeight
NNWeight
p236
(dp237
g3
F-0.03689392723531254
sba(innWeight
NNWeight
p238
(dp239
g3
F-0.019533862194723462
sba(innWeight
NNWeight
p240
(dp241
g3
F-0.024115247940776408
sba(innWeight
NNWeight
p242
(dp243
g3
F0.04153875767128881
sba(innWeight
NNWeight
p244
(dp245
g3
F-0.04624021145448261
sba(innWeight
NNWeight
p246
(dp247
g3
F-0.030201858740522582
sba(innWeight
NNWeight
p248
(dp249
g3
F-0.038243658655867346
sba(innWeight
NNWeight
p250
(dp251
g3
F-0.037086494553778396
sba(innWeight
NNWeight
p252
(dp253
g3
F-0.025701794774469235
sba(innWeight
NNWeight
p254
(dp255
g3
F-0.0441795781430419
sba(innWeight
NNWeight
p256
(dp257
g3
F-0.03584252942672055
sba(innWeight
NNWeight
p258
(dp259
g3
F0.01673825309229916
sba(innWeight
NNWeight
p260
(dp261
g3
F0.022935881596496722
sba(innWeight
NNWeight
p262
(dp263
g3
F0.009366245186191613
sba(innWeight
NNWeight
p264
(dp265
g3
F-0.01258931697393444
sba(innWeight
NNWeight
p266
(dp267
g3
F-0.02645871861819621
sba(innWeight
NNWeight
p268
(dp269
g3
F-0.0387545430449071
sba(innWeight
NNWeight
p270
(dp271
g3
F0.04049782638978135
sba(innWeight
NNWeight
p272
(dp273
g3
F-0.011922856361771306
sba(innWeight
NNWeight
p274
(dp275
g3
F0.04198396005267016
sba(innWeight
NNWeight
p276
(dp277
g3
F-0.00882175968305332
sba(innWeight
NNWeight
p278
(dp279
g3
F0.024033106502329007
sba(innWeight
NNWeight
p280
(dp281
g3
F0.047337121136717245
sba(innWeight
NNWeight
p282
(dp283
g3
F0.04489697449992519
sba(innWeight
NNWeight
p284
(dp285
g3
F0.01055819435901888
sba(innWeight
NNWeight
p286
(dp287
g3
F0.04432350605149298
sba(innWeight
NNWeight
p288
(dp289
g3
F-0.02045047235576397
sba(innWeight
NNWeight
p290
(dp291
g3
F0.03448296143355972
sba(innWeight
NNWeight
p292
(dp293
g3
F0.03901553031722585
sba(innWeight
NNWeight
p294
(dp295
g3
F-0.04390174064163604
sba(innWeight
NNWeight
p296
(dp297
g3
F0.012417356645785249
sba(innWeight
NNWeight
p298
(dp299
g3
F-0.015405987045535986
sba(innWeight
NNWeight
p300
(dp301
g3
F-0.029206235553868976
sba(innWeight
NNWeight
p302
(dp303
g3
F-0.01877021368174897
sba(innWeight
NNWeight
p304
(dp305
g3
F-0.02282720059295238
sba(innWeight
NNWeight
p306
(dp307
g3
F0.04765046499986397
sba(innWeight
NNWeight
p308
(dp309
g3
F0.02569780365007749
sba(innWeight
NNWeight
p310
(dp311
g3
F0.0408265230721412
sba(innWeight
NNWeight
p312
(dp313
g3
F-0.011424855866056195
sba.