(lp0
(innWeight
NNWeight
p1
(dp2
S'val'
p3
F-0.03850197237788246
sba(innWeight
NNWeight
p4
(dp5
g3
F0.028262861858297073
sba(innWeight
NNWeight
p6
(dp7
g3
F0.02690480675210738
sba(innWeight
NNWeight
p8
(dp9
g3
F-0.01697640975836091
sba(innWeight
NNWeight
p10
(dp11
g3
F0.002241040035658515
sba(innWeight
NNWeight
p12
(dp13
g3
F0.0008507536976445351
sba(innWeight
NNWeight
p14
(dp15
g3
F0.01272585408768664
sba(innWeight
NNWeight
p16
(dp17
g3
F0.024024508362668975
sba(innWeight
NNWeight
p18
(dp19
g3
F0.0284338425185415
sba(innWeight
NNWeight
p20
(dp21
g3
F0.047124664285908835
sba(innWeight
NNWeight
p22
(dp23
g3
F-0.04364657187982301
sba(innWeight
NNWeight
p24
(dp25
g3
F-0.027190731424012994
sba(innWeight
NNWeight
p26
(dp27
g3
F-0.03856625701010757
sba(innWeight
NNWeight
p28
(dp29
g3
F-0.03214319978608012
sba(innWeight
NNWeight
p30
(dp31
g3
F0.03165394247772615
sba(innWeight
NNWeight
p32
(dp33
g3
F0.046241802121681524
sba(innWeight
NNWeight
p34
(dp35
g3
F-0.028591805818883733
sba(innWeight
NNWeight
p36
(dp37
g3
F-0.01484692258748237
sba(innWeight
NNWeight
p38
(dp39
g3
F-0.017427893661670635
sba(innWeight
NNWeight
p40
(dp41
g3
F-0.006456246435342883
sba(innWeight
NNWeight
p42
(dp43
g3
F0.01926129575044734
sba(innWeight
NNWeight
p44
(dp45
g3
F0.0243335411415731
sba(innWeight
NNWeight
p46
(dp47
g3
F-0.028009456016696268
sba(innWeight
NNWeight
p48
(dp49
g3
F0.048331762474852796
sba(innWeight
NNWeight
p50
(dp51
g3
F0.04401451606898979
sba(innWeight
NNWeight
p52
(dp53
g3
F-0.02225380500415888
sba(innWeight
NNWeight
p54
(dp55
g3
F0.041534001323229465
sba(innWeight
NNWeight
p56
(dp57
g3
F0.03922007556347982
sba(innWeight
NNWeight
p58
(dp59
g3
F-0.035603771852116696
sba(innWeight
NNWeight
p60
(dp61
g3
F-0.023959740459711654
sba(innWeight
NNWeight
p62
(dp63
g3
F-0.018839666632735532
sba(innWeight
NNWeight
p64
(dp65
g3
F0.04577024217357013
sba(innWeight
NNWeight
p66
(dp67
g3
F-0.03883430141454741
sba(innWeight
NNWeight
p68
(dp69
g3
F0.036866795628044714
sba(innWeight
NNWeight
p70
(dp71
g3
F0.029680538786402557
sba(innWeight
NNWeight
p72
(dp73
g3
F-0.015324437995923824
sba(innWeight
NNWeight
p74
(dp75
g3
F-0.02931025241323301
sba(innWeight
NNWeight
p76
(dp77
g3
F-0.04427809153646572
sba(innWeight
NNWeight
p78
(dp79
g3
F0.03692007822276774
sba(innWeight
NNWeight
p80
(dp81
g3
F0.027131226830348
sba(innWeight
NNWeight
p82
(dp83
g3
F0.036333458452960134
sba(innWeight
NNWeight
p84
(dp85
g3
F-0.005666966549225916
sba(innWeight
NNWeight
p86
(dp87
g3
F0.03801131623852947
sba(innWeight
NNWeight
p88
(dp89
g3
F-0.01757380848132093
sba(innWeight
NNWeight
p90
(dp91
g3
F0.04990449067680883
sba(innWeight
NNWeight
p92
(dp93
g3
F-0.022872079762501298
sba(innWeight
NNWeight
p94
(dp95
g3
F-0.0451189376033041
sba(innWeight
NNWeight
p96
(dp97
g3
F0.01763156870122903
sba(innWeight
NNWeight
p98
(dp99
g3
F0.024406218759707866
sba(innWeight
NNWeight
p100
(dp101
g3
F-0.04669865614922961
sba(innWeight
NNWeight
p102
(dp103
g3
F-0.0022720635946830827
sba(innWeight
NNWeight
p104
(dp105
g3
F0.016942792093732662
sba(innWeight
NNWeight
p106
(dp107
g3
F0.005091543165097668
sba(innWeight
NNWeight
p108
(dp109
g3
F0.026775221064264432
sba(innWeight
NNWeight
p110
(dp111
g3
F0.04041230739871365
sba(innWeight
NNWeight
p112
(dp113
g3
F0.01265438335907756
sba(innWeight
NNWeight
p114
(dp115
g3
F-0.019136899682404087
sba(innWeight
NNWeight
p116
(dp117
g3
F0.0435458666169922
sba(innWeight
NNWeight
p118
(dp119
g3
F-0.009396427918058349
sba(innWeight
NNWeight
p120
(dp121
g3
F-0.03059693120718896
sba(innWeight
NNWeight
p122
(dp123
g3
F0.02092662160077491
sba(innWeight
NNWeight
p124
(dp125
g3
F-0.01838357522762021
sba(innWeight
NNWeight
p126
(dp127
g3
F0.047218649300341725
sba(innWeight
NNWeight
p128
(dp129
g3
F0.029931374806921332
sba(innWeight
NNWeight
p130
(dp131
g3
F0.011799484619232914
sba(innWeight
NNWeight
p132
(dp133
g3
F-0.022545980588161055
sba(innWeight
NNWeight
p134
(dp135
g3
F-0.006922315973876204
sba(innWeight
NNWeight
p136
(dp137
g3
F-0.01647587659637283
sba(innWeight
NNWeight
p138
(dp139
g3
F-0.007643329395631671
sba(innWeight
NNWeight
p140
(dp141
g3
F-0.017328961560348157
sba(innWeight
NNWeight
p142
(dp143
g3
F0.04073506358139385
sba(innWeight
NNWeight
p144
(dp145
g3
F0.0034300092961736754
sba(innWeight
NNWeight
p146
(dp147
g3
F-0.020203102652070117
sba(innWeight
NNWeight
p148
(dp149
g3
F0.01047601975290179
sba(innWeight
NNWeight
p150
(dp151
g3
F-0.006509455713476698
sba(innWeight
NNWeight
p152
(dp153
g3
F0.020996710908453876
sba(innWeight
NNWeight
p154
(dp155
g3
F-0.03088602398942049
sba(innWeight
NNWeight
p156
(dp157
g3
F0.04128177493910427
sba(innWeight
NNWeight
p158
(dp159
g3
F0.006645976775400087
sba(innWeight
NNWeight
p160
(dp161
g3
F-0.021735052146668567
sba(innWeight
NNWeight
p162
(dp163
g3
F-0.018764530830346904
sba(innWeight
NNWeight
p164
(dp165
g3
F0.03429440917308396
sba(innWeight
NNWeight
p166
(dp167
g3
F-0.015231020134642316
sba(innWeight
NNWeight
p168
(dp169
g3
F-0.0014199007983727308
sba(innWeight
NNWeight
p170
(dp171
g3
F0.04785411321389659
sba(innWeight
NNWeight
p172
(dp173
g3
F-0.04446101783114507
sba(innWeight
NNWeight
p174
(dp175
g3
F-0.025269867964239835
sba(innWeight
NNWeight
p176
(dp177
g3
F-0.001624062531913828
sba(innWeight
NNWeight
p178
(dp179
g3
F0.0015234568894845091
sba(innWeight
NNWeight
p180
(dp181
g3
F0.04997290904028734
sba(innWeight
NNWeight
p182
(dp183
g3
F0.04437810491566677
sba(innWeight
NNWeight
p184
(dp185
g3
F-0.04175625011631143
sba(innWeight
NNWeight
p186
(dp187
g3
F0.04128750720874746
sba(innWeight
NNWeight
p188
(dp189
g3
F-0.048460251938522984
sba(innWeight
NNWeight
p190
(dp191
g3
F-0.030390928289949395
sba(innWeight
NNWeight
p192
(dp193
g3
F-0.018976841638003686
sba(innWeight
NNWeight
p194
(dp195
g3
F-0.0005406197893701337
sba(innWeight
NNWeight
p196
(dp197
g3
F-0.04403637344359378
sba(innWeight
NNWeight
p198
(dp199
g3
F0.0019381768224568385
sba(innWeight
NNWeight
p200
(dp201
g3
F0.007912442403217057
sba(innWeight
NNWeight
p202
(dp203
g3
F0.00703667359267205
sba(innWeight
NNWeight
p204
(dp205
g3
F0.03543348564276224
sba(innWeight
NNWeight
p206
(dp207
g3
F0.007009276282883881
sba(innWeight
NNWeight
p208
(dp209
g3
F0.009044396444896808
sba(innWeight
NNWeight
p210
(dp211
g3
F0.032254817175684215
sba(innWeight
NNWeight
p212
(dp213
g3
F-0.03242401506867237
sba(innWeight
NNWeight
p214
(dp215
g3
F-0.0072489821363586615
sba(innWeight
NNWeight
p216
(dp217
g3
F0.0013487652565675413
sba(innWeight
NNWeight
p218
(dp219
g3
F-0.04790944365900647
sba(innWeight
NNWeight
p220
(dp221
g3
F-0.03507372395435126
sba(innWeight
NNWeight
p222
(dp223
g3
F0.022425487612450404
sba(innWeight
NNWeight
p224
(dp225
g3
F-0.019501690204537826
sba(innWeight
NNWeight
p226
(dp227
g3
F0.042921017556941554
sba(innWeight
NNWeight
p228
(dp229
g3
F-0.039524077084517856
sba(innWeight
NNWeight
p230
(dp231
g3
F-0.011411847331086567
sba(innWeight
NNWeight
p232
(dp233
g3
F0.02792956670716175
sba(innWeight
NNWeight
p234
(dp235
g3
F-0.010121909407354147
sba(innWeight
NNWeight
p236
(dp237
g3
F-0.02289386484714472
sba(innWeight
NNWeight
p238
(dp239
g3
F0.022506363889411643
sba(innWeight
NNWeight
p240
(dp241
g3
F-0.014313184959636127
sba(innWeight
NNWeight
p242
(dp243
g3
F-0.0435491526627057
sba(innWeight
NNWeight
p244
(dp245
g3
F-0.04997603257533966
sba(innWeight
NNWeight
p246
(dp247
g3
F0.04345560293506941
sba(innWeight
NNWeight
p248
(dp249
g3
F-0.0143314690984361
sba(innWeight
NNWeight
p250
(dp251
g3
F0.006616443218999468
sba(innWeight
NNWeight
p252
(dp253
g3
F0.002748574317013042
sba(innWeight
NNWeight
p254
(dp255
g3
F0.04035713325669006
sba(innWeight
NNWeight
p256
(dp257
g3
F0.03609409659386429
sba(innWeight
NNWeight
p258
(dp259
g3
F-0.043038583188184036
sba(innWeight
NNWeight
p260
(dp261
g3
F-0.045474707838620565
sba(innWeight
NNWeight
p262
(dp263
g3
F0.034837580418352686
sba(innWeight
NNWeight
p264
(dp265
g3
F0.0397821733033807
sba(innWeight
NNWeight
p266
(dp267
g3
F-0.03190268787803777
sba(innWeight
NNWeight
p268
(dp269
g3
F0.049781824906909244
sba(innWeight
NNWeight
p270
(dp271
g3
F-0.01592166051707099
sba(innWeight
NNWeight
p272
(dp273
g3
F0.005284057951390853
sba(innWeight
NNWeight
p274
(dp275
g3
F0.02530643407501524
sba(innWeight
NNWeight
p276
(dp277
g3
F-0.018743384477323245
sba(innWeight
NNWeight
p278
(dp279
g3
F-0.042860021828365624
sba(innWeight
NNWeight
p280
(dp281
g3
F0.013464212637915718
sba(innWeight
NNWeight
p282
(dp283
g3
F0.010866063723589127
sba(innWeight
NNWeight
p284
(dp285
g3
F0.03878833876496406
sba(innWeight
NNWeight
p286
(dp287
g3
F-0.04024859770659322
sba(innWeight
NNWeight
p288
(dp289
g3
F-0.015084198575332643
sba(innWeight
NNWeight
p290
(dp291
g3
F-0.018250805167753393
sba(innWeight
NNWeight
p292
(dp293
g3
F-0.03789298659151483
sba(innWeight
NNWeight
p294
(dp295
g3
F-0.01099761709237327
sba(innWeight
NNWeight
p296
(dp297
g3
F-0.004317982374682894
sba(innWeight
NNWeight
p298
(dp299
g3
F0.030272087887572754
sba(innWeight
NNWeight
p300
(dp301
g3
F0.024486578559334584
sba(innWeight
NNWeight
p302
(dp303
g3
F0.015762264148478478
sba(innWeight
NNWeight
p304
(dp305
g3
F-0.007346389489893257
sba(innWeight
NNWeight
p306
(dp307
g3
F0.035618081113744725
sba(innWeight
NNWeight
p308
(dp309
g3
F0.025830455086614634
sba(innWeight
NNWeight
p310
(dp311
g3
F-0.02651490446489224
sba(innWeight
NNWeight
p312
(dp313
g3
F0.03239238071761792
sba.