(lp0
(innWeight
NNWeight
p1
(dp2
S'val'
p3
F-0.03404364323759808
sba(innWeight
NNWeight
p4
(dp5
g3
F0.0050937480673550915
sba(innWeight
NNWeight
p6
(dp7
g3
F-0.01912636128193367
sba(innWeight
NNWeight
p8
(dp9
g3
F0.011188080319646923
sba(innWeight
NNWeight
p10
(dp11
g3
F0.022034397647382558
sba(innWeight
NNWeight
p12
(dp13
g3
F0.0028434077574723323
sba(innWeight
NNWeight
p14
(dp15
g3
F0.036987629769272
sba(innWeight
NNWeight
p16
(dp17
g3
F0.06786927244599662
sba(innWeight
NNWeight
p18
(dp19
g3
F-0.012706252162009943
sba(innWeight
NNWeight
p20
(dp21
g3
F0.011972709702173826
sba(innWeight
NNWeight
p22
(dp23
g3
F0.05494193953083209
sba(innWeight
NNWeight
p24
(dp25
g3
F-0.0028835501904151224
sba(innWeight
NNWeight
p26
(dp27
g3
F-0.0008609574117969534
sba(innWeight
NNWeight
p28
(dp29
g3
F-0.022288884210892576
sba(innWeight
NNWeight
p30
(dp31
g3
F0.029368047019217896
sba(innWeight
NNWeight
p32
(dp33
g3
F-0.014560467456261335
sba(innWeight
NNWeight
p34
(dp35
g3
F0.04950384697702699
sba(innWeight
NNWeight
p36
(dp37
g3
F-0.027244086404198634
sba(innWeight
NNWeight
p38
(dp39
g3
F0.037493457265379296
sba(innWeight
NNWeight
p40
(dp41
g3
F0.02792012514359572
sba(innWeight
NNWeight
p42
(dp43
g3
F-0.012189908103415572
sba(innWeight
NNWeight
p44
(dp45
g3
F-0.010174143933839643
sba(innWeight
NNWeight
p46
(dp47
g3
F-0.017636208391027298
sba(innWeight
NNWeight
p48
(dp49
g3
F-0.03173747682286337
sba(innWeight
NNWeight
p50
(dp51
g3
F0.02764350849605707
sba(innWeight
NNWeight
p52
(dp53
g3
F0.02443404582162897
sba(innWeight
NNWeight
p54
(dp55
g3
F0.008655446159217674
sba(innWeight
NNWeight
p56
(dp57
g3
F0.0720890625974672
sba(innWeight
NNWeight
p58
(dp59
g3
F-0.045634230952610946
sba(innWeight
NNWeight
p60
(dp61
g3
F0.004663904874439731
sba(innWeight
NNWeight
p62
(dp63
g3
F-0.049606316269694625
sba(innWeight
NNWeight
p64
(dp65
g3
F0.03906118635614449
sba(innWeight
NNWeight
p66
(dp67
g3
F-0.010498355446210866
sba(innWeight
NNWeight
p68
(dp69
g3
F0.008084134959970839
sba(innWeight
NNWeight
p70
(dp71
g3
F-0.055395888867011876
sba(innWeight
NNWeight
p72
(dp73
g3
F-0.03937081634320046
sba(innWeight
NNWeight
p74
(dp75
g3
F-0.02429847113315895
sba(innWeight
NNWeight
p76
(dp77
g3
F-0.04148641305190735
sba(innWeight
NNWeight
p78
(dp79
g3
F-0.01962451276985808
sba(innWeight
NNWeight
p80
(dp81
g3
F-0.02797535082762222
sba(innWeight
NNWeight
p82
(dp83
g3
F0.009863986472825556
sba(innWeight
NNWeight
p84
(dp85
g3
F-0.038597254392143156
sba(innWeight
NNWeight
p86
(dp87
g3
F-0.08102615770361977
sba(innWeight
NNWeight
p88
(dp89
g3
F-0.027130594752159724
sba(innWeight
NNWeight
p90
(dp91
g3
F-0.05266480856574368
sba(innWeight
NNWeight
p92
(dp93
g3
F0.0408338790939439
sba(innWeight
NNWeight
p94
(dp95
g3
F-0.006077746766901246
sba(innWeight
NNWeight
p96
(dp97
g3
F-0.007626939500712634
sba(innWeight
NNWeight
p98
(dp99
g3
F0.030205847926549966
sba(innWeight
NNWeight
p100
(dp101
g3
F0.009770581865277503
sba(innWeight
NNWeight
p102
(dp103
g3
F0.031159027179437408
sba(innWeight
NNWeight
p104
(dp105
g3
F-0.002462410285189977
sba(innWeight
NNWeight
p106
(dp107
g3
F-0.006655782064665687
sba(innWeight
NNWeight
p108
(dp109
g3
F-0.016197976491824605
sba(innWeight
NNWeight
p110
(dp111
g3
F0.02304907570717365
sba(innWeight
NNWeight
p112
(dp113
g3
F-0.006600507958907855
sba(innWeight
NNWeight
p114
(dp115
g3
F0.033041721711494186
sba(innWeight
NNWeight
p116
(dp117
g3
F0.03307271496937199
sba(innWeight
NNWeight
p118
(dp119
g3
F-0.004709407054005213
sba(innWeight
NNWeight
p120
(dp121
g3
F-0.06167243271329622
sba(innWeight
NNWeight
p122
(dp123
g3
F-0.001761035549295479
sba(innWeight
NNWeight
p124
(dp125
g3
F-0.0022368412155246787
sba(innWeight
NNWeight
p126
(dp127
g3
F0.036656696488669635
sba(innWeight
NNWeight
p128
(dp129
g3
F-0.02142746928145805
sba(innWeight
NNWeight
p130
(dp131
g3
F0.058841968794152544
sba(innWeight
NNWeight
p132
(dp133
g3
F0.03099342266083062
sba(innWeight
NNWeight
p134
(dp135
g3
F0.016090152457177744
sba(innWeight
NNWeight
p136
(dp137
g3
F-0.02440197356272014
sba(innWeight
NNWeight
p138
(dp139
g3
F-0.051399582231175536
sba(innWeight
NNWeight
p140
(dp141
g3
F0.0361021743213152
sba(innWeight
NNWeight
p142
(dp143
g3
F0.01681331838813796
sba(innWeight
NNWeight
p144
(dp145
g3
F0.009258597293511861
sba(innWeight
NNWeight
p146
(dp147
g3
F0.014415774387830262
sba(innWeight
NNWeight
p148
(dp149
g3
F0.028176176513262926
sba(innWeight
NNWeight
p150
(dp151
g3
F0.013181041168319925
sba(innWeight
NNWeight
p152
(dp153
g3
F0.015191373970257556
sba(innWeight
NNWeight
p154
(dp155
g3
F-0.09578214719735477
sba(innWeight
NNWeight
p156
(dp157
g3
F0.03363578141312642
sba(innWeight
NNWeight
p158
(dp159
g3
F-0.029701497120634125
sba(innWeight
NNWeight
p160
(dp161
g3
F0.01898238034351648
sba(innWeight
NNWeight
p162
(dp163
g3
F-0.04086769931867653
sba(innWeight
NNWeight
p164
(dp165
g3
F0.018679692173230733
sba(innWeight
NNWeight
p166
(dp167
g3
F-0.007314762574530443
sba(innWeight
NNWeight
p168
(dp169
g3
F0.011396609667038492
sba(innWeight
NNWeight
p170
(dp171
g3
F-0.031810400902698203
sba(innWeight
NNWeight
p172
(dp173
g3
F0.048634160350806255
sba(innWeight
NNWeight
p174
(dp175
g3
F-0.00519796461193851
sba(innWeight
NNWeight
p176
(dp177
g3
F0.004577388972750025
sba(innWeight
NNWeight
p178
(dp179
g3
F-0.0038521569303754076
sba(innWeight
NNWeight
p180
(dp181
g3
F0.00780319867404816
sba(innWeight
NNWeight
p182
(dp183
g3
F0.04963342269693164
sba(innWeight
NNWeight
p184
(dp185
g3
F0.0004576313385247124
sba(innWeight
NNWeight
p186
(dp187
g3
F-0.012190095747995176
sba(innWeight
NNWeight
p188
(dp189
g3
F-0.01283306601910863
sba(innWeight
NNWeight
p190
(dp191
g3
F-0.0363151484545153
sba(innWeight
NNWeight
p192
(dp193
g3
F0.010651118667606277
sba(innWeight
NNWeight
p194
(dp195
g3
F-0.012331038599096296
sba(innWeight
NNWeight
p196
(dp197
g3
F-0.007105491553771143
sba(innWeight
NNWeight
p198
(dp199
g3
F-0.054486613932413316
sba(innWeight
NNWeight
p200
(dp201
g3
F-0.015640626278692775
sba(innWeight
NNWeight
p202
(dp203
g3
F0.030137840949981617
sba(innWeight
NNWeight
p204
(dp205
g3
F0.02203493928590692
sba(innWeight
NNWeight
p206
(dp207
g3
F0.04942811201001784
sba(innWeight
NNWeight
p208
(dp209
g3
F0.02388930957451628
sba(innWeight
NNWeight
p210
(dp211
g3
F-0.038136541538486064
sba(innWeight
NNWeight
p212
(dp213
g3
F0.027142749968308878
sba(innWeight
NNWeight
p214
(dp215
g3
F0.017216367081717882
sba(innWeight
NNWeight
p216
(dp217
g3
F-0.022144979910004282
sba(innWeight
NNWeight
p218
(dp219
g3
F0.04954968862026119
sba(innWeight
NNWeight
p220
(dp221
g3
F-0.012407054835875729
sba(innWeight
NNWeight
p222
(dp223
g3
F-0.011703149165801868
sba(innWeight
NNWeight
p224
(dp225
g3
F0.049209502051945304
sba(innWeight
NNWeight
p226
(dp227
g3
F-0.008251411612681506
sba(innWeight
NNWeight
p228
(dp229
g3
F0.01095449036817013
sba(innWeight
NNWeight
p230
(dp231
g3
F-0.03309778371375639
sba(innWeight
NNWeight
p232
(dp233
g3
F-0.04586163041444222
sba(innWeight
NNWeight
p234
(dp235
g3
F-0.023194308654345252
sba(innWeight
NNWeight
p236
(dp237
g3
F0.009101362214781375
sba(innWeight
NNWeight
p238
(dp239
g3
F-0.06560005419849912
sba(innWeight
NNWeight
p240
(dp241
g3
F0.02474194329720219
sba(innWeight
NNWeight
p242
(dp243
g3
F-0.007337939732237601
sba(innWeight
NNWeight
p244
(dp245
g3
F-0.0045991939784100575
sba(innWeight
NNWeight
p246
(dp247
g3
F-0.0061751922105495
sba(innWeight
NNWeight
p248
(dp249
g3
F0.03284696516197287
sba(innWeight
NNWeight
p250
(dp251
g3
F0.02811983784493439
sba(innWeight
NNWeight
p252
(dp253
g3
F-0.03614922922598074
sba(innWeight
NNWeight
p254
(dp255
g3
F-0.02940792915512059
sba(innWeight
NNWeight
p256
(dp257
g3
F-0.040928307940098496
sba(innWeight
NNWeight
p258
(dp259
g3
F0.02124383251450685
sba(innWeight
NNWeight
p260
(dp261
g3
F-0.013488877995185495
sba(innWeight
NNWeight
p262
(dp263
g3
F-0.02181410377788259
sba(innWeight
NNWeight
p264
(dp265
g3
F-0.04199313027204169
sba(innWeight
NNWeight
p266
(dp267
g3
F-0.0074069570159677415
sba(innWeight
NNWeight
p268
(dp269
g3
F-0.057315843440130264
sba(innWeight
NNWeight
p270
(dp271
g3
F-0.016991038782578415
sba(innWeight
NNWeight
p272
(dp273
g3
F0.02016311458438136
sba(innWeight
NNWeight
p274
(dp275
g3
F-0.04310407268940126
sba(innWeight
NNWeight
p276
(dp277
g3
F-0.027345592342527845
sba(innWeight
NNWeight
p278
(dp279
g3
F-0.05358952806505559
sba(innWeight
NNWeight
p280
(dp281
g3
F0.04441280313893217
sba(innWeight
NNWeight
p282
(dp283
g3
F-0.00039771680318052545
sba(innWeight
NNWeight
p284
(dp285
g3
F-0.04592484382907692
sba(innWeight
NNWeight
p286
(dp287
g3
F-0.007128249630937088
sba(innWeight
NNWeight
p288
(dp289
g3
F-0.02136970901999765
sba(innWeight
NNWeight
p290
(dp291
g3
F-0.0045940365686225615
sba(innWeight
NNWeight
p292
(dp293
g3
F-0.06221133860678354
sba(innWeight
NNWeight
p294
(dp295
g3
F0.022494761577617726
sba(innWeight
NNWeight
p296
(dp297
g3
F0.009949848042206808
sba(innWeight
NNWeight
p298
(dp299
g3
F0.01584206282644308
sba(innWeight
NNWeight
p300
(dp301
g3
F-0.0625490340166422
sba(innWeight
NNWeight
p302
(dp303
g3
F-0.007278776405420754
sba(innWeight
NNWeight
p304
(dp305
g3
F0.028205763453246872
sba(innWeight
NNWeight
p306
(dp307
g3
F0.0031394735142139816
sba(innWeight
NNWeight
p308
(dp309
g3
F-0.017184306188255283
sba(innWeight
NNWeight
p310
(dp311
g3
F0.014477996139941007
sba(innWeight
NNWeight
p312
(dp313
g3
F0.031240769329916297
sba(innWeight
NNWeight
p314
(dp315
g3
F0.017514759781389853
sba(innWeight
NNWeight
p316
(dp317
g3
F0.0003988901739960659
sba(innWeight
NNWeight
p318
(dp319
g3
F0.023070259688478378
sba(innWeight
NNWeight
p320
(dp321
g3
F0.016011743304216775
sba(innWeight
NNWeight
p322
(dp323
g3
F0.03599520999881284
sba(innWeight
NNWeight
p324
(dp325
g3
F-0.0033832277142099567
sba(innWeight
NNWeight
p326
(dp327
g3
F-0.02270068315907915
sba(innWeight
NNWeight
p328
(dp329
g3
F0.0209150812051421
sba(innWeight
NNWeight
p330
(dp331
g3
F-0.04872652880822752
sba(innWeight
NNWeight
p332
(dp333
g3
F0.026154798086887584
sba(innWeight
NNWeight
p334
(dp335
g3
F0.024130157992259677
sba(innWeight
NNWeight
p336
(dp337
g3
F-0.035719745435262615
sba(innWeight
NNWeight
p338
(dp339
g3
F-0.03033308231229052
sba(innWeight
NNWeight
p340
(dp341
g3
F0.0070404510977382494
sba(innWeight
NNWeight
p342
(dp343
g3
F-0.021455197350299778
sba(innWeight
NNWeight
p344
(dp345
g3
F0.0007770542807776724
sba(innWeight
NNWeight
p346
(dp347
g3
F-0.028499916081325818
sba(innWeight
NNWeight
p348
(dp349
g3
F-0.029608062350174786
sba(innWeight
NNWeight
p350
(dp351
g3
F0.027767353089855017
sba(innWeight
NNWeight
p352
(dp353
g3
F0.011052539882461848
sba(innWeight
NNWeight
p354
(dp355
g3
F0.017839172664510173
sba(innWeight
NNWeight
p356
(dp357
g3
F-0.07089478781291297
sba(innWeight
NNWeight
p358
(dp359
g3
F0.042833748186472786
sba(innWeight
NNWeight
p360
(dp361
g3
F-0.038041626684949356
sba(innWeight
NNWeight
p362
(dp363
g3
F-0.011145762437608385
sba(innWeight
NNWeight
p364
(dp365
g3
F-0.026284927273259737
sba(innWeight
NNWeight
p366
(dp367
g3
F0.027332033710473172
sba(innWeight
NNWeight
p368
(dp369
g3
F-0.008466155074408187
sba(innWeight
NNWeight
p370
(dp371
g3
F-0.04434736648684534
sba(innWeight
NNWeight
p372
(dp373
g3
F-0.033935014686401324
sba(innWeight
NNWeight
p374
(dp375
g3
F-0.0223346822867781
sba(innWeight
NNWeight
p376
(dp377
g3
F-0.00026579114366637635
sba(innWeight
NNWeight
p378
(dp379
g3
F-0.021024364369106752
sba(innWeight
NNWeight
p380
(dp381
g3
F-0.03202100820670211
sba(innWeight
NNWeight
p382
(dp383
g3
F0.036896669529141383
sba(innWeight
NNWeight
p384
(dp385
g3
F-0.032411155354693286
sba(innWeight
NNWeight
p386
(dp387
g3
F0.008248318041029047
sba(innWeight
NNWeight
p388
(dp389
g3
F-0.031672238486299235
sba(innWeight
NNWeight
p390
(dp391
g3
F0.02157423808737498
sba(innWeight
NNWeight
p392
(dp393
g3
F-0.03696702078331071
sba(innWeight
NNWeight
p394
(dp395
g3
F-0.07103118730099621
sba(innWeight
NNWeight
p396
(dp397
g3
F-0.018781533673886377
sba(innWeight
NNWeight
p398
(dp399
g3
F0.060985267091136657
sba(innWeight
NNWeight
p400
(dp401
g3
F-0.0012236208353388477
sba(innWeight
NNWeight
p402
(dp403
g3
F0.02887690980316156
sba(innWeight
NNWeight
p404
(dp405
g3
F0.004928360660346727
sba(innWeight
NNWeight
p406
(dp407
g3
F-0.06793623575100945
sba(innWeight
NNWeight
p408
(dp409
g3
F-0.0012294816105884103
sba(innWeight
NNWeight
p410
(dp411
g3
F-0.025826559138273187
sba(innWeight
NNWeight
p412
(dp413
g3
F0.03796429309690227
sba(innWeight
NNWeight
p414
(dp415
g3
F-0.01258279250919727
sba(innWeight
NNWeight
p416
(dp417
g3
F-0.039173760770729496
sba(innWeight
NNWeight
p418
(dp419
g3
F-0.0014154971944751857
sba(innWeight
NNWeight
p420
(dp421
g3
F-0.012642583685441864
sba(innWeight
NNWeight
p422
(dp423
g3
F0.001355277046301534
sba(innWeight
NNWeight
p424
(dp425
g3
F-0.028286722912326465
sba(innWeight
NNWeight
p426
(dp427
g3
F-0.03974415280424098
sba(innWeight
NNWeight
p428
(dp429
g3
F-0.022720138296471862
sba(innWeight
NNWeight
p430
(dp431
g3
F-0.04831717857882028
sba(innWeight
NNWeight
p432
(dp433
g3
F-0.002689519438675855
sba(innWeight
NNWeight
p434
(dp435
g3
F-0.02231849898888404
sba(innWeight
NNWeight
p436
(dp437
g3
F-0.016392065352332022
sba(innWeight
NNWeight
p438
(dp439
g3
F0.0333756330179182
sba(innWeight
NNWeight
p440
(dp441
g3
F0.020491174412954616
sba(innWeight
NNWeight
p442
(dp443
g3
F0.011520825133228904
sba(innWeight
NNWeight
p444
(dp445
g3
F-0.0388204358829261
sba(innWeight
NNWeight
p446
(dp447
g3
F0.005953777487932809
sba(innWeight
NNWeight
p448
(dp449
g3
F0.037043050154484176
sba(innWeight
NNWeight
p450
(dp451
g3
F0.005941449160192269
sba(innWeight
NNWeight
p452
(dp453
g3
F-0.004823232374770547
sba(innWeight
NNWeight
p454
(dp455
g3
F-0.018005516559112752
sba(innWeight
NNWeight
p456
(dp457
g3
F0.03674176563295963
sba(innWeight
NNWeight
p458
(dp459
g3
F-0.03741108386101754
sba(innWeight
NNWeight
p460
(dp461
g3
F-0.017837380414027156
sba(innWeight
NNWeight
p462
(dp463
g3
F0.009164871470132847
sba(innWeight
NNWeight
p464
(dp465
g3
F0.031707287024131614
sba(innWeight
NNWeight
p466
(dp467
g3
F0.03619012473290781
sba(innWeight
NNWeight
p468
(dp469
g3
F0.028443626335674124
sba(innWeight
NNWeight
p470
(dp471
g3
F0.010954519680477944
sba(innWeight
NNWeight
p472
(dp473
g3
F0.011523487826317496
sba(innWeight
NNWeight
p474
(dp475
g3
F0.00855054321996993
sba(innWeight
NNWeight
p476
(dp477
g3
F0.0011947671693295356
sba(innWeight
NNWeight
p478
(dp479
g3
F0.027162817872934657
sba(innWeight
NNWeight
p480
(dp481
g3
F-0.0001997919919938047
sba(innWeight
NNWeight
p482
(dp483
g3
F-0.0020805043316444206
sba(innWeight
NNWeight
p484
(dp485
g3
F0.04828417219983947
sba(innWeight
NNWeight
p486
(dp487
g3
F0.02754555722592787
sba(innWeight
NNWeight
p488
(dp489
g3
F-0.01509697439567264
sba(innWeight
NNWeight
p490
(dp491
g3
F-0.013033992885470821
sba(innWeight
NNWeight
p492
(dp493
g3
F-0.039910326959187864
sba(innWeight
NNWeight
p494
(dp495
g3
F0.0184551079555106
sba(innWeight
NNWeight
p496
(dp497
g3
F-0.0193650896755898
sba(innWeight
NNWeight
p498
(dp499
g3
F-0.017525168662694806
sba(innWeight
NNWeight
p500
(dp501
g3
F0.04984290569278254
sba(innWeight
NNWeight
p502
(dp503
g3
F-0.02286271784528463
sba(innWeight
NNWeight
p504
(dp505
g3
F-0.011149796854208738
sba(innWeight
NNWeight
p506
(dp507
g3
F0.03491890147421534
sba(innWeight
NNWeight
p508
(dp509
g3
F-0.001786793528841107
sba(innWeight
NNWeight
p510
(dp511
g3
F-0.06973000412966751
sba(innWeight
NNWeight
p512
(dp513
g3
F-0.03658106158391057
sba(innWeight
NNWeight
p514
(dp515
g3
F0.007481841685090605
sba(innWeight
NNWeight
p516
(dp517
g3
F0.030923635217073257
sba(innWeight
NNWeight
p518
(dp519
g3
F-0.0203308234607685
sba(innWeight
NNWeight
p520
(dp521
g3
F-0.011298366613008638
sba(innWeight
NNWeight
p522
(dp523
g3
F0.020142320726947622
sba(innWeight
NNWeight
p524
(dp525
g3
F-0.04875983434786103
sba(innWeight
NNWeight
p526
(dp527
g3
F0.014225063803230525
sba(innWeight
NNWeight
p528
(dp529
g3
F-0.004160414064513876
sba(innWeight
NNWeight
p530
(dp531
g3
F-0.0344745014954761
sba(innWeight
NNWeight
p532
(dp533
g3
F-0.009675872133078496
sba(innWeight
NNWeight
p534
(dp535
g3
F0.055840565074989135
sba(innWeight
NNWeight
p536
(dp537
g3
F0.033433054949402755
sba(innWeight
NNWeight
p538
(dp539
g3
F-0.02588144036234264
sba(innWeight
NNWeight
p540
(dp541
g3
F0.024942242716761043
sba(innWeight
NNWeight
p542
(dp543
g3
F-0.024059800294246578
sba(innWeight
NNWeight
p544
(dp545
g3
F-0.003959652741552858
sba(innWeight
NNWeight
p546
(dp547
g3
F-0.023930491069830515
sba(innWeight
NNWeight
p548
(dp549
g3
F-0.006710630306107432
sba(innWeight
NNWeight
p550
(dp551
g3
F-0.09101858537568919
sba(innWeight
NNWeight
p552
(dp553
g3
F0.024596847194407256
sba(innWeight
NNWeight
p554
(dp555
g3
F-0.011718364482517701
sba(innWeight
NNWeight
p556
(dp557
g3
F0.012879714459183539
sba(innWeight
NNWeight
p558
(dp559
g3
F0.0006897238317270585
sba(innWeight
NNWeight
p560
(dp561
g3
F-0.03223247673177887
sba(innWeight
NNWeight
p562
(dp563
g3
F-0.04534260614807179
sba(innWeight
NNWeight
p564
(dp565
g3
F-0.0018134307941432635
sba(innWeight
NNWeight
p566
(dp567
g3
F-0.04583690723197224
sba(innWeight
NNWeight
p568
(dp569
g3
F0.0029899501081663885
sba(innWeight
NNWeight
p570
(dp571
g3
F0.01357320608219943
sba(innWeight
NNWeight
p572
(dp573
g3
F-0.07017272588670943
sba(innWeight
NNWeight
p574
(dp575
g3
F-0.04758986768328662
sba(innWeight
NNWeight
p576
(dp577
g3
F0.011172126633473816
sba(innWeight
NNWeight
p578
(dp579
g3
F0.04623598999383528
sba(innWeight
NNWeight
p580
(dp581
g3
F0.005834692938418035
sba(innWeight
NNWeight
p582
(dp583
g3
F-0.023620395148068456
sba(innWeight
NNWeight
p584
(dp585
g3
F-0.0007141803589210983
sba(innWeight
NNWeight
p586
(dp587
g3
F0.016868864020453875
sba(innWeight
NNWeight
p588
(dp589
g3
F-0.007001844182442952
sba(innWeight
NNWeight
p590
(dp591
g3
F0.009856251137501017
sba(innWeight
NNWeight
p592
(dp593
g3
F-0.027687455644767413
sba(innWeight
NNWeight
p594
(dp595
g3
F-0.0691624622266448
sba(innWeight
NNWeight
p596
(dp597
g3
F-0.03810316759565038
sba(innWeight
NNWeight
p598
(dp599
g3
F-0.019134626412647446
sba(innWeight
NNWeight
p600
(dp601
g3
F-0.02374767922350185
sba(innWeight
NNWeight
p602
(dp603
g3
F-0.09316676591565527
sba(innWeight
NNWeight
p604
(dp605
g3
F-0.004091991017582323
sba(innWeight
NNWeight
p606
(dp607
g3
F0.03231076409419083
sba(innWeight
NNWeight
p608
(dp609
g3
F-0.011441243366735824
sba(innWeight
NNWeight
p610
(dp611
g3
F0.003168024815053604
sba(innWeight
NNWeight
p612
(dp613
g3
F-0.02624842489351017
sba(innWeight
NNWeight
p614
(dp615
g3
F0.0009369118519809224
sba(innWeight
NNWeight
p616
(dp617
g3
F0.015079099837935837
sba(innWeight
NNWeight
p618
(dp619
g3
F-0.00728840479039786
sba(innWeight
NNWeight
p620
(dp621
g3
F0.009488496433699199
sba(innWeight
NNWeight
p622
(dp623
g3
F-0.009889136191630551
sba(innWeight
NNWeight
p624
(dp625
g3
F-0.05213058480486936
sba(innWeight
NNWeight
p626
(dp627
g3
F0.03223057198696157
sba(innWeight
NNWeight
p628
(dp629
g3
F-0.013790519883023178
sba(innWeight
NNWeight
p630
(dp631
g3
F-0.0006023723587840369
sba(innWeight
NNWeight
p632
(dp633
g3
F-0.0005799985011375507
sba(innWeight
NNWeight
p634
(dp635
g3
F-0.0026191996560242493
sba(innWeight
NNWeight
p636
(dp637
g3
F0.015331900913382098
sba(innWeight
NNWeight
p638
(dp639
g3
F0.03986920867318353
sba(innWeight
NNWeight
p640
(dp641
g3
F0.044684487021144595
sba(innWeight
NNWeight
p642
(dp643
g3
F-0.031230943836412266
sba(innWeight
NNWeight
p644
(dp645
g3
F0.023972548963548487
sba(innWeight
NNWeight
p646
(dp647
g3
F0.023901875820260696
sba(innWeight
NNWeight
p648
(dp649
g3
F-0.03918943601569898
sba(innWeight
NNWeight
p650
(dp651
g3
F-0.046117483581508856
sba(innWeight
NNWeight
p652
(dp653
g3
F-0.006736540350011871
sba(innWeight
NNWeight
p654
(dp655
g3
F0.00821285262894377
sba(innWeight
NNWeight
p656
(dp657
g3
F0.020651135265831396
sba(innWeight
NNWeight
p658
(dp659
g3
F0.0038268031276001225
sba(innWeight
NNWeight
p660
(dp661
g3
F-0.025729472579360514
sba(innWeight
NNWeight
p662
(dp663
g3
F-0.015852428559276717
sba(innWeight
NNWeight
p664
(dp665
g3
F0.028828992657073158
sba(innWeight
NNWeight
p666
(dp667
g3
F-0.013480087555189549
sba(innWeight
NNWeight
p668
(dp669
g3
F0.010660962253686184
sba(innWeight
NNWeight
p670
(dp671
g3
F0.004154378727672443
sba(innWeight
NNWeight
p672
(dp673
g3
F-0.016092657406973444
sba(innWeight
NNWeight
p674
(dp675
g3
F0.0063903197893810885
sba(innWeight
NNWeight
p676
(dp677
g3
F-0.015712515258287506
sba(innWeight
NNWeight
p678
(dp679
g3
F0.021119217212752405
sba(innWeight
NNWeight
p680
(dp681
g3
F-0.04062110903827122
sba(innWeight
NNWeight
p682
(dp683
g3
F0.0010536594499835979
sba(innWeight
NNWeight
p684
(dp685
g3
F-0.039872186386989486
sba(innWeight
NNWeight
p686
(dp687
g3
F0.04396457871425726
sba(innWeight
NNWeight
p688
(dp689
g3
F0.0042938647537291725
sba(innWeight
NNWeight
p690
(dp691
g3
F-0.000804285996750329
sba(innWeight
NNWeight
p692
(dp693
g3
F-0.07431546098815865
sba(innWeight
NNWeight
p694
(dp695
g3
F-0.031531906009249794
sba(innWeight
NNWeight
p696
(dp697
g3
F-0.003949781709551341
sba(innWeight
NNWeight
p698
(dp699
g3
F0.017353270117924532
sba(innWeight
NNWeight
p700
(dp701
g3
F0.016192204075231947
sba(innWeight
NNWeight
p702
(dp703
g3
F0.053979928246737155
sba(innWeight
NNWeight
p704
(dp705
g3
F-0.010022672153111152
sba(innWeight
NNWeight
p706
(dp707
g3
F0.028444700207048427
sba(innWeight
NNWeight
p708
(dp709
g3
F0.0058578968208601034
sba(innWeight
NNWeight
p710
(dp711
g3
F-0.03998896865628633
sba(innWeight
NNWeight
p712
(dp713
g3
F-0.045965425254500446
sba(innWeight
NNWeight
p714
(dp715
g3
F-0.011113178322873785
sba(innWeight
NNWeight
p716
(dp717
g3
F0.03323182438767227
sba(innWeight
NNWeight
p718
(dp719
g3
F-0.0047758638287653515
sba(innWeight
NNWeight
p720
(dp721
g3
F-0.04056818392319378
sba(innWeight
NNWeight
p722
(dp723
g3
F-0.008028127327789784
sba(innWeight
NNWeight
p724
(dp725
g3
F-0.03956187091306087
sba(innWeight
NNWeight
p726
(dp727
g3
F-0.06425523400849818
sba(innWeight
NNWeight
p728
(dp729
g3
F-0.022708391156464895
sba(innWeight
NNWeight
p730
(dp731
g3
F0.03292539655174724
sba(innWeight
NNWeight
p732
(dp733
g3
F-0.04171597096299281
sba(innWeight
NNWeight
p734
(dp735
g3
F-0.03021686972809367
sba(innWeight
NNWeight
p736
(dp737
g3
F0.026652121310214855
sba(innWeight
NNWeight
p738
(dp739
g3
F-0.01642272724558936
sba(innWeight
NNWeight
p740
(dp741
g3
F-0.025583232621358126
sba(innWeight
NNWeight
p742
(dp743
g3
F-0.013851288334487457
sba(innWeight
NNWeight
p744
(dp745
g3
F-0.03359225177570787
sba(innWeight
NNWeight
p746
(dp747
g3
F-0.005105508393098164
sba(innWeight
NNWeight
p748
(dp749
g3
F-0.02124738811165403
sba(innWeight
NNWeight
p750
(dp751
g3
F0.018453874306158562
sba(innWeight
NNWeight
p752
(dp753
g3
F-0.018049255069870235
sba(innWeight
NNWeight
p754
(dp755
g3
F0.024595066062981397
sba(innWeight
NNWeight
p756
(dp757
g3
F-0.032726251017095545
sba(innWeight
NNWeight
p758
(dp759
g3
F0.03054081536892245
sba(innWeight
NNWeight
p760
(dp761
g3
F-0.02002230908932505
sba(innWeight
NNWeight
p762
(dp763
g3
F0.0037024650319972294
sba(innWeight
NNWeight
p764
(dp765
g3
F0.0390886639235114
sba(innWeight
NNWeight
p766
(dp767
g3
F0.024982633689897792
sba(innWeight
NNWeight
p768
(dp769
g3
F-0.03531740308793642
sba(innWeight
NNWeight
p770
(dp771
g3
F-0.01944528049100354
sba(innWeight
NNWeight
p772
(dp773
g3
F-0.00038891381834001235
sba(innWeight
NNWeight
p774
(dp775
g3
F-0.02354490067231335
sba(innWeight
NNWeight
p776
(dp777
g3
F-0.009871729615996453
sba(innWeight
NNWeight
p778
(dp779
g3
F0.02964332291527387
sba(innWeight
NNWeight
p780
(dp781
g3
F-0.033103070101639646
sba(innWeight
NNWeight
p782
(dp783
g3
F-0.03908046715881339
sba(innWeight
NNWeight
p784
(dp785
g3
F-0.015866813710852728
sba(innWeight
NNWeight
p786
(dp787
g3
F-0.02897797702241905
sba(innWeight
NNWeight
p788
(dp789
g3
F-0.021589566164761105
sba(innWeight
NNWeight
p790
(dp791
g3
F-0.013362204580518941
sba(innWeight
NNWeight
p792
(dp793
g3
F0.010276729078289375
sba(innWeight
NNWeight
p794
(dp795
g3
F0.03369597951162422
sba(innWeight
NNWeight
p796
(dp797
g3
F-0.027920533558671915
sba(innWeight
NNWeight
p798
(dp799
g3
F-0.0037513289809443812
sba(innWeight
NNWeight
p800
(dp801
g3
F-0.003081998313483765
sba(innWeight
NNWeight
p802
(dp803
g3
F-0.045506529365753216
sba(innWeight
NNWeight
p804
(dp805
g3
F-0.04703007004916769
sba(innWeight
NNWeight
p806
(dp807
g3
F-0.0007206843824999266
sba(innWeight
NNWeight
p808
(dp809
g3
F0.010557804473063995
sba(innWeight
NNWeight
p810
(dp811
g3
F-0.012533110698646344
sba(innWeight
NNWeight
p812
(dp813
g3
F0.019372837930966863
sba(innWeight
NNWeight
p814
(dp815
g3
F-0.021919471794264254
sba(innWeight
NNWeight
p816
(dp817
g3
F-0.013085130788740792
sba(innWeight
NNWeight
p818
(dp819
g3
F-0.03505379681693671
sba(innWeight
NNWeight
p820
(dp821
g3
F-0.0345700391560016
sba(innWeight
NNWeight
p822
(dp823
g3
F0.02256837940397387
sba(innWeight
NNWeight
p824
(dp825
g3
F0.005781220467078031
sba(innWeight
NNWeight
p826
(dp827
g3
F-0.02666923995174987
sba(innWeight
NNWeight
p828
(dp829
g3
F-0.04534670963864346
sba(innWeight
NNWeight
p830
(dp831
g3
F-0.012632845016503195
sba(innWeight
NNWeight
p832
(dp833
g3
F0.020649103036034722
sba(innWeight
NNWeight
p834
(dp835
g3
F-0.014681101069167615
sba(innWeight
NNWeight
p836
(dp837
g3
F-0.006811321309024236
sba(innWeight
NNWeight
p838
(dp839
g3
F-0.014319784057109677
sba(innWeight
NNWeight
p840
(dp841
g3
F-0.025393053381312664
sba(innWeight
NNWeight
p842
(dp843
g3
F0.002762300680076999
sba(innWeight
NNWeight
p844
(dp845
g3
F-0.0032050010589382196
sba(innWeight
NNWeight
p846
(dp847
g3
F0.05877447596050683
sba(innWeight
NNWeight
p848
(dp849
g3
F0.011738157400981598
sba(innWeight
NNWeight
p850
(dp851
g3
F-0.022297138882279802
sba(innWeight
NNWeight
p852
(dp853
g3
F0.00896674037263206
sba(innWeight
NNWeight
p854
(dp855
g3
F0.03967466481971394
sba(innWeight
NNWeight
p856
(dp857
g3
F0.024890276292022197
sba(innWeight
NNWeight
p858
(dp859
g3
F0.026692799005542476
sba(innWeight
NNWeight
p860
(dp861
g3
F-0.011085674668587805
sba(innWeight
NNWeight
p862
(dp863
g3
F-0.021407338317100642
sba(innWeight
NNWeight
p864
(dp865
g3
F-0.02463130357024936
sba(innWeight
NNWeight
p866
(dp867
g3
F-0.026219493280698926
sba(innWeight
NNWeight
p868
(dp869
g3
F0.029684145780513736
sba(innWeight
NNWeight
p870
(dp871
g3
F-0.028683868650560638
sba(innWeight
NNWeight
p872
(dp873
g3
F0.03854122248647782
sba(innWeight
NNWeight
p874
(dp875
g3
F0.026939806136148443
sba(innWeight
NNWeight
p876
(dp877
g3
F-0.017584856420063168
sba(innWeight
NNWeight
p878
(dp879
g3
F-0.031563138323124254
sba(innWeight
NNWeight
p880
(dp881
g3
F-0.04765013451968017
sba(innWeight
NNWeight
p882
(dp883
g3
F0.018159538329125483
sba(innWeight
NNWeight
p884
(dp885
g3
F-0.03432462210976737
sba(innWeight
NNWeight
p886
(dp887
g3
F-0.03444591538565223
sba(innWeight
NNWeight
p888
(dp889
g3
F-0.00465065650696556
sba(innWeight
NNWeight
p890
(dp891
g3
F0.05554308771783441
sba(innWeight
NNWeight
p892
(dp893
g3
F-0.016479037479202242
sba(innWeight
NNWeight
p894
(dp895
g3
F-0.045060710674362764
sba(innWeight
NNWeight
p896
(dp897
g3
F-0.045402715121231466
sba(innWeight
NNWeight
p898
(dp899
g3
F0.010911987745384528
sba(innWeight
NNWeight
p900
(dp901
g3
F-0.00917394618919703
sba(innWeight
NNWeight
p902
(dp903
g3
F0.03401475892105649
sba(innWeight
NNWeight
p904
(dp905
g3
F-0.025186993048095633
sba(innWeight
NNWeight
p906
(dp907
g3
F-0.023692110236604825
sba(innWeight
NNWeight
p908
(dp909
g3
F0.010244703506491185
sba(innWeight
NNWeight
p910
(dp911
g3
F-0.02849382690969875
sba(innWeight
NNWeight
p912
(dp913
g3
F-0.03921107764244093
sba(innWeight
NNWeight
p914
(dp915
g3
F0.007081243550414014
sba(innWeight
NNWeight
p916
(dp917
g3
F0.03173554685147455
sba(innWeight
NNWeight
p918
(dp919
g3
F0.0252949794570947
sba(innWeight
NNWeight
p920
(dp921
g3
F0.007062340075413443
sba(innWeight
NNWeight
p922
(dp923
g3
F0.016866508921683735
sba(innWeight
NNWeight
p924
(dp925
g3
F0.053522496120889655
sba(innWeight
NNWeight
p926
(dp927
g3
F-0.04817429132965252
sba(innWeight
NNWeight
p928
(dp929
g3
F-0.019466512207386582
sba(innWeight
NNWeight
p930
(dp931
g3
F0.011071541729877241
sba(innWeight
NNWeight
p932
(dp933
g3
F0.03525534494227199
sba(innWeight
NNWeight
p934
(dp935
g3
F0.00818104356841724
sba(innWeight
NNWeight
p936
(dp937
g3
F0.001578188135876791
sba(innWeight
NNWeight
p938
(dp939
g3
F0.03358660032256619
sba(innWeight
NNWeight
p940
(dp941
g3
F-0.009990855250829496
sba(innWeight
NNWeight
p942
(dp943
g3
F-0.029426528246987424
sba(innWeight
NNWeight
p944
(dp945
g3
F-0.042332793048357444
sba(innWeight
NNWeight
p946
(dp947
g3
F-0.030785377046624828
sba(innWeight
NNWeight
p948
(dp949
g3
F0.02551537216489877
sba(innWeight
NNWeight
p950
(dp951
g3
F-0.016625360697974132
sba(innWeight
NNWeight
p952
(dp953
g3
F0.012064443222415282
sba(innWeight
NNWeight
p954
(dp955
g3
F0.009299869887173342
sba(innWeight
NNWeight
p956
(dp957
g3
F0.03430456393929846
sba(innWeight
NNWeight
p958
(dp959
g3
F0.02378808163866117
sba(innWeight
NNWeight
p960
(dp961
g3
F0.009251295984106418
sba(innWeight
NNWeight
p962
(dp963
g3
F-0.011494543882512937
sba(innWeight
NNWeight
p964
(dp965
g3
F0.025011111062576186
sba(innWeight
NNWeight
p966
(dp967
g3
F-0.025078494185130636
sba(innWeight
NNWeight
p968
(dp969
g3
F0.022226099050137952
sba(innWeight
NNWeight
p970
(dp971
g3
F-0.04766946277456562
sba(innWeight
NNWeight
p972
(dp973
g3
F-0.018414465488658528
sba(innWeight
NNWeight
p974
(dp975
g3
F-0.027483290412461014
sba(innWeight
NNWeight
p976
(dp977
g3
F-0.02550390469289816
sba(innWeight
NNWeight
p978
(dp979
g3
F-0.02136300755895794
sba(innWeight
NNWeight
p980
(dp981
g3
F0.01854238752555766
sba(innWeight
NNWeight
p982
(dp983
g3
F0.003235744078241259
sba(innWeight
NNWeight
p984
(dp985
g3
F0.014257961218805116
sba(innWeight
NNWeight
p986
(dp987
g3
F0.029588230600666156
sba(innWeight
NNWeight
p988
(dp989
g3
F0.006354694018932329
sba(innWeight
NNWeight
p990
(dp991
g3
F0.004875858105692284
sba(innWeight
NNWeight
p992
(dp993
g3
F-0.023600881867406998
sba(innWeight
NNWeight
p994
(dp995
g3
F0.043104450088695685
sba(innWeight
NNWeight
p996
(dp997
g3
F0.03201815318937829
sba(innWeight
NNWeight
p998
(dp999
g3
F0.0014252025884945179
sba(innWeight
NNWeight
p1000
(dp1001
g3
F0.005890195403060253
sba(innWeight
NNWeight
p1002
(dp1003
g3
F0.01528749713716779
sba(innWeight
NNWeight
p1004
(dp1005
g3
F-0.025104804483719333
sba(innWeight
NNWeight
p1006
(dp1007
g3
F-0.025791963599361378
sba(innWeight
NNWeight
p1008
(dp1009
g3
F-0.009161381770786327
sba(innWeight
NNWeight
p1010
(dp1011
g3
F-0.0022390406488246918
sba(innWeight
NNWeight
p1012
(dp1013
g3
F-0.04886914429904516
sba(innWeight
NNWeight
p1014
(dp1015
g3
F0.011815141243880452
sba(innWeight
NNWeight
p1016
(dp1017
g3
F0.03271089229041138
sba(innWeight
NNWeight
p1018
(dp1019
g3
F0.015055468140825585
sba(innWeight
NNWeight
p1020
(dp1021
g3
F0.01461793263859337
sba(innWeight
NNWeight
p1022
(dp1023
g3
F-0.03593562124410902
sba(innWeight
NNWeight
p1024
(dp1025
g3
F0.026695902580177674
sba(innWeight
NNWeight
p1026
(dp1027
g3
F0.0203311640981233
sba(innWeight
NNWeight
p1028
(dp1029
g3
F-0.012096097340649557
sba(innWeight
NNWeight
p1030
(dp1031
g3
F-0.026915224074856817
sba(innWeight
NNWeight
p1032
(dp1033
g3
F0.03272294816339989
sba(innWeight
NNWeight
p1034
(dp1035
g3
F-0.009000880252534439
sba(innWeight
NNWeight
p1036
(dp1037
g3
F0.00013768145313901802
sba(innWeight
NNWeight
p1038
(dp1039
g3
F0.004299799356930999
sba(innWeight
NNWeight
p1040
(dp1041
g3
F0.03339948038528924
sba(innWeight
NNWeight
p1042
(dp1043
g3
F-0.03564007547611681
sba(innWeight
NNWeight
p1044
(dp1045
g3
F-0.0006712988759329491
sba(innWeight
NNWeight
p1046
(dp1047
g3
F0.019542495542357614
sba(innWeight
NNWeight
p1048
(dp1049
g3
F-0.008852097644755651
sba(innWeight
NNWeight
p1050
(dp1051
g3
F-0.0002708998787301592
sba(innWeight
NNWeight
p1052
(dp1053
g3
F0.012292664729798772
sba(innWeight
NNWeight
p1054
(dp1055
g3
F-0.05202254033742358
sba(innWeight
NNWeight
p1056
(dp1057
g3
F-0.02167773196658394
sba(innWeight
NNWeight
p1058
(dp1059
g3
F-0.008036554751501022
sba(innWeight
NNWeight
p1060
(dp1061
g3
F0.0035743453314436816
sba(innWeight
NNWeight
p1062
(dp1063
g3
F0.008189410719666633
sba(innWeight
NNWeight
p1064
(dp1065
g3
F0.03798990577201192
sba(innWeight
NNWeight
p1066
(dp1067
g3
F-0.02609536072000039
sba(innWeight
NNWeight
p1068
(dp1069
g3
F-0.017310546164870155
sba(innWeight
NNWeight
p1070
(dp1071
g3
F-0.02087157500556226
sba(innWeight
NNWeight
p1072
(dp1073
g3
F-0.0002456950224844698
sba(innWeight
NNWeight
p1074
(dp1075
g3
F-0.0060056194641806854
sba(innWeight
NNWeight
p1076
(dp1077
g3
F0.010367299999384861
sba(innWeight
NNWeight
p1078
(dp1079
g3
F0.02883339138279655
sba(innWeight
NNWeight
p1080
(dp1081
g3
F0.0199646227260419
sba(innWeight
NNWeight
p1082
(dp1083
g3
F-0.004756798233213668
sba(innWeight
NNWeight
p1084
(dp1085
g3
F0.00660692616912616
sba(innWeight
NNWeight
p1086
(dp1087
g3
F0.0242208121575432
sba(innWeight
NNWeight
p1088
(dp1089
g3
F-0.03193687385761268
sba(innWeight
NNWeight
p1090
(dp1091
g3
F0.02752157886616718
sba(innWeight
NNWeight
p1092
(dp1093
g3
F0.011173975962382066
sba(innWeight
NNWeight
p1094
(dp1095
g3
F-0.023351039432045778
sba(innWeight
NNWeight
p1096
(dp1097
g3
F-0.05812531408051473
sba(innWeight
NNWeight
p1098
(dp1099
g3
F-0.01579687104884063
sba(innWeight
NNWeight
p1100
(dp1101
g3
F0.0007810128371434899
sba(innWeight
NNWeight
p1102
(dp1103
g3
F-0.05167737270967511
sba(innWeight
NNWeight
p1104
(dp1105
g3
F-0.032169869730198385
sba(innWeight
NNWeight
p1106
(dp1107
g3
F0.004675214216068533
sba(innWeight
NNWeight
p1108
(dp1109
g3
F-0.023749499692764693
sba(innWeight
NNWeight
p1110
(dp1111
g3
F-0.019369862267142438
sba(innWeight
NNWeight
p1112
(dp1113
g3
F-0.013356437293716274
sba(innWeight
NNWeight
p1114
(dp1115
g3
F-0.0008774449936822075
sba(innWeight
NNWeight
p1116
(dp1117
g3
F-0.019692221241486688
sba(innWeight
NNWeight
p1118
(dp1119
g3
F0.009808599091775528
sba(innWeight
NNWeight
p1120
(dp1121
g3
F0.06906642001821428
sba(innWeight
NNWeight
p1122
(dp1123
g3
F-0.026159061936515248
sba(innWeight
NNWeight
p1124
(dp1125
g3
F0.005037100027983043
sba(innWeight
NNWeight
p1126
(dp1127
g3
F0.0007557464974453684
sba(innWeight
NNWeight
p1128
(dp1129
g3
F-0.030128832172272534
sba(innWeight
NNWeight
p1130
(dp1131
g3
F-0.022440817502395276
sba(innWeight
NNWeight
p1132
(dp1133
g3
F0.002074862814456553
sba(innWeight
NNWeight
p1134
(dp1135
g3
F-0.0390970355946855
sba(innWeight
NNWeight
p1136
(dp1137
g3
F-0.02874096854394593
sba(innWeight
NNWeight
p1138
(dp1139
g3
F-0.020318569149488975
sba(innWeight
NNWeight
p1140
(dp1141
g3
F-0.01733594459995379
sba(innWeight
NNWeight
p1142
(dp1143
g3
F0.009788388011525264
sba(innWeight
NNWeight
p1144
(dp1145
g3
F-0.05464095113583093
sba(innWeight
NNWeight
p1146
(dp1147
g3
F0.021313293986986413
sba(innWeight
NNWeight
p1148
(dp1149
g3
F-0.04493883531051567
sba(innWeight
NNWeight
p1150
(dp1151
g3
F0.019808496209153644
sba(innWeight
NNWeight
p1152
(dp1153
g3
F-0.037782157194783395
sba(innWeight
NNWeight
p1154
(dp1155
g3
F-0.05742254176820558
sba(innWeight
NNWeight
p1156
(dp1157
g3
F-0.024336902307114643
sba(innWeight
NNWeight
p1158
(dp1159
g3
F0.028778279899916742
sba(innWeight
NNWeight
p1160
(dp1161
g3
F-0.03156403936435097
sba(innWeight
NNWeight
p1162
(dp1163
g3
F0.01144960068585317
sba(innWeight
NNWeight
p1164
(dp1165
g3
F-0.03571641640283391
sba(innWeight
NNWeight
p1166
(dp1167
g3
F-0.012638774926683957
sba(innWeight
NNWeight
p1168
(dp1169
g3
F0.03202907779922033
sba(innWeight
NNWeight
p1170
(dp1171
g3
F0.00800933189988895
sba(innWeight
NNWeight
p1172
(dp1173
g3
F0.0014338729556715771
sba(innWeight
NNWeight
p1174
(dp1175
g3
F-0.013451499929162693
sba(innWeight
NNWeight
p1176
(dp1177
g3
F-0.05657354567768646
sba(innWeight
NNWeight
p1178
(dp1179
g3
F0.02242124639004037
sba(innWeight
NNWeight
p1180
(dp1181
g3
F-0.043264070433796105
sba(innWeight
NNWeight
p1182
(dp1183
g3
F0.0408720663469947
sba(innWeight
NNWeight
p1184
(dp1185
g3
F-0.032205453932012754
sba(innWeight
NNWeight
p1186
(dp1187
g3
F-0.009742951589526932
sba(innWeight
NNWeight
p1188
(dp1189
g3
F-0.016772296010504912
sba(innWeight
NNWeight
p1190
(dp1191
g3
F-0.019329328757258478
sba(innWeight
NNWeight
p1192
(dp1193
g3
F-0.028435721818065134
sba(innWeight
NNWeight
p1194
(dp1195
g3
F-0.00917336273867021
sba(innWeight
NNWeight
p1196
(dp1197
g3
F-0.03440207397192802
sba(innWeight
NNWeight
p1198
(dp1199
g3
F-0.009750901093699815
sba(innWeight
NNWeight
p1200
(dp1201
g3
F-0.016531703527576515
sba(innWeight
NNWeight
p1202
(dp1203
g3
F-0.016610211525255658
sba(innWeight
NNWeight
p1204
(dp1205
g3
F-0.022295647727732
sba(innWeight
NNWeight
p1206
(dp1207
g3
F-0.033364701488404924
sba(innWeight
NNWeight
p1208
(dp1209
g3
F-0.024509781891970877
sba(innWeight
NNWeight
p1210
(dp1211
g3
F0.027034058765185366
sba(innWeight
NNWeight
p1212
(dp1213
g3
F0.03330373892498276
sba(innWeight
NNWeight
p1214
(dp1215
g3
F-0.05613237453374129
sba(innWeight
NNWeight
p1216
(dp1217
g3
F0.0005008174959994389
sba(innWeight
NNWeight
p1218
(dp1219
g3
F0.039235914218170964
sba(innWeight
NNWeight
p1220
(dp1221
g3
F0.03741483553869506
sba(innWeight
NNWeight
p1222
(dp1223
g3
F0.028391561355161268
sba(innWeight
NNWeight
p1224
(dp1225
g3
F0.020730924178796753
sba(innWeight
NNWeight
p1226
(dp1227
g3
F-0.006399341521220266
sba(innWeight
NNWeight
p1228
(dp1229
g3
F0.001142483205284236
sba(innWeight
NNWeight
p1230
(dp1231
g3
F-0.01044680171697146
sba(innWeight
NNWeight
p1232
(dp1233
g3
F-0.03860298194959263
sba(innWeight
NNWeight
p1234
(dp1235
g3
F-0.031495615090868824
sba(innWeight
NNWeight
p1236
(dp1237
g3
F-0.02940400855570748
sba(innWeight
NNWeight
p1238
(dp1239
g3
F-0.008075767924514992
sba(innWeight
NNWeight
p1240
(dp1241
g3
F0.003739375304956938
sba(innWeight
NNWeight
p1242
(dp1243
g3
F0.02411602429767939
sba(innWeight
NNWeight
p1244
(dp1245
g3
F-0.05370910109875799
sba(innWeight
NNWeight
p1246
(dp1247
g3
F-0.01527435534107758
sba(innWeight
NNWeight
p1248
(dp1249
g3
F0.03130749109037243
sba(innWeight
NNWeight
p1250
(dp1251
g3
F0.024032130077399464
sba(innWeight
NNWeight
p1252
(dp1253
g3
F0.02018979069210262
sba(innWeight
NNWeight
p1254
(dp1255
g3
F-0.0302984915233387
sba(innWeight
NNWeight
p1256
(dp1257
g3
F-0.02685479694053215
sba(innWeight
NNWeight
p1258
(dp1259
g3
F0.0003935295509887207
sba(innWeight
NNWeight
p1260
(dp1261
g3
F0.015976769298563825
sba(innWeight
NNWeight
p1262
(dp1263
g3
F-0.021993400444462168
sba(innWeight
NNWeight
p1264
(dp1265
g3
F0.007018153393738135
sba(innWeight
NNWeight
p1266
(dp1267
g3
F0.021940364203212718
sba(innWeight
NNWeight
p1268
(dp1269
g3
F-0.0110112529129143
sba(innWeight
NNWeight
p1270
(dp1271
g3
F-0.02893440834676344
sba(innWeight
NNWeight
p1272
(dp1273
g3
F-0.008664991950551246
sba(innWeight
NNWeight
p1274
(dp1275
g3
F0.0026985249297024217
sba(innWeight
NNWeight
p1276
(dp1277
g3
F-0.018680176129356234
sba(innWeight
NNWeight
p1278
(dp1279
g3
F-0.0064217901957108
sba(innWeight
NNWeight
p1280
(dp1281
g3
F0.058381749604007396
sba(innWeight
NNWeight
p1282
(dp1283
g3
F-0.021849463700091613
sba(innWeight
NNWeight
p1284
(dp1285
g3
F-0.033931719868105115
sba(innWeight
NNWeight
p1286
(dp1287
g3
F-0.004433153081148606
sba(innWeight
NNWeight
p1288
(dp1289
g3
F-0.011688545101243715
sba(innWeight
NNWeight
p1290
(dp1291
g3
F0.005232958704572356
sba(innWeight
NNWeight
p1292
(dp1293
g3
F0.042116634502582774
sba(innWeight
NNWeight
p1294
(dp1295
g3
F-0.005540521322256016
sba(innWeight
NNWeight
p1296
(dp1297
g3
F-0.027753317312305077
sba(innWeight
NNWeight
p1298
(dp1299
g3
F-0.08620221500217347
sba(innWeight
NNWeight
p1300
(dp1301
g3
F0.003263929465587559
sba(innWeight
NNWeight
p1302
(dp1303
g3
F-0.0017815131754039786
sba(innWeight
NNWeight
p1304
(dp1305
g3
F0.020519128195880917
sba(innWeight
NNWeight
p1306
(dp1307
g3
F0.03128327151608826
sba(innWeight
NNWeight
p1308
(dp1309
g3
F-0.007294648822910956
sba(innWeight
NNWeight
p1310
(dp1311
g3
F0.03132128390553709
sba(innWeight
NNWeight
p1312
(dp1313
g3
F-0.017748696564793356
sba(innWeight
NNWeight
p1314
(dp1315
g3
F-0.03162989576953357
sba(innWeight
NNWeight
p1316
(dp1317
g3
F0.027056169000418517
sba(innWeight
NNWeight
p1318
(dp1319
g3
F-0.06877469922223112
sba(innWeight
NNWeight
p1320
(dp1321
g3
F0.016349265256075635
sba(innWeight
NNWeight
p1322
(dp1323
g3
F0.026856202974702488
sba(innWeight
NNWeight
p1324
(dp1325
g3
F0.046406869386637885
sba(innWeight
NNWeight
p1326
(dp1327
g3
F0.01617088092682419
sba(innWeight
NNWeight
p1328
(dp1329
g3
F0.03936705602789522
sba(innWeight
NNWeight
p1330
(dp1331
g3
F-0.06217724482020663
sba(innWeight
NNWeight
p1332
(dp1333
g3
F0.012333550270061085
sba(innWeight
NNWeight
p1334
(dp1335
g3
F-0.0071792215445820005
sba(innWeight
NNWeight
p1336
(dp1337
g3
F-0.025595055098573915
sba(innWeight
NNWeight
p1338
(dp1339
g3
F0.02009657414990699
sba(innWeight
NNWeight
p1340
(dp1341
g3
F-0.02989347490143314
sba(innWeight
NNWeight
p1342
(dp1343
g3
F0.06072314376749356
sba(innWeight
NNWeight
p1344
(dp1345
g3
F0.022690690705676368
sba(innWeight
NNWeight
p1346
(dp1347
g3
F0.0049006228401684785
sba(innWeight
NNWeight
p1348
(dp1349
g3
F0.03970084556370442
sba(innWeight
NNWeight
p1350
(dp1351
g3
F-0.09346857566105331
sba(innWeight
NNWeight
p1352
(dp1353
g3
F0.004900584046572427
sba(innWeight
NNWeight
p1354
(dp1355
g3
F-0.006556541516623353
sba(innWeight
NNWeight
p1356
(dp1357
g3
F-0.02067440690282242
sba(innWeight
NNWeight
p1358
(dp1359
g3
F-0.019935471257111658
sba(innWeight
NNWeight
p1360
(dp1361
g3
F-0.025211864935447432
sba(innWeight
NNWeight
p1362
(dp1363
g3
F0.058701509066537226
sba(innWeight
NNWeight
p1364
(dp1365
g3
F-0.013337660874487496
sba(innWeight
NNWeight
p1366
(dp1367
g3
F-0.04151725172881821
sba(innWeight
NNWeight
p1368
(dp1369
g3
F-0.000429521721644866
sba(innWeight
NNWeight
p1370
(dp1371
g3
F-0.04666146690967782
sba(innWeight
NNWeight
p1372
(dp1373
g3
F-0.020998422746392208
sba(innWeight
NNWeight
p1374
(dp1375
g3
F0.008321102759730291
sba(innWeight
NNWeight
p1376
(dp1377
g3
F-0.0028673620268388905
sba(innWeight
NNWeight
p1378
(dp1379
g3
F-0.08123615376936733
sba(innWeight
NNWeight
p1380
(dp1381
g3
F-0.0073358692488033105
sba(innWeight
NNWeight
p1382
(dp1383
g3
F0.03673220009737701
sba(innWeight
NNWeight
p1384
(dp1385
g3
F-0.024632066196218164
sba(innWeight
NNWeight
p1386
(dp1387
g3
F-0.02103345105347111
sba(innWeight
NNWeight
p1388
(dp1389
g3
F-0.023201309381268652
sba(innWeight
NNWeight
p1390
(dp1391
g3
F-0.004207709447463705
sba(innWeight
NNWeight
p1392
(dp1393
g3
F0.0015180617135660637
sba(innWeight
NNWeight
p1394
(dp1395
g3
F0.0036987399977335043
sba(innWeight
NNWeight
p1396
(dp1397
g3
F-0.030686303053774223
sba(innWeight
NNWeight
p1398
(dp1399
g3
F-0.017647698914248534
sba(innWeight
NNWeight
p1400
(dp1401
g3
F0.025417064876744888
sba(innWeight
NNWeight
p1402
(dp1403
g3
F0.014925510003993895
sba(innWeight
NNWeight
p1404
(dp1405
g3
F-0.013636944602609483
sba(innWeight
NNWeight
p1406
(dp1407
g3
F0.029245928312087145
sba(innWeight
NNWeight
p1408
(dp1409
g3
F-0.0005880786927283092
sba(innWeight
NNWeight
p1410
(dp1411
g3
F-0.007455756027990018
sba(innWeight
NNWeight
p1412
(dp1413
g3
F-0.01734475787545581
sba(innWeight
NNWeight
p1414
(dp1415
g3
F0.022825995769569243
sba(innWeight
NNWeight
p1416
(dp1417
g3
F-0.08347262924751471
sba(innWeight
NNWeight
p1418
(dp1419
g3
F0.028189536523594575
sba(innWeight
NNWeight
p1420
(dp1421
g3
F0.0186093845677875
sba(innWeight
NNWeight
p1422
(dp1423
g3
F-0.016588461095000444
sba(innWeight
NNWeight
p1424
(dp1425
g3
F-0.020992826519341857
sba(innWeight
NNWeight
p1426
(dp1427
g3
F0.012863205794878214
sba(innWeight
NNWeight
p1428
(dp1429
g3
F0.041089275639250945
sba(innWeight
NNWeight
p1430
(dp1431
g3
F-0.0035987500476672963
sba(innWeight
NNWeight
p1432
(dp1433
g3
F0.03150374577458825
sba(innWeight
NNWeight
p1434
(dp1435
g3
F-0.014007967073646679
sba(innWeight
NNWeight
p1436
(dp1437
g3
F-0.03386754662437623
sba(innWeight
NNWeight
p1438
(dp1439
g3
F-0.0012369311692787522
sba(innWeight
NNWeight
p1440
(dp1441
g3
F-0.017144751704595795
sba(innWeight
NNWeight
p1442
(dp1443
g3
F-0.03444033656474875
sba(innWeight
NNWeight
p1444
(dp1445
g3
F0.006681337677114335
sba(innWeight
NNWeight
p1446
(dp1447
g3
F-0.014465014190941407
sba(innWeight
NNWeight
p1448
(dp1449
g3
F0.02664848986484947
sba(innWeight
NNWeight
p1450
(dp1451
g3
F-0.030907340187561718
sba(innWeight
NNWeight
p1452
(dp1453
g3
F-0.015022883894031
sba(innWeight
NNWeight
p1454
(dp1455
g3
F0.0016028516827182467
sba(innWeight
NNWeight
p1456
(dp1457
g3
F-0.019070969711538554
sba(innWeight
NNWeight
p1458
(dp1459
g3
F0.022815697680384578
sba(innWeight
NNWeight
p1460
(dp1461
g3
F0.0025397989367985595
sba(innWeight
NNWeight
p1462
(dp1463
g3
F-0.011772917363456984
sba(innWeight
NNWeight
p1464
(dp1465
g3
F-0.03347402625961452
sba(innWeight
NNWeight
p1466
(dp1467
g3
F0.01650692400833646
sba(innWeight
NNWeight
p1468
(dp1469
g3
F0.018123225951375166
sba(innWeight
NNWeight
p1470
(dp1471
g3
F-0.040621283865267414
sba(innWeight
NNWeight
p1472
(dp1473
g3
F0.009247371534926382
sba(innWeight
NNWeight
p1474
(dp1475
g3
F0.0473948255615659
sba(innWeight
NNWeight
p1476
(dp1477
g3
F-0.0685436437025833
sba(innWeight
NNWeight
p1478
(dp1479
g3
F0.05871901715005873
sba(innWeight
NNWeight
p1480
(dp1481
g3
F-0.00854445254659887
sba(innWeight
NNWeight
p1482
(dp1483
g3
F0.018657858979381232
sba(innWeight
NNWeight
p1484
(dp1485
g3
F0.015030767857065634
sba(innWeight
NNWeight
p1486
(dp1487
g3
F-0.05175488236397137
sba(innWeight
NNWeight
p1488
(dp1489
g3
F-0.02054142555621966
sba(innWeight
NNWeight
p1490
(dp1491
g3
F-0.013314958879347916
sba(innWeight
NNWeight
p1492
(dp1493
g3
F-0.04422014916457296
sba(innWeight
NNWeight
p1494
(dp1495
g3
F-0.02442648024404264
sba(innWeight
NNWeight
p1496
(dp1497
g3
F-0.0008726613888594369
sba(innWeight
NNWeight
p1498
(dp1499
g3
F0.008841487656189681
sba(innWeight
NNWeight
p1500
(dp1501
g3
F-0.0207367324273626
sba(innWeight
NNWeight
p1502
(dp1503
g3
F0.0034178734659462027
sba(innWeight
NNWeight
p1504
(dp1505
g3
F0.03448855093417079
sba(innWeight
NNWeight
p1506
(dp1507
g3
F0.020559246657771934
sba(innWeight
NNWeight
p1508
(dp1509
g3
F0.018462168488862722
sba(innWeight
NNWeight
p1510
(dp1511
g3
F0.036580435456660905
sba(innWeight
NNWeight
p1512
(dp1513
g3
F0.04684350849524287
sba(innWeight
NNWeight
p1514
(dp1515
g3
F-0.003740329031702549
sba(innWeight
NNWeight
p1516
(dp1517
g3
F0.02384703640098526
sba(innWeight
NNWeight
p1518
(dp1519
g3
F0.024627850278925976
sba(innWeight
NNWeight
p1520
(dp1521
g3
F-0.07018623326365106
sba(innWeight
NNWeight
p1522
(dp1523
g3
F0.021613046738591126
sba(innWeight
NNWeight
p1524
(dp1525
g3
F0.037382046085199946
sba(innWeight
NNWeight
p1526
(dp1527
g3
F0.011348978765046617
sba(innWeight
NNWeight
p1528
(dp1529
g3
F-0.015008194598756384
sba(innWeight
NNWeight
p1530
(dp1531
g3
F0.009926823470138324
sba(innWeight
NNWeight
p1532
(dp1533
g3
F-0.07476431724254992
sba(innWeight
NNWeight
p1534
(dp1535
g3
F-0.03726836653278026
sba(innWeight
NNWeight
p1536
(dp1537
g3
F0.035251793724001224
sba(innWeight
NNWeight
p1538
(dp1539
g3
F0.026216666062790814
sba(innWeight
NNWeight
p1540
(dp1541
g3
F-0.007542060678494975
sba(innWeight
NNWeight
p1542
(dp1543
g3
F-0.01807551962413754
sba(innWeight
NNWeight
p1544
(dp1545
g3
F0.029192319545183757
sba(innWeight
NNWeight
p1546
(dp1547
g3
F0.0006041890397987228
sba(innWeight
NNWeight
p1548
(dp1549
g3
F0.024114576206814554
sba(innWeight
NNWeight
p1550
(dp1551
g3
F-0.00238860879332047
sba(innWeight
NNWeight
p1552
(dp1553
g3
F-0.0310562320441021
sba(innWeight
NNWeight
p1554
(dp1555
g3
F-0.014338502722008047
sba(innWeight
NNWeight
p1556
(dp1557
g3
F0.0037310978075996053
sba(innWeight
NNWeight
p1558
(dp1559
g3
F-0.0222799677004742
sba(innWeight
NNWeight
p1560
(dp1561
g3
F0.001356064891993213
sba(innWeight
NNWeight
p1562
(dp1563
g3
F0.017528937093925157
sba(innWeight
NNWeight
p1564
(dp1565
g3
F-0.021865147632906687
sba(innWeight
NNWeight
p1566
(dp1567
g3
F-0.005578908516222457
sba(innWeight
NNWeight
p1568
(dp1569
g3
F-0.05328781425288683
sba(innWeight
NNWeight
p1570
(dp1571
g3
F-0.03421741782083902
sba(innWeight
NNWeight
p1572
(dp1573
g3
F-0.012951002264217694
sba(innWeight
NNWeight
p1574
(dp1575
g3
F-0.0039011437918725104
sba(innWeight
NNWeight
p1576
(dp1577
g3
F-0.0023642684645934697
sba(innWeight
NNWeight
p1578
(dp1579
g3
F0.012631877377240617
sba(innWeight
NNWeight
p1580
(dp1581
g3
F-0.010811433292692803
sba(innWeight
NNWeight
p1582
(dp1583
g3
F-0.03297101028285674
sba(innWeight
NNWeight
p1584
(dp1585
g3
F0.017967784034118008
sba(innWeight
NNWeight
p1586
(dp1587
g3
F0.02792614325833602
sba(innWeight
NNWeight
p1588
(dp1589
g3
F0.03999159341500916
sba(innWeight
NNWeight
p1590
(dp1591
g3
F-0.060231012056658456
sba(innWeight
NNWeight
p1592
(dp1593
g3
F-0.0170329506701512
sba(innWeight
NNWeight
p1594
(dp1595
g3
F0.032088038034782815
sba(innWeight
NNWeight
p1596
(dp1597
g3
F0.0035030046351805706
sba(innWeight
NNWeight
p1598
(dp1599
g3
F-0.03250488955566218
sba(innWeight
NNWeight
p1600
(dp1601
g3
F-0.04181650565988967
sba(innWeight
NNWeight
p1602
(dp1603
g3
F-0.012961731873234763
sba(innWeight
NNWeight
p1604
(dp1605
g3
F-0.0038908402005846296
sba(innWeight
NNWeight
p1606
(dp1607
g3
F-0.023115963486121542
sba(innWeight
NNWeight
p1608
(dp1609
g3
F0.01786746310255476
sba(innWeight
NNWeight
p1610
(dp1611
g3
F0.009349401055788442
sba(innWeight
NNWeight
p1612
(dp1613
g3
F-0.0780343427117483
sba(innWeight
NNWeight
p1614
(dp1615
g3
F0.0728578389388201
sba(innWeight
NNWeight
p1616
(dp1617
g3
F0.019279166557367507
sba(innWeight
NNWeight
p1618
(dp1619
g3
F-0.0558007592756965
sba(innWeight
NNWeight
p1620
(dp1621
g3
F3.5407614504686416e-05
sba(innWeight
NNWeight
p1622
(dp1623
g3
F0.029687001303087178
sba(innWeight
NNWeight
p1624
(dp1625
g3
F-0.024210084526389727
sba(innWeight
NNWeight
p1626
(dp1627
g3
F0.01620142907111167
sba(innWeight
NNWeight
p1628
(dp1629
g3
F-0.004836477219479157
sba(innWeight
NNWeight
p1630
(dp1631
g3
F-0.026630725855399464
sba(innWeight
NNWeight
p1632
(dp1633
g3
F0.006248543259439768
sba(innWeight
NNWeight
p1634
(dp1635
g3
F-0.017299339427399363
sba(innWeight
NNWeight
p1636
(dp1637
g3
F0.00042158888513289317
sba(innWeight
NNWeight
p1638
(dp1639
g3
F-0.03379210934071431
sba(innWeight
NNWeight
p1640
(dp1641
g3
F-0.015831838077601346
sba(innWeight
NNWeight
p1642
(dp1643
g3
F0.01046241114853292
sba(innWeight
NNWeight
p1644
(dp1645
g3
F-0.004806760807289725
sba(innWeight
NNWeight
p1646
(dp1647
g3
F0.010741514077343584
sba(innWeight
NNWeight
p1648
(dp1649
g3
F-0.02417066234718751
sba(innWeight
NNWeight
p1650
(dp1651
g3
F-0.00898010090392438
sba(innWeight
NNWeight
p1652
(dp1653
g3
F0.04098247503749564
sba(innWeight
NNWeight
p1654
(dp1655
g3
F0.019042849255089502
sba(innWeight
NNWeight
p1656
(dp1657
g3
F0.02049395035736543
sba(innWeight
NNWeight
p1658
(dp1659
g3
F-0.00904187585718369
sba(innWeight
NNWeight
p1660
(dp1661
g3
F-0.0005818968042387606
sba(innWeight
NNWeight
p1662
(dp1663
g3
F0.0679133160696587
sba(innWeight
NNWeight
p1664
(dp1665
g3
F-0.0176732996463337
sba(innWeight
NNWeight
p1666
(dp1667
g3
F0.008402157581416984
sba(innWeight
NNWeight
p1668
(dp1669
g3
F-0.015579527217218773
sba(innWeight
NNWeight
p1670
(dp1671
g3
F-0.013457138557641371
sba(innWeight
NNWeight
p1672
(dp1673
g3
F0.02679806040041373
sba(innWeight
NNWeight
p1674
(dp1675
g3
F-0.0248482080645419
sba(innWeight
NNWeight
p1676
(dp1677
g3
F-0.029525380392366067
sba(innWeight
NNWeight
p1678
(dp1679
g3
F0.0015316757321403936
sba(innWeight
NNWeight
p1680
(dp1681
g3
F0.008637179911721412
sba(innWeight
NNWeight
p1682
(dp1683
g3
F0.035380230379201356
sba(innWeight
NNWeight
p1684
(dp1685
g3
F0.026298072892738715
sba(innWeight
NNWeight
p1686
(dp1687
g3
F-0.008668266951551562
sba(innWeight
NNWeight
p1688
(dp1689
g3
F-0.049101868460696495
sba(innWeight
NNWeight
p1690
(dp1691
g3
F-0.0064723027245141935
sba(innWeight
NNWeight
p1692
(dp1693
g3
F0.005618838619084533
sba(innWeight
NNWeight
p1694
(dp1695
g3
F-0.005148568216510602
sba(innWeight
NNWeight
p1696
(dp1697
g3
F0.08187804824885098
sba(innWeight
NNWeight
p1698
(dp1699
g3
F-0.011227713467159782
sba(innWeight
NNWeight
p1700
(dp1701
g3
F-0.016108305272684895
sba(innWeight
NNWeight
p1702
(dp1703
g3
F-0.022961249677982666
sba(innWeight
NNWeight
p1704
(dp1705
g3
F0.0035727374363572284
sba(innWeight
NNWeight
p1706
(dp1707
g3
F0.011903829316814515
sba(innWeight
NNWeight
p1708
(dp1709
g3
F0.01338525707571781
sba(innWeight
NNWeight
p1710
(dp1711
g3
F-0.029815493738084134
sba(innWeight
NNWeight
p1712
(dp1713
g3
F-0.01573322504690179
sba(innWeight
NNWeight
p1714
(dp1715
g3
F0.011738677923355685
sba(innWeight
NNWeight
p1716
(dp1717
g3
F0.036208547744107845
sba(innWeight
NNWeight
p1718
(dp1719
g3
F-0.013987963394989141
sba(innWeight
NNWeight
p1720
(dp1721
g3
F-0.02759261121729509
sba(innWeight
NNWeight
p1722
(dp1723
g3
F-0.06869772891692853
sba(innWeight
NNWeight
p1724
(dp1725
g3
F0.008267598815892285
sba(innWeight
NNWeight
p1726
(dp1727
g3
F0.05827302785328708
sba(innWeight
NNWeight
p1728
(dp1729
g3
F0.016708408488450822
sba(innWeight
NNWeight
p1730
(dp1731
g3
F-0.025422436458053144
sba(innWeight
NNWeight
p1732
(dp1733
g3
F0.003437286546238782
sba(innWeight
NNWeight
p1734
(dp1735
g3
F-0.021293268807663492
sba(innWeight
NNWeight
p1736
(dp1737
g3
F-0.06665790028603225
sba(innWeight
NNWeight
p1738
(dp1739
g3
F0.04258360605307385
sba(innWeight
NNWeight
p1740
(dp1741
g3
F0.026350075722665563
sba(innWeight
NNWeight
p1742
(dp1743
g3
F-0.0012724609561445641
sba(innWeight
NNWeight
p1744
(dp1745
g3
F-0.01729247463615757
sba(innWeight
NNWeight
p1746
(dp1747
g3
F0.0003801592797144402
sba(innWeight
NNWeight
p1748
(dp1749
g3
F-0.013266977785908424
sba(innWeight
NNWeight
p1750
(dp1751
g3
F-0.0688218426221774
sba(innWeight
NNWeight
p1752
(dp1753
g3
F0.015258442801683834
sba(innWeight
NNWeight
p1754
(dp1755
g3
F-0.0025665266376592947
sba(innWeight
NNWeight
p1756
(dp1757
g3
F0.008644733373728902
sba(innWeight
NNWeight
p1758
(dp1759
g3
F0.007018255836162136
sba(innWeight
NNWeight
p1760
(dp1761
g3
F-0.010050106036137523
sba(innWeight
NNWeight
p1762
(dp1763
g3
F0.007117092403641968
sba(innWeight
NNWeight
p1764
(dp1765
g3
F-0.0358901625347454
sba(innWeight
NNWeight
p1766
(dp1767
g3
F-0.038278701655934444
sba(innWeight
NNWeight
p1768
(dp1769
g3
F-0.001936173718594723
sba(innWeight
NNWeight
p1770
(dp1771
g3
F-0.07123565144764099
sba(innWeight
NNWeight
p1772
(dp1773
g3
F-0.01790480257377806
sba(innWeight
NNWeight
p1774
(dp1775
g3
F-0.048325155873471234
sba(innWeight
NNWeight
p1776
(dp1777
g3
F0.012661972716310314
sba(innWeight
NNWeight
p1778
(dp1779
g3
F-0.06000210229120117
sba(innWeight
NNWeight
p1780
(dp1781
g3
F0.009115315937220632
sba(innWeight
NNWeight
p1782
(dp1783
g3
F0.01735838125847324
sba(innWeight
NNWeight
p1784
(dp1785
g3
F0.04453756791280445
sba(innWeight
NNWeight
p1786
(dp1787
g3
F-0.032425950331748485
sba(innWeight
NNWeight
p1788
(dp1789
g3
F-0.014945238555663425
sba(innWeight
NNWeight
p1790
(dp1791
g3
F-0.034372474720865555
sba(innWeight
NNWeight
p1792
(dp1793
g3
F-0.020155240580486355
sba(innWeight
NNWeight
p1794
(dp1795
g3
F-0.027961073387361035
sba(innWeight
NNWeight
p1796
(dp1797
g3
F0.020241498099869564
sba(innWeight
NNWeight
p1798
(dp1799
g3
F0.046834655239875886
sba(innWeight
NNWeight
p1800
(dp1801
g3
F0.02715926909291983
sba(innWeight
NNWeight
p1802
(dp1803
g3
F-0.006781401891187145
sba(innWeight
NNWeight
p1804
(dp1805
g3
F-0.046704994235029905
sba(innWeight
NNWeight
p1806
(dp1807
g3
F0.0298258521931008
sba(innWeight
NNWeight
p1808
(dp1809
g3
F-0.009741953091844151
sba(innWeight
NNWeight
p1810
(dp1811
g3
F-0.050133798426719674
sba(innWeight
NNWeight
p1812
(dp1813
g3
F-0.0035391200898486335
sba(innWeight
NNWeight
p1814
(dp1815
g3
F-0.09036406789140454
sba(innWeight
NNWeight
p1816
(dp1817
g3
F0.02294534328825392
sba(innWeight
NNWeight
p1818
(dp1819
g3
F0.017451005914184418
sba(innWeight
NNWeight
p1820
(dp1821
g3
F-0.020074180182745212
sba(innWeight
NNWeight
p1822
(dp1823
g3
F0.0216336438469593
sba(innWeight
NNWeight
p1824
(dp1825
g3
F-0.02759317734783111
sba(innWeight
NNWeight
p1826
(dp1827
g3
F0.031046832032105145
sba(innWeight
NNWeight
p1828
(dp1829
g3
F-0.044377889183024405
sba(innWeight
NNWeight
p1830
(dp1831
g3
F-0.01358880554882567
sba(innWeight
NNWeight
p1832
(dp1833
g3
F0.003611438340649194
sba(innWeight
NNWeight
p1834
(dp1835
g3
F0.04292229063680236
sba(innWeight
NNWeight
p1836
(dp1837
g3
F0.0060568338933815165
sba(innWeight
NNWeight
p1838
(dp1839
g3
F0.011691666713940674
sba(innWeight
NNWeight
p1840
(dp1841
g3
F0.020103331167891914
sba(innWeight
NNWeight
p1842
(dp1843
g3
F0.004193430766434056
sba(innWeight
NNWeight
p1844
(dp1845
g3
F0.0032089138264695524
sba(innWeight
NNWeight
p1846
(dp1847
g3
F-4.951892030229972e-06
sba(innWeight
NNWeight
p1848
(dp1849
g3
F-0.02442939582784193
sba(innWeight
NNWeight
p1850
(dp1851
g3
F-0.032949855560510465
sba(innWeight
NNWeight
p1852
(dp1853
g3
F-0.030477517559973813
sba(innWeight
NNWeight
p1854
(dp1855
g3
F-0.04502128877205539
sba(innWeight
NNWeight
p1856
(dp1857
g3
F-0.005600112443881039
sba(innWeight
NNWeight
p1858
(dp1859
g3
F0.025534500943140154
sba(innWeight
NNWeight
p1860
(dp1861
g3
F0.04691807911095132
sba(innWeight
NNWeight
p1862
(dp1863
g3
F0.028072900469242445
sba(innWeight
NNWeight
p1864
(dp1865
g3
F-0.008658678585794508
sba(innWeight
NNWeight
p1866
(dp1867
g3
F-0.005820789486997348
sba(innWeight
NNWeight
p1868
(dp1869
g3
F0.03713465286843731
sba(innWeight
NNWeight
p1870
(dp1871
g3
F0.02644797801143308
sba(innWeight
NNWeight
p1872
(dp1873
g3
F0.012627642119562106
sba(innWeight
NNWeight
p1874
(dp1875
g3
F-0.014725951107648886
sba(innWeight
NNWeight
p1876
(dp1877
g3
F-0.04849829437322953
sba(innWeight
NNWeight
p1878
(dp1879
g3
F0.06401858672313383
sba(innWeight
NNWeight
p1880
(dp1881
g3
F0.02480008328406488
sba(innWeight
NNWeight
p1882
(dp1883
g3
F0.03315720828547525
sba(innWeight
NNWeight
p1884
(dp1885
g3
F-0.014447706097697955
sba(innWeight
NNWeight
p1886
(dp1887
g3
F-0.01863069107676077
sba(innWeight
NNWeight
p1888
(dp1889
g3
F-0.0662372741139752
sba(innWeight
NNWeight
p1890
(dp1891
g3
F0.017475604396665668
sba(innWeight
NNWeight
p1892
(dp1893
g3
F-0.005177143022354088
sba(innWeight
NNWeight
p1894
(dp1895
g3
F0.0015703130822753162
sba(innWeight
NNWeight
p1896
(dp1897
g3
F-0.05167265621032291
sba(innWeight
NNWeight
p1898
(dp1899
g3
F0.008684008893316886
sba(innWeight
NNWeight
p1900
(dp1901
g3
F-0.03839008726061044
sba(innWeight
NNWeight
p1902
(dp1903
g3
F0.011021694785209373
sba(innWeight
NNWeight
p1904
(dp1905
g3
F-0.0378734955907007
sba(innWeight
NNWeight
p1906
(dp1907
g3
F-0.00010546077595055619
sba(innWeight
NNWeight
p1908
(dp1909
g3
F0.0041121158012846085
sba(innWeight
NNWeight
p1910
(dp1911
g3
F-0.029968850028718453
sba(innWeight
NNWeight
p1912
(dp1913
g3
F0.012515505797273653
sba(innWeight
NNWeight
p1914
(dp1915
g3
F0.027498640949498176
sba(innWeight
NNWeight
p1916
(dp1917
g3
F0.03258340770148681
sba(innWeight
NNWeight
p1918
(dp1919
g3
F-0.03236350101443344
sba(innWeight
NNWeight
p1920
(dp1921
g3
F0.02082294136013403
sba(innWeight
NNWeight
p1922
(dp1923
g3
F-0.003541626430701407
sba(innWeight
NNWeight
p1924
(dp1925
g3
F-0.046066481013672805
sba(innWeight
NNWeight
p1926
(dp1927
g3
F0.03515739351056258
sba(innWeight
NNWeight
p1928
(dp1929
g3
F0.01168658368399823
sba(innWeight
NNWeight
p1930
(dp1931
g3
F0.0003217118038481223
sba(innWeight
NNWeight
p1932
(dp1933
g3
F-0.03951671204844841
sba(innWeight
NNWeight
p1934
(dp1935
g3
F0.04137085878013802
sba(innWeight
NNWeight
p1936
(dp1937
g3
F0.04293430233343794
sba(innWeight
NNWeight
p1938
(dp1939
g3
F0.007371778311866818
sba(innWeight
NNWeight
p1940
(dp1941
g3
F-0.007255191935831002
sba(innWeight
NNWeight
p1942
(dp1943
g3
F0.028188422493680372
sba(innWeight
NNWeight
p1944
(dp1945
g3
F-0.019676591686505197
sba(innWeight
NNWeight
p1946
(dp1947
g3
F-0.019437628051424048
sba(innWeight
NNWeight
p1948
(dp1949
g3
F-0.022128412152390496
sba(innWeight
NNWeight
p1950
(dp1951
g3
F-0.0020572490924480468
sba(innWeight
NNWeight
p1952
(dp1953
g3
F-0.028964329919606846
sba(innWeight
NNWeight
p1954
(dp1955
g3
F0.01545365603852804
sba(innWeight
NNWeight
p1956
(dp1957
g3
F-0.014811358450959185
sba(innWeight
NNWeight
p1958
(dp1959
g3
F0.0432814143962243
sba(innWeight
NNWeight
p1960
(dp1961
g3
F0.011707097354568645
sba(innWeight
NNWeight
p1962
(dp1963
g3
F-0.005861105037102934
sba(innWeight
NNWeight
p1964
(dp1965
g3
F-0.03322124530042533
sba(innWeight
NNWeight
p1966
(dp1967
g3
F0.005186744058548054
sba(innWeight
NNWeight
p1968
(dp1969
g3
F-0.01977354941970446
sba(innWeight
NNWeight
p1970
(dp1971
g3
F0.029973981671751686
sba(innWeight
NNWeight
p1972
(dp1973
g3
F-0.048678645597383594
sba(innWeight
NNWeight
p1974
(dp1975
g3
F-0.010177618969250327
sba(innWeight
NNWeight
p1976
(dp1977
g3
F-0.001832331358176338
sba(innWeight
NNWeight
p1978
(dp1979
g3
F-0.002228501001089164
sba(innWeight
NNWeight
p1980
(dp1981
g3
F-0.10518985113695269
sba(innWeight
NNWeight
p1982
(dp1983
g3
F-0.016790953187939966
sba(innWeight
NNWeight
p1984
(dp1985
g3
F-0.0038272789902890902
sba(innWeight
NNWeight
p1986
(dp1987
g3
F-0.006910011115107537
sba(innWeight
NNWeight
p1988
(dp1989
g3
F-0.002866743414401072
sba(innWeight
NNWeight
p1990
(dp1991
g3
F-0.0189949689033953
sba(innWeight
NNWeight
p1992
(dp1993
g3
F0.0119273124357665
sba(innWeight
NNWeight
p1994
(dp1995
g3
F0.041661630492121765
sba(innWeight
NNWeight
p1996
(dp1997
g3
F0.06590735715791127
sba(innWeight
NNWeight
p1998
(dp1999
g3
F0.047998903247277756
sba(innWeight
NNWeight
p2000
(dp2001
g3
F-0.02398126080373958
sba(innWeight
NNWeight
p2002
(dp2003
g3
F-0.015763142344830942
sba(innWeight
NNWeight
p2004
(dp2005
g3
F-0.04783352933911717
sba(innWeight
NNWeight
p2006
(dp2007
g3
F0.012060440405115164
sba(innWeight
NNWeight
p2008
(dp2009
g3
F-0.0486855451115317
sba(innWeight
NNWeight
p2010
(dp2011
g3
F-0.004412572220177143
sba(innWeight
NNWeight
p2012
(dp2013
g3
F-0.010158148532069951
sba(innWeight
NNWeight
p2014
(dp2015
g3
F-0.01761889769145627
sba(innWeight
NNWeight
p2016
(dp2017
g3
F-0.06303325340769582
sba(innWeight
NNWeight
p2018
(dp2019
g3
F-0.0010223564801639523
sba(innWeight
NNWeight
p2020
(dp2021
g3
F0.009743719411659213
sba.