(lp0
(innWeight
NNWeight
p1
(dp2
S'val'
p3
F-0.03485426450244047
sba(innWeight
NNWeight
p4
(dp5
g3
F-0.032448237096233144
sba(innWeight
NNWeight
p6
(dp7
g3
F-0.041079977973380116
sba(innWeight
NNWeight
p8
(dp9
g3
F0.03114311601797254
sba(innWeight
NNWeight
p10
(dp11
g3
F0.021112397780823813
sba(innWeight
NNWeight
p12
(dp13
g3
F0.026460512399801597
sba(innWeight
NNWeight
p14
(dp15
g3
F-0.020554804957411656
sba(innWeight
NNWeight
p16
(dp17
g3
F0.017996908642747066
sba(innWeight
NNWeight
p18
(dp19
g3
F0.002457366799786731
sba(innWeight
NNWeight
p20
(dp21
g3
F0.030150925298775832
sba(innWeight
NNWeight
p22
(dp23
g3
F0.031448093390665066
sba(innWeight
NNWeight
p24
(dp25
g3
F0.028321151637918873
sba(innWeight
NNWeight
p26
(dp27
g3
F0.002516101521065484
sba(innWeight
NNWeight
p28
(dp29
g3
F-0.021114972818764923
sba(innWeight
NNWeight
p30
(dp31
g3
F0.030538999174944736
sba(innWeight
NNWeight
p32
(dp33
g3
F0.016802801944469415
sba(innWeight
NNWeight
p34
(dp35
g3
F-0.03617022048017483
sba(innWeight
NNWeight
p36
(dp37
g3
F0.026724835960933314
sba(innWeight
NNWeight
p38
(dp39
g3
F-0.047087215274477894
sba(innWeight
NNWeight
p40
(dp41
g3
F-0.0008748567815366149
sba(innWeight
NNWeight
p42
(dp43
g3
F-0.0012481011098120277
sba(innWeight
NNWeight
p44
(dp45
g3
F0.039974468723065086
sba(innWeight
NNWeight
p46
(dp47
g3
F-0.0019477667755686935
sba(innWeight
NNWeight
p48
(dp49
g3
F-0.02479833982186147
sba(innWeight
NNWeight
p50
(dp51
g3
F-0.00027223880419915416
sba(innWeight
NNWeight
p52
(dp53
g3
F-0.04162751929045508
sba(innWeight
NNWeight
p54
(dp55
g3
F0.042455092657901705
sba(innWeight
NNWeight
p56
(dp57
g3
F0.040214813775672945
sba(innWeight
NNWeight
p58
(dp59
g3
F-0.0204024380458415
sba(innWeight
NNWeight
p60
(dp61
g3
F-0.0010753489106629878
sba(innWeight
NNWeight
p62
(dp63
g3
F0.03251373626769893
sba(innWeight
NNWeight
p64
(dp65
g3
F0.014856993885405635
sba(innWeight
NNWeight
p66
(dp67
g3
F-0.022280854665170203
sba(innWeight
NNWeight
p68
(dp69
g3
F-0.049658193995711364
sba(innWeight
NNWeight
p70
(dp71
g3
F0.03766071222296426
sba(innWeight
NNWeight
p72
(dp73
g3
F0.022388190601331983
sba(innWeight
NNWeight
p74
(dp75
g3
F0.04368562044185381
sba(innWeight
NNWeight
p76
(dp77
g3
F-0.03782446886014106
sba(innWeight
NNWeight
p78
(dp79
g3
F-0.002735104516940512
sba(innWeight
NNWeight
p80
(dp81
g3
F0.017752790951933384
sba(innWeight
NNWeight
p82
(dp83
g3
F-0.01775785257652548
sba(innWeight
NNWeight
p84
(dp85
g3
F-0.023056170494943976
sba(innWeight
NNWeight
p86
(dp87
g3
F-0.026878307341269825
sba(innWeight
NNWeight
p88
(dp89
g3
F-0.0007413975477153057
sba(innWeight
NNWeight
p90
(dp91
g3
F-0.02382935356689735
sba(innWeight
NNWeight
p92
(dp93
g3
F-0.02406537677327557
sba(innWeight
NNWeight
p94
(dp95
g3
F-0.03067773294452102
sba(innWeight
NNWeight
p96
(dp97
g3
F0.039746409448989675
sba(innWeight
NNWeight
p98
(dp99
g3
F-0.023980069752604596
sba(innWeight
NNWeight
p100
(dp101
g3
F-0.04757857258730828
sba(innWeight
NNWeight
p102
(dp103
g3
F0.01383951316926142
sba(innWeight
NNWeight
p104
(dp105
g3
F0.015316584521480015
sba(innWeight
NNWeight
p106
(dp107
g3
F-0.03791057816257644
sba(innWeight
NNWeight
p108
(dp109
g3
F0.04599983995130933
sba(innWeight
NNWeight
p110
(dp111
g3
F0.026578498386925043
sba(innWeight
NNWeight
p112
(dp113
g3
F-0.045541834258494486
sba(innWeight
NNWeight
p114
(dp115
g3
F0.004976220544870913
sba(innWeight
NNWeight
p116
(dp117
g3
F0.04391969278591167
sba(innWeight
NNWeight
p118
(dp119
g3
F-0.017593469556253672
sba(innWeight
NNWeight
p120
(dp121
g3
F-0.017131234631528547
sba(innWeight
NNWeight
p122
(dp123
g3
F-0.033972548906264846
sba(innWeight
NNWeight
p124
(dp125
g3
F0.02147670987886189
sba(innWeight
NNWeight
p126
(dp127
g3
F0.04185753214513274
sba(innWeight
NNWeight
p128
(dp129
g3
F-0.004179019971885279
sba(innWeight
NNWeight
p130
(dp131
g3
F-0.013794745905983275
sba(innWeight
NNWeight
p132
(dp133
g3
F-0.0017210386132313405
sba(innWeight
NNWeight
p134
(dp135
g3
F0.020062109189294644
sba(innWeight
NNWeight
p136
(dp137
g3
F-0.00902984164358266
sba(innWeight
NNWeight
p138
(dp139
g3
F-0.04357116322089438
sba(innWeight
NNWeight
p140
(dp141
g3
F0.02106617147649701
sba(innWeight
NNWeight
p142
(dp143
g3
F0.0352597346597388
sba(innWeight
NNWeight
p144
(dp145
g3
F0.030813186252117097
sba(innWeight
NNWeight
p146
(dp147
g3
F0.03254304149643979
sba(innWeight
NNWeight
p148
(dp149
g3
F0.024129648942890047
sba(innWeight
NNWeight
p150
(dp151
g3
F0.03512739311479777
sba(innWeight
NNWeight
p152
(dp153
g3
F-0.027214058063823376
sba(innWeight
NNWeight
p154
(dp155
g3
F-0.012616183266582148
sba(innWeight
NNWeight
p156
(dp157
g3
F0.04864828869458493
sba(innWeight
NNWeight
p158
(dp159
g3
F0.02240258869224361
sba(innWeight
NNWeight
p160
(dp161
g3
F0.03732965825109802
sba(innWeight
NNWeight
p162
(dp163
g3
F-0.010645740929949354
sba(innWeight
NNWeight
p164
(dp165
g3
F-0.010108207148911075
sba(innWeight
NNWeight
p166
(dp167
g3
F0.035085843911749515
sba(innWeight
NNWeight
p168
(dp169
g3
F-0.02783544968744709
sba(innWeight
NNWeight
p170
(dp171
g3
F-0.009129296725754799
sba(innWeight
NNWeight
p172
(dp173
g3
F-0.0336094926498171
sba(innWeight
NNWeight
p174
(dp175
g3
F0.03533044752431467
sba(innWeight
NNWeight
p176
(dp177
g3
F0.03688649654736379
sba(innWeight
NNWeight
p178
(dp179
g3
F0.04174092455957021
sba(innWeight
NNWeight
p180
(dp181
g3
F0.04118769360076441
sba(innWeight
NNWeight
p182
(dp183
g3
F0.011237918660013403
sba(innWeight
NNWeight
p184
(dp185
g3
F-0.039386938895654845
sba(innWeight
NNWeight
p186
(dp187
g3
F0.007690235906955923
sba(innWeight
NNWeight
p188
(dp189
g3
F0.02768471148266112
sba(innWeight
NNWeight
p190
(dp191
g3
F7.382578255268336e-05
sba(innWeight
NNWeight
p192
(dp193
g3
F0.027879765188047113
sba(innWeight
NNWeight
p194
(dp195
g3
F-0.008771377011778726
sba(innWeight
NNWeight
p196
(dp197
g3
F-0.014855146079590698
sba(innWeight
NNWeight
p198
(dp199
g3
F0.03595505212316794
sba(innWeight
NNWeight
p200
(dp201
g3
F0.004631163810090222
sba(innWeight
NNWeight
p202
(dp203
g3
F0.022436929108787307
sba(innWeight
NNWeight
p204
(dp205
g3
F-0.024312843821082675
sba(innWeight
NNWeight
p206
(dp207
g3
F-0.009910404275377517
sba(innWeight
NNWeight
p208
(dp209
g3
F-0.026781951587798426
sba(innWeight
NNWeight
p210
(dp211
g3
F-0.04486171337976998
sba(innWeight
NNWeight
p212
(dp213
g3
F-0.03976608858578236
sba(innWeight
NNWeight
p214
(dp215
g3
F-0.032609212874983244
sba(innWeight
NNWeight
p216
(dp217
g3
F-0.038437624968991016
sba(innWeight
NNWeight
p218
(dp219
g3
F-0.041949888634189414
sba(innWeight
NNWeight
p220
(dp221
g3
F0.03919411405263976
sba(innWeight
NNWeight
p222
(dp223
g3
F0.038899562608004035
sba(innWeight
NNWeight
p224
(dp225
g3
F-0.021082697487534687
sba(innWeight
NNWeight
p226
(dp227
g3
F0.018773307910828332
sba(innWeight
NNWeight
p228
(dp229
g3
F0.031651681481645634
sba(innWeight
NNWeight
p230
(dp231
g3
F-0.013152762495728599
sba(innWeight
NNWeight
p232
(dp233
g3
F-0.04555812274059601
sba(innWeight
NNWeight
p234
(dp235
g3
F0.00789700947417058
sba(innWeight
NNWeight
p236
(dp237
g3
F-0.037551631420351166
sba(innWeight
NNWeight
p238
(dp239
g3
F-0.04771980739691483
sba(innWeight
NNWeight
p240
(dp241
g3
F-0.023454626656190716
sba(innWeight
NNWeight
p242
(dp243
g3
F0.026487730985392033
sba(innWeight
NNWeight
p244
(dp245
g3
F0.004528864766725082
sba(innWeight
NNWeight
p246
(dp247
g3
F-0.04145891267111582
sba(innWeight
NNWeight
p248
(dp249
g3
F0.008312003796398714
sba(innWeight
NNWeight
p250
(dp251
g3
F0.04136961832977201
sba(innWeight
NNWeight
p252
(dp253
g3
F0.036341651098758775
sba(innWeight
NNWeight
p254
(dp255
g3
F-0.01648933204696076
sba(innWeight
NNWeight
p256
(dp257
g3
F0.04562885996314774
sba(innWeight
NNWeight
p258
(dp259
g3
F0.024855420540479057
sba(innWeight
NNWeight
p260
(dp261
g3
F0.014661238818538348
sba(innWeight
NNWeight
p262
(dp263
g3
F0.004463984332310745
sba(innWeight
NNWeight
p264
(dp265
g3
F0.03651753203606545
sba(innWeight
NNWeight
p266
(dp267
g3
F-0.048608180190107146
sba(innWeight
NNWeight
p268
(dp269
g3
F-0.026489788065603925
sba(innWeight
NNWeight
p270
(dp271
g3
F-0.033809289592109305
sba(innWeight
NNWeight
p272
(dp273
g3
F0.00553900223177799
sba(innWeight
NNWeight
p274
(dp275
g3
F-0.02553007820486133
sba(innWeight
NNWeight
p276
(dp277
g3
F0.004552858729949971
sba(innWeight
NNWeight
p278
(dp279
g3
F-0.006307629912116986
sba(innWeight
NNWeight
p280
(dp281
g3
F-0.03829349411183426
sba(innWeight
NNWeight
p282
(dp283
g3
F-0.0024132174948866773
sba(innWeight
NNWeight
p284
(dp285
g3
F0.047930207167191624
sba(innWeight
NNWeight
p286
(dp287
g3
F-0.03247931516731384
sba(innWeight
NNWeight
p288
(dp289
g3
F0.0210469787369451
sba(innWeight
NNWeight
p290
(dp291
g3
F0.0035101111359947205
sba(innWeight
NNWeight
p292
(dp293
g3
F0.04880237551092856
sba(innWeight
NNWeight
p294
(dp295
g3
F-0.031208363476432334
sba(innWeight
NNWeight
p296
(dp297
g3
F0.03215357944481633
sba(innWeight
NNWeight
p298
(dp299
g3
F0.031478828859607635
sba(innWeight
NNWeight
p300
(dp301
g3
F0.03866273522800981
sba(innWeight
NNWeight
p302
(dp303
g3
F0.030792001065323284
sba(innWeight
NNWeight
p304
(dp305
g3
F-0.01675930650427019
sba(innWeight
NNWeight
p306
(dp307
g3
F0.005178120934078368
sba(innWeight
NNWeight
p308
(dp309
g3
F-0.016544224918891105
sba(innWeight
NNWeight
p310
(dp311
g3
F0.009749913044976867
sba(innWeight
NNWeight
p312
(dp313
g3
F0.03418189089238708
sba.