(lp0
(innWeight
NNWeight
p1
(dp2
S'val'
p3
F-0.03344872927502264
sba(innWeight
NNWeight
p4
(dp5
g3
F0.03172260702918375
sba(innWeight
NNWeight
p6
(dp7
g3
F0.030996550236205313
sba(innWeight
NNWeight
p8
(dp9
g3
F-0.0816410979829636
sba(innWeight
NNWeight
p10
(dp11
g3
F-0.03570917673956037
sba(innWeight
NNWeight
p12
(dp13
g3
F-0.005796832205746455
sba(innWeight
NNWeight
p14
(dp15
g3
F0.06934959024148421
sba(innWeight
NNWeight
p16
(dp17
g3
F0.03773057650253754
sba(innWeight
NNWeight
p18
(dp19
g3
F-0.048095552621072415
sba(innWeight
NNWeight
p20
(dp21
g3
F-0.006412400116066946
sba(innWeight
NNWeight
p22
(dp23
g3
F0.03421400908403453
sba(innWeight
NNWeight
p24
(dp25
g3
F0.028669315747975654
sba(innWeight
NNWeight
p26
(dp27
g3
F0.057736175031042385
sba(innWeight
NNWeight
p28
(dp29
g3
F0.0171185482768075
sba(innWeight
NNWeight
p30
(dp31
g3
F0.07226070080503273
sba(innWeight
NNWeight
p32
(dp33
g3
F-0.018700795821397925
sba(innWeight
NNWeight
p34
(dp35
g3
F-0.003672758452068832
sba(innWeight
NNWeight
p36
(dp37
g3
F0.015083913056086577
sba(innWeight
NNWeight
p38
(dp39
g3
F0.010934393207447272
sba(innWeight
NNWeight
p40
(dp41
g3
F0.019270737659175186
sba(innWeight
NNWeight
p42
(dp43
g3
F-0.046178985277365414
sba(innWeight
NNWeight
p44
(dp45
g3
F-0.027237526729948565
sba(innWeight
NNWeight
p46
(dp47
g3
F0.012140079995165946
sba(innWeight
NNWeight
p48
(dp49
g3
F-0.023459300647504868
sba(innWeight
NNWeight
p50
(dp51
g3
F0.04467706851753714
sba(innWeight
NNWeight
p52
(dp53
g3
F0.016286700658093484
sba(innWeight
NNWeight
p54
(dp55
g3
F-0.01565591021520736
sba(innWeight
NNWeight
p56
(dp57
g3
F-0.003475967806125741
sba(innWeight
NNWeight
p58
(dp59
g3
F-0.07251859092394113
sba(innWeight
NNWeight
p60
(dp61
g3
F-0.03849761369384512
sba(innWeight
NNWeight
p62
(dp63
g3
F0.04112310794144041
sba(innWeight
NNWeight
p64
(dp65
g3
F0.0030987452353218804
sba(innWeight
NNWeight
p66
(dp67
g3
F-0.023849703209795573
sba(innWeight
NNWeight
p68
(dp69
g3
F0.016094416440367822
sba(innWeight
NNWeight
p70
(dp71
g3
F-0.0016378819599271693
sba(innWeight
NNWeight
p72
(dp73
g3
F0.03506207079262789
sba(innWeight
NNWeight
p74
(dp75
g3
F-0.0035071252299963595
sba(innWeight
NNWeight
p76
(dp77
g3
F-0.053852617224335805
sba(innWeight
NNWeight
p78
(dp79
g3
F0.04636310262877173
sba(innWeight
NNWeight
p80
(dp81
g3
F-0.008344625834080953
sba(innWeight
NNWeight
p82
(dp83
g3
F-0.028795256302312403
sba(innWeight
NNWeight
p84
(dp85
g3
F0.03236960794556835
sba(innWeight
NNWeight
p86
(dp87
g3
F0.021506159903586376
sba(innWeight
NNWeight
p88
(dp89
g3
F-0.015476185755656771
sba(innWeight
NNWeight
p90
(dp91
g3
F-0.0008011071770008899
sba(innWeight
NNWeight
p92
(dp93
g3
F-0.050595727138385865
sba(innWeight
NNWeight
p94
(dp95
g3
F0.03228374898184768
sba(innWeight
NNWeight
p96
(dp97
g3
F0.01035760777002227
sba(innWeight
NNWeight
p98
(dp99
g3
F-0.040906594652497914
sba(innWeight
NNWeight
p100
(dp101
g3
F0.01693474426711172
sba(innWeight
NNWeight
p102
(dp103
g3
F0.035393658653987345
sba(innWeight
NNWeight
p104
(dp105
g3
F0.001649644869425787
sba(innWeight
NNWeight
p106
(dp107
g3
F0.07278870109390288
sba(innWeight
NNWeight
p108
(dp109
g3
F0.0592401213777781
sba(innWeight
NNWeight
p110
(dp111
g3
F0.03592666419431398
sba(innWeight
NNWeight
p112
(dp113
g3
F0.022785163855410705
sba(innWeight
NNWeight
p114
(dp115
g3
F-0.06642512747987257
sba(innWeight
NNWeight
p116
(dp117
g3
F0.007467796523802954
sba(innWeight
NNWeight
p118
(dp119
g3
F0.027336750771439672
sba(innWeight
NNWeight
p120
(dp121
g3
F0.07976621433876052
sba(innWeight
NNWeight
p122
(dp123
g3
F-0.020156844991229668
sba(innWeight
NNWeight
p124
(dp125
g3
F-0.04486616546208187
sba(innWeight
NNWeight
p126
(dp127
g3
F-0.04971086650216121
sba(innWeight
NNWeight
p128
(dp129
g3
F-0.025357162623561864
sba(innWeight
NNWeight
p130
(dp131
g3
F0.04409194674823562
sba(innWeight
NNWeight
p132
(dp133
g3
F-0.0387679925441203
sba(innWeight
NNWeight
p134
(dp135
g3
F-0.025703168049845505
sba(innWeight
NNWeight
p136
(dp137
g3
F0.04795076475337843
sba(innWeight
NNWeight
p138
(dp139
g3
F0.006145820073005807
sba(innWeight
NNWeight
p140
(dp141
g3
F-0.012388502974038006
sba(innWeight
NNWeight
p142
(dp143
g3
F0.03514016791675651
sba(innWeight
NNWeight
p144
(dp145
g3
F-0.0009726617005128923
sba(innWeight
NNWeight
p146
(dp147
g3
F0.0074979185006045085
sba(innWeight
NNWeight
p148
(dp149
g3
F-0.009490706508593159
sba(innWeight
NNWeight
p150
(dp151
g3
F-0.058130725302732784
sba(innWeight
NNWeight
p152
(dp153
g3
F0.030203020488924984
sba(innWeight
NNWeight
p154
(dp155
g3
F-0.047987180417563176
sba(innWeight
NNWeight
p156
(dp157
g3
F0.05717106510921895
sba(innWeight
NNWeight
p158
(dp159
g3
F-0.0753232278342857
sba(innWeight
NNWeight
p160
(dp161
g3
F0.00966895510455176
sba(innWeight
NNWeight
p162
(dp163
g3
F0.044181269194600144
sba(innWeight
NNWeight
p164
(dp165
g3
F-0.024404079130888368
sba(innWeight
NNWeight
p166
(dp167
g3
F0.05482097081436994
sba(innWeight
NNWeight
p168
(dp169
g3
F-0.03873177325095519
sba(innWeight
NNWeight
p170
(dp171
g3
F-0.06207331700517036
sba(innWeight
NNWeight
p172
(dp173
g3
F0.03879621650083207
sba(innWeight
NNWeight
p174
(dp175
g3
F0.024257841371556555
sba(innWeight
NNWeight
p176
(dp177
g3
F-0.006134842270085831
sba(innWeight
NNWeight
p178
(dp179
g3
F-0.042286671130118
sba(innWeight
NNWeight
p180
(dp181
g3
F0.07906850865265819
sba(innWeight
NNWeight
p182
(dp183
g3
F0.0007799821986007897
sba(innWeight
NNWeight
p184
(dp185
g3
F0.06014848991048867
sba(innWeight
NNWeight
p186
(dp187
g3
F0.003243810861622656
sba(innWeight
NNWeight
p188
(dp189
g3
F-0.004285526419365954
sba(innWeight
NNWeight
p190
(dp191
g3
F0.054972612786098614
sba(innWeight
NNWeight
p192
(dp193
g3
F-0.027541778226331033
sba(innWeight
NNWeight
p194
(dp195
g3
F0.03742636999124546
sba(innWeight
NNWeight
p196
(dp197
g3
F0.037689781219718076
sba(innWeight
NNWeight
p198
(dp199
g3
F-0.03072434252905377
sba(innWeight
NNWeight
p200
(dp201
g3
F-0.01649794375144087
sba(innWeight
NNWeight
p202
(dp203
g3
F0.014653909448958042
sba(innWeight
NNWeight
p204
(dp205
g3
F-0.029121930993453254
sba(innWeight
NNWeight
p206
(dp207
g3
F-0.0218508627122896
sba(innWeight
NNWeight
p208
(dp209
g3
F-0.027614085527293684
sba(innWeight
NNWeight
p210
(dp211
g3
F0.018951116573077804
sba(innWeight
NNWeight
p212
(dp213
g3
F-0.034428753176388785
sba(innWeight
NNWeight
p214
(dp215
g3
F0.010648109852649919
sba(innWeight
NNWeight
p216
(dp217
g3
F0.03812230985563759
sba(innWeight
NNWeight
p218
(dp219
g3
F-0.033581104752731586
sba(innWeight
NNWeight
p220
(dp221
g3
F-0.041869875431146245
sba(innWeight
NNWeight
p222
(dp223
g3
F0.01662760845723842
sba(innWeight
NNWeight
p224
(dp225
g3
F0.03038148902572793
sba(innWeight
NNWeight
p226
(dp227
g3
F-0.08979798086141791
sba(innWeight
NNWeight
p228
(dp229
g3
F-0.038000608322606995
sba(innWeight
NNWeight
p230
(dp231
g3
F0.030197283258510677
sba(innWeight
NNWeight
p232
(dp233
g3
F0.026805254032975318
sba(innWeight
NNWeight
p234
(dp235
g3
F0.05479966263636734
sba(innWeight
NNWeight
p236
(dp237
g3
F0.011925524025799489
sba(innWeight
NNWeight
p238
(dp239
g3
F-0.054465610885294814
sba(innWeight
NNWeight
p240
(dp241
g3
F-0.03797437648929935
sba(innWeight
NNWeight
p242
(dp243
g3
F0.04220681970685989
sba(innWeight
NNWeight
p244
(dp245
g3
F0.003553450483927695
sba(innWeight
NNWeight
p246
(dp247
g3
F0.0674980743043758
sba(innWeight
NNWeight
p248
(dp249
g3
F0.03053612834622545
sba(innWeight
NNWeight
p250
(dp251
g3
F0.058783914341699155
sba(innWeight
NNWeight
p252
(dp253
g3
F0.03150803493433061
sba(innWeight
NNWeight
p254
(dp255
g3
F-0.019833213541815334
sba(innWeight
NNWeight
p256
(dp257
g3
F-0.015502590441453357
sba(innWeight
NNWeight
p258
(dp259
g3
F0.029110822235602806
sba(innWeight
NNWeight
p260
(dp261
g3
F-0.0313655384849127
sba(innWeight
NNWeight
p262
(dp263
g3
F0.02922808520330557
sba(innWeight
NNWeight
p264
(dp265
g3
F0.03720758904519283
sba(innWeight
NNWeight
p266
(dp267
g3
F-0.030720368831359993
sba(innWeight
NNWeight
p268
(dp269
g3
F-0.038423812612914436
sba(innWeight
NNWeight
p270
(dp271
g3
F-0.04678628614535401
sba(innWeight
NNWeight
p272
(dp273
g3
F0.010567191292178325
sba(innWeight
NNWeight
p274
(dp275
g3
F0.0026615304425422833
sba(innWeight
NNWeight
p276
(dp277
g3
F-0.016247763950852392
sba(innWeight
NNWeight
p278
(dp279
g3
F-0.023210701038380223
sba(innWeight
NNWeight
p280
(dp281
g3
F0.012799918254307603
sba(innWeight
NNWeight
p282
(dp283
g3
F-0.06871936985394188
sba(innWeight
NNWeight
p284
(dp285
g3
F-0.028123337369040925
sba(innWeight
NNWeight
p286
(dp287
g3
F-0.030210908553754152
sba(innWeight
NNWeight
p288
(dp289
g3
F0.012672700546648395
sba(innWeight
NNWeight
p290
(dp291
g3
F-0.0019123878738977714
sba(innWeight
NNWeight
p292
(dp293
g3
F-0.011886375020251253
sba(innWeight
NNWeight
p294
(dp295
g3
F-0.04806091363578654
sba(innWeight
NNWeight
p296
(dp297
g3
F-0.0656524577956373
sba(innWeight
NNWeight
p298
(dp299
g3
F0.024928408441017808
sba(innWeight
NNWeight
p300
(dp301
g3
F-0.03305108129243922
sba(innWeight
NNWeight
p302
(dp303
g3
F-0.0014705517322091198
sba(innWeight
NNWeight
p304
(dp305
g3
F0.04972610337440012
sba(innWeight
NNWeight
p306
(dp307
g3
F0.03230182306134615
sba(innWeight
NNWeight
p308
(dp309
g3
F0.0160583579770518
sba(innWeight
NNWeight
p310
(dp311
g3
F-0.029749720407889715
sba(innWeight
NNWeight
p312
(dp313
g3
F0.01977356173652046
sba(innWeight
NNWeight
p314
(dp315
g3
F-0.01799428125347566
sba(innWeight
NNWeight
p316
(dp317
g3
F0.0208608460709838
sba(innWeight
NNWeight
p318
(dp319
g3
F-0.05287347892665762
sba(innWeight
NNWeight
p320
(dp321
g3
F-0.011648889573386284
sba(innWeight
NNWeight
p322
(dp323
g3
F-0.05051991874497105
sba(innWeight
NNWeight
p324
(dp325
g3
F0.056207366807776764
sba(innWeight
NNWeight
p326
(dp327
g3
F0.009982840267670113
sba(innWeight
NNWeight
p328
(dp329
g3
F0.041551515918746666
sba(innWeight
NNWeight
p330
(dp331
g3
F0.01167296315162755
sba(innWeight
NNWeight
p332
(dp333
g3
F0.05300891763425028
sba(innWeight
NNWeight
p334
(dp335
g3
F0.02943977671591206
sba(innWeight
NNWeight
p336
(dp337
g3
F0.061411543817757965
sba(innWeight
NNWeight
p338
(dp339
g3
F0.03125397012943539
sba(innWeight
NNWeight
p340
(dp341
g3
F-0.022350981059372096
sba(innWeight
NNWeight
p342
(dp343
g3
F-0.06377725908672084
sba(innWeight
NNWeight
p344
(dp345
g3
F0.0033275478833814367
sba(innWeight
NNWeight
p346
(dp347
g3
F-0.029743915459894087
sba(innWeight
NNWeight
p348
(dp349
g3
F-0.009494128244539934
sba(innWeight
NNWeight
p350
(dp351
g3
F0.039954373954701895
sba(innWeight
NNWeight
p352
(dp353
g3
F-0.013774459006572086
sba(innWeight
NNWeight
p354
(dp355
g3
F-0.0036538789900695413
sba(innWeight
NNWeight
p356
(dp357
g3
F-0.07119048760212077
sba(innWeight
NNWeight
p358
(dp359
g3
F0.028273227786909636
sba(innWeight
NNWeight
p360
(dp361
g3
F-0.013545767577216301
sba(innWeight
NNWeight
p362
(dp363
g3
F0.015838672573054154
sba(innWeight
NNWeight
p364
(dp365
g3
F-0.008330585611415914
sba(innWeight
NNWeight
p366
(dp367
g3
F-0.016650591553593032
sba(innWeight
NNWeight
p368
(dp369
g3
F0.036496786422495466
sba(innWeight
NNWeight
p370
(dp371
g3
F-0.06767118274255211
sba(innWeight
NNWeight
p372
(dp373
g3
F0.03563496054628825
sba(innWeight
NNWeight
p374
(dp375
g3
F0.0014602220011598562
sba(innWeight
NNWeight
p376
(dp377
g3
F-0.04207377361168049
sba(innWeight
NNWeight
p378
(dp379
g3
F0.01621852467686615
sba(innWeight
NNWeight
p380
(dp381
g3
F0.04143760460568376
sba(innWeight
NNWeight
p382
(dp383
g3
F-0.03251947502237705
sba(innWeight
NNWeight
p384
(dp385
g3
F-0.026711156537403326
sba(innWeight
NNWeight
p386
(dp387
g3
F0.04889480137009165
sba(innWeight
NNWeight
p388
(dp389
g3
F-0.05021721283012826
sba(innWeight
NNWeight
p390
(dp391
g3
F0.005120444868618378
sba(innWeight
NNWeight
p392
(dp393
g3
F-0.027661865148536635
sba(innWeight
NNWeight
p394
(dp395
g3
F-0.0012815217726388454
sba(innWeight
NNWeight
p396
(dp397
g3
F0.026309922691275522
sba(innWeight
NNWeight
p398
(dp399
g3
F0.025786264270639393
sba(innWeight
NNWeight
p400
(dp401
g3
F-0.03045974337183499
sba(innWeight
NNWeight
p402
(dp403
g3
F0.08014561581206203
sba(innWeight
NNWeight
p404
(dp405
g3
F-0.03552922900076252
sba(innWeight
NNWeight
p406
(dp407
g3
F-0.06121662187911704
sba(innWeight
NNWeight
p408
(dp409
g3
F-0.047245618186858754
sba(innWeight
NNWeight
p410
(dp411
g3
F0.06779840465576357
sba(innWeight
NNWeight
p412
(dp413
g3
F-0.03549577663904427
sba(innWeight
NNWeight
p414
(dp415
g3
F0.0067807804719516645
sba(innWeight
NNWeight
p416
(dp417
g3
F0.024580791920997727
sba(innWeight
NNWeight
p418
(dp419
g3
F0.06759763662106016
sba(innWeight
NNWeight
p420
(dp421
g3
F-0.011484163306539463
sba(innWeight
NNWeight
p422
(dp423
g3
F0.06914961972494187
sba(innWeight
NNWeight
p424
(dp425
g3
F-0.010470755371562862
sba(innWeight
NNWeight
p426
(dp427
g3
F-0.07321795778617235
sba(innWeight
NNWeight
p428
(dp429
g3
F0.03182887001904642
sba(innWeight
NNWeight
p430
(dp431
g3
F-0.08464313734832515
sba(innWeight
NNWeight
p432
(dp433
g3
F0.03331838118569863
sba(innWeight
NNWeight
p434
(dp435
g3
F-0.030319761684563944
sba(innWeight
NNWeight
p436
(dp437
g3
F0.06002484212568586
sba(innWeight
NNWeight
p438
(dp439
g3
F-0.03263441984237112
sba(innWeight
NNWeight
p440
(dp441
g3
F0.017907366846881025
sba(innWeight
NNWeight
p442
(dp443
g3
F-0.026841998659907565
sba(innWeight
NNWeight
p444
(dp445
g3
F0.04089930344425863
sba(innWeight
NNWeight
p446
(dp447
g3
F0.02548875647602117
sba(innWeight
NNWeight
p448
(dp449
g3
F0.028557912764314825
sba(innWeight
NNWeight
p450
(dp451
g3
F0.009752514243851635
sba(innWeight
NNWeight
p452
(dp453
g3
F-0.07616415147975503
sba(innWeight
NNWeight
p454
(dp455
g3
F0.07480629730019772
sba(innWeight
NNWeight
p456
(dp457
g3
F0.015382617136967713
sba(innWeight
NNWeight
p458
(dp459
g3
F0.03006013079619571
sba(innWeight
NNWeight
p460
(dp461
g3
F-0.029720660978087603
sba(innWeight
NNWeight
p462
(dp463
g3
F0.005452540451104121
sba(innWeight
NNWeight
p464
(dp465
g3
F-0.03526852788436315
sba(innWeight
NNWeight
p466
(dp467
g3
F-0.06906441771793458
sba(innWeight
NNWeight
p468
(dp469
g3
F-0.0061833969009729714
sba(innWeight
NNWeight
p470
(dp471
g3
F0.0019064327123206935
sba(innWeight
NNWeight
p472
(dp473
g3
F-0.01787775426482927
sba(innWeight
NNWeight
p474
(dp475
g3
F-0.029789903639391987
sba(innWeight
NNWeight
p476
(dp477
g3
F0.06649175870576667
sba(innWeight
NNWeight
p478
(dp479
g3
F0.03480687076880964
sba(innWeight
NNWeight
p480
(dp481
g3
F-0.03631465287030646
sba(innWeight
NNWeight
p482
(dp483
g3
F0.022679969309272307
sba(innWeight
NNWeight
p484
(dp485
g3
F0.005253577833169637
sba(innWeight
NNWeight
p486
(dp487
g3
F-0.02766014549507882
sba(innWeight
NNWeight
p488
(dp489
g3
F-0.019935089993588166
sba(innWeight
NNWeight
p490
(dp491
g3
F-0.052311115787195106
sba(innWeight
NNWeight
p492
(dp493
g3
F0.050715919973542356
sba(innWeight
NNWeight
p494
(dp495
g3
F0.006128304103310154
sba(innWeight
NNWeight
p496
(dp497
g3
F-0.0030730955934543135
sba(innWeight
NNWeight
p498
(dp499
g3
F-0.03239670644544112
sba(innWeight
NNWeight
p500
(dp501
g3
F0.036939045059204284
sba(innWeight
NNWeight
p502
(dp503
g3
F-0.025625125106571566
sba(innWeight
NNWeight
p504
(dp505
g3
F-0.026910186649666365
sba(innWeight
NNWeight
p506
(dp507
g3
F0.03751932352762293
sba(innWeight
NNWeight
p508
(dp509
g3
F0.07177415896742582
sba(innWeight
NNWeight
p510
(dp511
g3
F0.013486660940949122
sba(innWeight
NNWeight
p512
(dp513
g3
F0.034607322694245234
sba(innWeight
NNWeight
p514
(dp515
g3
F-0.06517630317621106
sba(innWeight
NNWeight
p516
(dp517
g3
F-0.01221618872563913
sba(innWeight
NNWeight
p518
(dp519
g3
F-0.037984045714660575
sba(innWeight
NNWeight
p520
(dp521
g3
F-0.04164186156726202
sba(innWeight
NNWeight
p522
(dp523
g3
F-0.028197943132590067
sba(innWeight
NNWeight
p524
(dp525
g3
F0.059819724894836244
sba(innWeight
NNWeight
p526
(dp527
g3
F0.013882689309591502
sba(innWeight
NNWeight
p528
(dp529
g3
F-0.0016477639266459718
sba(innWeight
NNWeight
p530
(dp531
g3
F-0.037754813113412555
sba(innWeight
NNWeight
p532
(dp533
g3
F0.07386535265460514
sba(innWeight
NNWeight
p534
(dp535
g3
F0.04838015825061686
sba(innWeight
NNWeight
p536
(dp537
g3
F-0.04053345896480742
sba(innWeight
NNWeight
p538
(dp539
g3
F0.03185961238066369
sba(innWeight
NNWeight
p540
(dp541
g3
F-0.006078279725800565
sba(innWeight
NNWeight
p542
(dp543
g3
F0.013029958049749988
sba(innWeight
NNWeight
p544
(dp545
g3
F0.08271769328912991
sba(innWeight
NNWeight
p546
(dp547
g3
F0.029330943485525608
sba(innWeight
NNWeight
p548
(dp549
g3
F-0.035291636365832865
sba(innWeight
NNWeight
p550
(dp551
g3
F0.03699493395141446
sba(innWeight
NNWeight
p552
(dp553
g3
F0.021222034857707683
sba(innWeight
NNWeight
p554
(dp555
g3
F-0.04430875794957525
sba(innWeight
NNWeight
p556
(dp557
g3
F-0.011819819603617705
sba(innWeight
NNWeight
p558
(dp559
g3
F0.003405503751940662
sba(innWeight
NNWeight
p560
(dp561
g3
F0.04676971640024933
sba(innWeight
NNWeight
p562
(dp563
g3
F0.003602088569797263
sba(innWeight
NNWeight
p564
(dp565
g3
F-0.034206879857954314
sba(innWeight
NNWeight
p566
(dp567
g3
F-0.0032358784224414613
sba(innWeight
NNWeight
p568
(dp569
g3
F0.01538168740630263
sba(innWeight
NNWeight
p570
(dp571
g3
F0.06626858505451635
sba(innWeight
NNWeight
p572
(dp573
g3
F-0.055737788623534075
sba(innWeight
NNWeight
p574
(dp575
g3
F-0.06102889140625281
sba(innWeight
NNWeight
p576
(dp577
g3
F0.0009599430467078913
sba(innWeight
NNWeight
p578
(dp579
g3
F-0.017825215329895443
sba(innWeight
NNWeight
p580
(dp581
g3
F-0.053843750782472284
sba(innWeight
NNWeight
p582
(dp583
g3
F0.04223748974671776
sba(innWeight
NNWeight
p584
(dp585
g3
F-0.03901732327349774
sba(innWeight
NNWeight
p586
(dp587
g3
F-0.019291931427911017
sba(innWeight
NNWeight
p588
(dp589
g3
F-0.03754460826391778
sba(innWeight
NNWeight
p590
(dp591
g3
F-0.0017756783660736488
sba(innWeight
NNWeight
p592
(dp593
g3
F-0.05452121858046208
sba(innWeight
NNWeight
p594
(dp595
g3
F0.03657102612090576
sba(innWeight
NNWeight
p596
(dp597
g3
F-0.01841794811654505
sba(innWeight
NNWeight
p598
(dp599
g3
F-0.020492138753937628
sba(innWeight
NNWeight
p600
(dp601
g3
F-0.017021594471885355
sba(innWeight
NNWeight
p602
(dp603
g3
F-0.0623989340558597
sba(innWeight
NNWeight
p604
(dp605
g3
F-0.020768075675841418
sba(innWeight
NNWeight
p606
(dp607
g3
F0.03450039706611052
sba(innWeight
NNWeight
p608
(dp609
g3
F-0.035488932520697576
sba(innWeight
NNWeight
p610
(dp611
g3
F0.0016183196118207644
sba(innWeight
NNWeight
p612
(dp613
g3
F-0.00458083148664293
sba(innWeight
NNWeight
p614
(dp615
g3
F-0.05385917463214678
sba(innWeight
NNWeight
p616
(dp617
g3
F-0.0398185681954778
sba(innWeight
NNWeight
p618
(dp619
g3
F-0.04127785382410891
sba(innWeight
NNWeight
p620
(dp621
g3
F-0.0060494178974831855
sba(innWeight
NNWeight
p622
(dp623
g3
F-0.003051562589894187
sba(innWeight
NNWeight
p624
(dp625
g3
F0.024755979700967795
sba(innWeight
NNWeight
p626
(dp627
g3
F-0.022596018114717842
sba(innWeight
NNWeight
p628
(dp629
g3
F-0.02585134415389781
sba(innWeight
NNWeight
p630
(dp631
g3
F-0.0663298699903143
sba(innWeight
NNWeight
p632
(dp633
g3
F0.07319690071140071
sba(innWeight
NNWeight
p634
(dp635
g3
F0.03219995496242629
sba(innWeight
NNWeight
p636
(dp637
g3
F0.044838824578565736
sba(innWeight
NNWeight
p638
(dp639
g3
F0.03804718831434486
sba(innWeight
NNWeight
p640
(dp641
g3
F0.034532316991647244
sba(innWeight
NNWeight
p642
(dp643
g3
F-0.04565117531580766
sba(innWeight
NNWeight
p644
(dp645
g3
F0.029317398361148463
sba(innWeight
NNWeight
p646
(dp647
g3
F0.02489621102321502
sba(innWeight
NNWeight
p648
(dp649
g3
F0.02012756728983352
sba(innWeight
NNWeight
p650
(dp651
g3
F0.026857244619772756
sba(innWeight
NNWeight
p652
(dp653
g3
F0.04755428676045215
sba(innWeight
NNWeight
p654
(dp655
g3
F0.05069772091501634
sba(innWeight
NNWeight
p656
(dp657
g3
F0.08569643611344628
sba(innWeight
NNWeight
p658
(dp659
g3
F-0.0018615896955422374
sba(innWeight
NNWeight
p660
(dp661
g3
F-0.0005281699061234687
sba(innWeight
NNWeight
p662
(dp663
g3
F-0.04600537126823482
sba(innWeight
NNWeight
p664
(dp665
g3
F0.060835942044352914
sba(innWeight
NNWeight
p666
(dp667
g3
F-0.006319908898043735
sba(innWeight
NNWeight
p668
(dp669
g3
F0.005141798192350465
sba(innWeight
NNWeight
p670
(dp671
g3
F0.02118650681708227
sba(innWeight
NNWeight
p672
(dp673
g3
F-0.025908109880919912
sba(innWeight
NNWeight
p674
(dp675
g3
F0.0011850725298821433
sba(innWeight
NNWeight
p676
(dp677
g3
F0.0012865374530162664
sba(innWeight
NNWeight
p678
(dp679
g3
F-0.02626029662637532
sba(innWeight
NNWeight
p680
(dp681
g3
F-0.006554302659215328
sba(innWeight
NNWeight
p682
(dp683
g3
F-0.0010536465950629756
sba(innWeight
NNWeight
p684
(dp685
g3
F-0.01888179693044462
sba(innWeight
NNWeight
p686
(dp687
g3
F-0.03882111616922398
sba(innWeight
NNWeight
p688
(dp689
g3
F-0.05012514925191874
sba(innWeight
NNWeight
p690
(dp691
g3
F0.0314065907285574
sba(innWeight
NNWeight
p692
(dp693
g3
F-0.03617705342604467
sba(innWeight
NNWeight
p694
(dp695
g3
F0.01139353994155037
sba(innWeight
NNWeight
p696
(dp697
g3
F0.010374597382918417
sba(innWeight
NNWeight
p698
(dp699
g3
F0.038677123804833693
sba(innWeight
NNWeight
p700
(dp701
g3
F-0.0010508819104964758
sba(innWeight
NNWeight
p702
(dp703
g3
F0.06000907120491895
sba(innWeight
NNWeight
p704
(dp705
g3
F0.0046231389157085296
sba(innWeight
NNWeight
p706
(dp707
g3
F-0.04314681019730416
sba(innWeight
NNWeight
p708
(dp709
g3
F0.0683130201793724
sba(innWeight
NNWeight
p710
(dp711
g3
F0.034893879668975586
sba(innWeight
NNWeight
p712
(dp713
g3
F0.00743111971244709
sba(innWeight
NNWeight
p714
(dp715
g3
F-0.00639347276212956
sba(innWeight
NNWeight
p716
(dp717
g3
F0.06618448590470555
sba(innWeight
NNWeight
p718
(dp719
g3
F0.08832721486390714
sba(innWeight
NNWeight
p720
(dp721
g3
F0.0652214824189397
sba(innWeight
NNWeight
p722
(dp723
g3
F0.035201012585843336
sba(innWeight
NNWeight
p724
(dp725
g3
F-0.056755774083415055
sba(innWeight
NNWeight
p726
(dp727
g3
F0.003644834064875363
sba(innWeight
NNWeight
p728
(dp729
g3
F-0.043546371626247096
sba(innWeight
NNWeight
p730
(dp731
g3
F-0.0648042509826235
sba(innWeight
NNWeight
p732
(dp733
g3
F-0.03653938584918448
sba(innWeight
NNWeight
p734
(dp735
g3
F-0.032349836538347894
sba(innWeight
NNWeight
p736
(dp737
g3
F-0.00667017572525867
sba(innWeight
NNWeight
p738
(dp739
g3
F-0.05251809596766429
sba(innWeight
NNWeight
p740
(dp741
g3
F-0.07025578637051327
sba(innWeight
NNWeight
p742
(dp743
g3
F0.01653786742277569
sba(innWeight
NNWeight
p744
(dp745
g3
F-0.03846892495123684
sba(innWeight
NNWeight
p746
(dp747
g3
F0.04649290618782453
sba(innWeight
NNWeight
p748
(dp749
g3
F0.039691058339358265
sba(innWeight
NNWeight
p750
(dp751
g3
F0.022655065970549917
sba(innWeight
NNWeight
p752
(dp753
g3
F-0.005595206668139268
sba(innWeight
NNWeight
p754
(dp755
g3
F0.019402661696578307
sba(innWeight
NNWeight
p756
(dp757
g3
F-0.03286266541895324
sba(innWeight
NNWeight
p758
(dp759
g3
F-0.03829325659129581
sba(innWeight
NNWeight
p760
(dp761
g3
F0.022893247989519878
sba(innWeight
NNWeight
p762
(dp763
g3
F0.007337333049035679
sba(innWeight
NNWeight
p764
(dp765
g3
F-0.021580180884547225
sba(innWeight
NNWeight
p766
(dp767
g3
F-0.05674086848255343
sba(innWeight
NNWeight
p768
(dp769
g3
F0.013483240621016307
sba(innWeight
NNWeight
p770
(dp771
g3
F0.023021409686319855
sba(innWeight
NNWeight
p772
(dp773
g3
F-0.016156610528678103
sba(innWeight
NNWeight
p774
(dp775
g3
F-0.05033502982617144
sba(innWeight
NNWeight
p776
(dp777
g3
F0.03652349910783512
sba(innWeight
NNWeight
p778
(dp779
g3
F-0.019438283316175926
sba(innWeight
NNWeight
p780
(dp781
g3
F0.0353595737817669
sba(innWeight
NNWeight
p782
(dp783
g3
F-0.0750946194484115
sba(innWeight
NNWeight
p784
(dp785
g3
F0.03739592077669773
sba(innWeight
NNWeight
p786
(dp787
g3
F0.019365044393262497
sba(innWeight
NNWeight
p788
(dp789
g3
F-0.008268266993674996
sba(innWeight
NNWeight
p790
(dp791
g3
F-0.02531367184699161
sba(innWeight
NNWeight
p792
(dp793
g3
F-0.004975205388449597
sba(innWeight
NNWeight
p794
(dp795
g3
F-0.06936207472770345
sba(innWeight
NNWeight
p796
(dp797
g3
F-0.03342736551955611
sba(innWeight
NNWeight
p798
(dp799
g3
F-0.044962180465490074
sba(innWeight
NNWeight
p800
(dp801
g3
F-0.028608607867247088
sba(innWeight
NNWeight
p802
(dp803
g3
F-0.007047992685268955
sba(innWeight
NNWeight
p804
(dp805
g3
F-0.04115952747907963
sba(innWeight
NNWeight
p806
(dp807
g3
F-0.005047573227967261
sba(innWeight
NNWeight
p808
(dp809
g3
F0.04376162011485646
sba(innWeight
NNWeight
p810
(dp811
g3
F-0.016316797673026583
sba(innWeight
NNWeight
p812
(dp813
g3
F0.043350113393747176
sba(innWeight
NNWeight
p814
(dp815
g3
F-0.07224497963295547
sba(innWeight
NNWeight
p816
(dp817
g3
F-0.04492724770220769
sba(innWeight
NNWeight
p818
(dp819
g3
F-0.010657142551351593
sba(innWeight
NNWeight
p820
(dp821
g3
F-0.003173177470646739
sba(innWeight
NNWeight
p822
(dp823
g3
F-0.005752417058597686
sba(innWeight
NNWeight
p824
(dp825
g3
F-0.029731691172454278
sba(innWeight
NNWeight
p826
(dp827
g3
F0.01020205984045685
sba(innWeight
NNWeight
p828
(dp829
g3
F0.030149482604510072
sba(innWeight
NNWeight
p830
(dp831
g3
F0.0449965296302061
sba(innWeight
NNWeight
p832
(dp833
g3
F0.023986510891132396
sba(innWeight
NNWeight
p834
(dp835
g3
F-0.03336329084844155
sba(innWeight
NNWeight
p836
(dp837
g3
F0.03062404019606868
sba(innWeight
NNWeight
p838
(dp839
g3
F-0.027221002153221145
sba(innWeight
NNWeight
p840
(dp841
g3
F-0.01804419229460895
sba(innWeight
NNWeight
p842
(dp843
g3
F-0.00840331900739629
sba(innWeight
NNWeight
p844
(dp845
g3
F0.027998833992532446
sba(innWeight
NNWeight
p846
(dp847
g3
F-0.009039735541073148
sba(innWeight
NNWeight
p848
(dp849
g3
F0.011167727726591116
sba(innWeight
NNWeight
p850
(dp851
g3
F-0.08339091558882092
sba(innWeight
NNWeight
p852
(dp853
g3
F0.05066160137812086
sba(innWeight
NNWeight
p854
(dp855
g3
F-0.003297313346518812
sba(innWeight
NNWeight
p856
(dp857
g3
F-0.03154241707789213
sba(innWeight
NNWeight
p858
(dp859
g3
F-0.019013707733071632
sba(innWeight
NNWeight
p860
(dp861
g3
F-0.0175158977451543
sba(innWeight
NNWeight
p862
(dp863
g3
F0.010943139405880266
sba(innWeight
NNWeight
p864
(dp865
g3
F0.015616885352069334
sba(innWeight
NNWeight
p866
(dp867
g3
F-0.0067676368834276935
sba(innWeight
NNWeight
p868
(dp869
g3
F0.05554393738681061
sba(innWeight
NNWeight
p870
(dp871
g3
F0.009768264626317132
sba(innWeight
NNWeight
p872
(dp873
g3
F0.035480795146514234
sba(innWeight
NNWeight
p874
(dp875
g3
F-0.03686252690138913
sba(innWeight
NNWeight
p876
(dp877
g3
F-0.010440311479385834
sba(innWeight
NNWeight
p878
(dp879
g3
F-0.03283670765780946
sba(innWeight
NNWeight
p880
(dp881
g3
F0.01837061468703282
sba(innWeight
NNWeight
p882
(dp883
g3
F6.876977696379494e-05
sba(innWeight
NNWeight
p884
(dp885
g3
F-0.051435762906762675
sba(innWeight
NNWeight
p886
(dp887
g3
F-0.017626800513822684
sba(innWeight
NNWeight
p888
(dp889
g3
F-0.01938219880751473
sba(innWeight
NNWeight
p890
(dp891
g3
F0.003452062950664539
sba(innWeight
NNWeight
p892
(dp893
g3
F-0.0625062527881199
sba(innWeight
NNWeight
p894
(dp895
g3
F-0.05271657289369259
sba(innWeight
NNWeight
p896
(dp897
g3
F0.0670120312915974
sba(innWeight
NNWeight
p898
(dp899
g3
F0.014546218189980774
sba(innWeight
NNWeight
p900
(dp901
g3
F-0.03581902016758091
sba(innWeight
NNWeight
p902
(dp903
g3
F0.018257816619284422
sba(innWeight
NNWeight
p904
(dp905
g3
F0.011938120792811435
sba(innWeight
NNWeight
p906
(dp907
g3
F-0.0563312306843004
sba(innWeight
NNWeight
p908
(dp909
g3
F-0.0720680665577796
sba(innWeight
NNWeight
p910
(dp911
g3
F-0.029421485460599077
sba(innWeight
NNWeight
p912
(dp913
g3
F-0.03478915119341599
sba(innWeight
NNWeight
p914
(dp915
g3
F0.05797268877873437
sba(innWeight
NNWeight
p916
(dp917
g3
F0.021121742172818814
sba(innWeight
NNWeight
p918
(dp919
g3
F0.02748141563407169
sba(innWeight
NNWeight
p920
(dp921
g3
F0.030199327958647177
sba(innWeight
NNWeight
p922
(dp923
g3
F0.026062674276199484
sba(innWeight
NNWeight
p924
(dp925
g3
F-0.03858558061734695
sba(innWeight
NNWeight
p926
(dp927
g3
F0.09017638515250416
sba(innWeight
NNWeight
p928
(dp929
g3
F-0.0387899231612737
sba(innWeight
NNWeight
p930
(dp931
g3
F-0.000332178056837953
sba(innWeight
NNWeight
p932
(dp933
g3
F-0.051468514918365633
sba(innWeight
NNWeight
p934
(dp935
g3
F0.0170121901565316
sba(innWeight
NNWeight
p936
(dp937
g3
F-0.007009226889521571
sba(innWeight
NNWeight
p938
(dp939
g3
F0.010116360821997359
sba(innWeight
NNWeight
p940
(dp941
g3
F0.07245302328063326
sba(innWeight
NNWeight
p942
(dp943
g3
F0.05289893912738222
sba(innWeight
NNWeight
p944
(dp945
g3
F-0.07257773417617051
sba(innWeight
NNWeight
p946
(dp947
g3
F0.017277741596397094
sba(innWeight
NNWeight
p948
(dp949
g3
F0.034703217391626164
sba(innWeight
NNWeight
p950
(dp951
g3
F0.028557216985710277
sba(innWeight
NNWeight
p952
(dp953
g3
F0.003533315054866989
sba(innWeight
NNWeight
p954
(dp955
g3
F-0.02646777812582929
sba(innWeight
NNWeight
p956
(dp957
g3
F0.033812993492570845
sba(innWeight
NNWeight
p958
(dp959
g3
F-0.034469463001194675
sba(innWeight
NNWeight
p960
(dp961
g3
F0.03135155748276466
sba(innWeight
NNWeight
p962
(dp963
g3
F-0.041794929393130224
sba(innWeight
NNWeight
p964
(dp965
g3
F0.048729604742937485
sba(innWeight
NNWeight
p966
(dp967
g3
F-0.044143084620887486
sba(innWeight
NNWeight
p968
(dp969
g3
F0.02252307802345792
sba(innWeight
NNWeight
p970
(dp971
g3
F0.007465858491123111
sba(innWeight
NNWeight
p972
(dp973
g3
F0.022849525294080734
sba(innWeight
NNWeight
p974
(dp975
g3
F-0.04308587672358255
sba(innWeight
NNWeight
p976
(dp977
g3
F-0.018594457324148925
sba(innWeight
NNWeight
p978
(dp979
g3
F0.010348398530186624
sba(innWeight
NNWeight
p980
(dp981
g3
F0.051099225719669024
sba(innWeight
NNWeight
p982
(dp983
g3
F-0.054960454025442904
sba(innWeight
NNWeight
p984
(dp985
g3
F-0.04535528812940776
sba(innWeight
NNWeight
p986
(dp987
g3
F-0.029608366461300793
sba(innWeight
NNWeight
p988
(dp989
g3
F-0.022904823720677252
sba(innWeight
NNWeight
p990
(dp991
g3
F-0.051766358687860295
sba(innWeight
NNWeight
p992
(dp993
g3
F-0.056535301800110564
sba(innWeight
NNWeight
p994
(dp995
g3
F0.02487455836322486
sba(innWeight
NNWeight
p996
(dp997
g3
F0.009759286455418952
sba(innWeight
NNWeight
p998
(dp999
g3
F0.04078654845139363
sba(innWeight
NNWeight
p1000
(dp1001
g3
F-0.006629215956580798
sba(innWeight
NNWeight
p1002
(dp1003
g3
F-0.0012737934270876418
sba(innWeight
NNWeight
p1004
(dp1005
g3
F0.009096094639608296
sba(innWeight
NNWeight
p1006
(dp1007
g3
F0.0016335461919485743
sba(innWeight
NNWeight
p1008
(dp1009
g3
F0.058195306380247586
sba(innWeight
NNWeight
p1010
(dp1011
g3
F0.0544390443769716
sba(innWeight
NNWeight
p1012
(dp1013
g3
F-0.0001426934160959093
sba(innWeight
NNWeight
p1014
(dp1015
g3
F-0.03726897040276463
sba(innWeight
NNWeight
p1016
(dp1017
g3
F0.048542409009340745
sba(innWeight
NNWeight
p1018
(dp1019
g3
F-0.034553244559329586
sba(innWeight
NNWeight
p1020
(dp1021
g3
F-0.015464510191262142
sba(innWeight
NNWeight
p1022
(dp1023
g3
F-0.05014503109370216
sba(innWeight
NNWeight
p1024
(dp1025
g3
F0.02707491102501596
sba(innWeight
NNWeight
p1026
(dp1027
g3
F0.02352663918246484
sba(innWeight
NNWeight
p1028
(dp1029
g3
F-0.009917367943773509
sba(innWeight
NNWeight
p1030
(dp1031
g3
F-0.049380775129509044
sba(innWeight
NNWeight
p1032
(dp1033
g3
F0.02901020537922924
sba(innWeight
NNWeight
p1034
(dp1035
g3
F0.03173804689766346
sba(innWeight
NNWeight
p1036
(dp1037
g3
F0.004771082648415201
sba(innWeight
NNWeight
p1038
(dp1039
g3
F0.0204184335118316
sba(innWeight
NNWeight
p1040
(dp1041
g3
F0.026512564821014266
sba(innWeight
NNWeight
p1042
(dp1043
g3
F0.024706354913961687
sba(innWeight
NNWeight
p1044
(dp1045
g3
F0.004915814831558981
sba(innWeight
NNWeight
p1046
(dp1047
g3
F-0.01588969620479497
sba(innWeight
NNWeight
p1048
(dp1049
g3
F-0.04706585474946557
sba(innWeight
NNWeight
p1050
(dp1051
g3
F0.010062763090847686
sba(innWeight
NNWeight
p1052
(dp1053
g3
F0.05513084661177864
sba(innWeight
NNWeight
p1054
(dp1055
g3
F-0.01886227030821315
sba(innWeight
NNWeight
p1056
(dp1057
g3
F-0.01419329641081478
sba(innWeight
NNWeight
p1058
(dp1059
g3
F0.03903541174577938
sba(innWeight
NNWeight
p1060
(dp1061
g3
F0.03625680774467369
sba(innWeight
NNWeight
p1062
(dp1063
g3
F0.009377403744355828
sba(innWeight
NNWeight
p1064
(dp1065
g3
F-0.04808781531461524
sba(innWeight
NNWeight
p1066
(dp1067
g3
F-0.016192377505104754
sba(innWeight
NNWeight
p1068
(dp1069
g3
F0.0021892563679394217
sba(innWeight
NNWeight
p1070
(dp1071
g3
F-0.05225181851045208
sba(innWeight
NNWeight
p1072
(dp1073
g3
F0.018481160586325342
sba(innWeight
NNWeight
p1074
(dp1075
g3
F-0.029737413987428053
sba(innWeight
NNWeight
p1076
(dp1077
g3
F-0.036970213461068636
sba(innWeight
NNWeight
p1078
(dp1079
g3
F0.03439257300148254
sba(innWeight
NNWeight
p1080
(dp1081
g3
F-0.024071407413174702
sba(innWeight
NNWeight
p1082
(dp1083
g3
F-0.04261393500670396
sba(innWeight
NNWeight
p1084
(dp1085
g3
F0.04423264306908009
sba(innWeight
NNWeight
p1086
(dp1087
g3
F0.02841969808180864
sba(innWeight
NNWeight
p1088
(dp1089
g3
F0.017326486103382915
sba(innWeight
NNWeight
p1090
(dp1091
g3
F0.024268714407728945
sba(innWeight
NNWeight
p1092
(dp1093
g3
F0.02270194669455965
sba(innWeight
NNWeight
p1094
(dp1095
g3
F-0.003844611397570544
sba(innWeight
NNWeight
p1096
(dp1097
g3
F0.012460228858653664
sba(innWeight
NNWeight
p1098
(dp1099
g3
F0.03715625657295584
sba(innWeight
NNWeight
p1100
(dp1101
g3
F0.05055955523242745
sba(innWeight
NNWeight
p1102
(dp1103
g3
F0.013149085919079281
sba(innWeight
NNWeight
p1104
(dp1105
g3
F-0.018658496822417724
sba(innWeight
NNWeight
p1106
(dp1107
g3
F-0.008681023802925859
sba(innWeight
NNWeight
p1108
(dp1109
g3
F0.003224141534759294
sba(innWeight
NNWeight
p1110
(dp1111
g3
F-0.04027083969058785
sba(innWeight
NNWeight
p1112
(dp1113
g3
F-0.004503252582114079
sba(innWeight
NNWeight
p1114
(dp1115
g3
F-0.03512140046325675
sba(innWeight
NNWeight
p1116
(dp1117
g3
F0.07171770634279309
sba(innWeight
NNWeight
p1118
(dp1119
g3
F-0.016757230036887352
sba(innWeight
NNWeight
p1120
(dp1121
g3
F0.009134546065706989
sba(innWeight
NNWeight
p1122
(dp1123
g3
F0.03791041144670109
sba(innWeight
NNWeight
p1124
(dp1125
g3
F0.014272190939946212
sba(innWeight
NNWeight
p1126
(dp1127
g3
F-0.019486074859644584
sba(innWeight
NNWeight
p1128
(dp1129
g3
F-0.010043697108014078
sba(innWeight
NNWeight
p1130
(dp1131
g3
F-0.030548389913038477
sba(innWeight
NNWeight
p1132
(dp1133
g3
F-0.03823573196464813
sba(innWeight
NNWeight
p1134
(dp1135
g3
F-0.06735313724647914
sba(innWeight
NNWeight
p1136
(dp1137
g3
F-0.0214919280562111
sba(innWeight
NNWeight
p1138
(dp1139
g3
F0.01855325783052294
sba(innWeight
NNWeight
p1140
(dp1141
g3
F0.06815767910897907
sba(innWeight
NNWeight
p1142
(dp1143
g3
F0.0060630934973140635
sba(innWeight
NNWeight
p1144
(dp1145
g3
F0.0022837000366290844
sba(innWeight
NNWeight
p1146
(dp1147
g3
F0.029339361820104565
sba(innWeight
NNWeight
p1148
(dp1149
g3
F0.05407334891008985
sba(innWeight
NNWeight
p1150
(dp1151
g3
F-0.02678775122273083
sba(innWeight
NNWeight
p1152
(dp1153
g3
F-0.05384766313134515
sba(innWeight
NNWeight
p1154
(dp1155
g3
F0.05107967662202048
sba(innWeight
NNWeight
p1156
(dp1157
g3
F-0.04906998945642487
sba(innWeight
NNWeight
p1158
(dp1159
g3
F-0.04101136160059823
sba(innWeight
NNWeight
p1160
(dp1161
g3
F-0.03710139258098945
sba(innWeight
NNWeight
p1162
(dp1163
g3
F0.06901455332974267
sba(innWeight
NNWeight
p1164
(dp1165
g3
F-0.06770857753815909
sba(innWeight
NNWeight
p1166
(dp1167
g3
F0.042236352509960925
sba(innWeight
NNWeight
p1168
(dp1169
g3
F-0.06703419915011144
sba(innWeight
NNWeight
p1170
(dp1171
g3
F0.04521520740790307
sba(innWeight
NNWeight
p1172
(dp1173
g3
F0.013188922506595025
sba(innWeight
NNWeight
p1174
(dp1175
g3
F-0.0065037214150660515
sba(innWeight
NNWeight
p1176
(dp1177
g3
F-0.00244142741026449
sba(innWeight
NNWeight
p1178
(dp1179
g3
F0.03840073210105001
sba(innWeight
NNWeight
p1180
(dp1181
g3
F-0.01069582178614722
sba(innWeight
NNWeight
p1182
(dp1183
g3
F0.052470839183465415
sba(innWeight
NNWeight
p1184
(dp1185
g3
F-0.06354248565645053
sba(innWeight
NNWeight
p1186
(dp1187
g3
F-0.046252789884580744
sba(innWeight
NNWeight
p1188
(dp1189
g3
F-0.05644904356258802
sba(innWeight
NNWeight
p1190
(dp1191
g3
F-0.027062130316934014
sba(innWeight
NNWeight
p1192
(dp1193
g3
F-0.007879225200760856
sba(innWeight
NNWeight
p1194
(dp1195
g3
F0.04428055894976583
sba(innWeight
NNWeight
p1196
(dp1197
g3
F-0.08644553688088587
sba(innWeight
NNWeight
p1198
(dp1199
g3
F-0.011269739063682924
sba(innWeight
NNWeight
p1200
(dp1201
g3
F-0.04267742337849359
sba(innWeight
NNWeight
p1202
(dp1203
g3
F0.03594146010327327
sba(innWeight
NNWeight
p1204
(dp1205
g3
F-0.00440516567020356
sba(innWeight
NNWeight
p1206
(dp1207
g3
F-0.024470318541764156
sba(innWeight
NNWeight
p1208
(dp1209
g3
F-0.013818945856505819
sba(innWeight
NNWeight
p1210
(dp1211
g3
F0.026903784670007803
sba(innWeight
NNWeight
p1212
(dp1213
g3
F-0.031031184310409535
sba(innWeight
NNWeight
p1214
(dp1215
g3
F0.016531958823814034
sba(innWeight
NNWeight
p1216
(dp1217
g3
F0.015037671789236826
sba(innWeight
NNWeight
p1218
(dp1219
g3
F-0.04628929984483743
sba(innWeight
NNWeight
p1220
(dp1221
g3
F0.01744723444238655
sba(innWeight
NNWeight
p1222
(dp1223
g3
F-0.07566806631723229
sba(innWeight
NNWeight
p1224
(dp1225
g3
F-0.07645116255669014
sba(innWeight
NNWeight
p1226
(dp1227
g3
F0.07411913112852271
sba(innWeight
NNWeight
p1228
(dp1229
g3
F-0.019240303940552074
sba(innWeight
NNWeight
p1230
(dp1231
g3
F0.02707868421586874
sba(innWeight
NNWeight
p1232
(dp1233
g3
F0.057080522063072785
sba(innWeight
NNWeight
p1234
(dp1235
g3
F0.024557729254167365
sba(innWeight
NNWeight
p1236
(dp1237
g3
F0.01937857637369737
sba(innWeight
NNWeight
p1238
(dp1239
g3
F-0.012112950291872475
sba(innWeight
NNWeight
p1240
(dp1241
g3
F-0.01574406137685904
sba(innWeight
NNWeight
p1242
(dp1243
g3
F0.02055724800950611
sba(innWeight
NNWeight
p1244
(dp1245
g3
F-0.014041129828254782
sba(innWeight
NNWeight
p1246
(dp1247
g3
F0.005402549382161939
sba(innWeight
NNWeight
p1248
(dp1249
g3
F0.020232537908722134
sba(innWeight
NNWeight
p1250
(dp1251
g3
F0.10020645951316938
sba(innWeight
NNWeight
p1252
(dp1253
g3
F0.029259353910003255
sba(innWeight
NNWeight
p1254
(dp1255
g3
F0.034591162940381184
sba(innWeight
NNWeight
p1256
(dp1257
g3
F-0.04182390232919539
sba(innWeight
NNWeight
p1258
(dp1259
g3
F0.06908127161085194
sba(innWeight
NNWeight
p1260
(dp1261
g3
F-0.004877457106887248
sba(innWeight
NNWeight
p1262
(dp1263
g3
F0.06328724523654888
sba(innWeight
NNWeight
p1264
(dp1265
g3
F-0.022095774128459478
sba(innWeight
NNWeight
p1266
(dp1267
g3
F-0.03150962997479164
sba(innWeight
NNWeight
p1268
(dp1269
g3
F-0.05292762327251514
sba(innWeight
NNWeight
p1270
(dp1271
g3
F-0.05062513035027779
sba(innWeight
NNWeight
p1272
(dp1273
g3
F-0.04925666552480292
sba(innWeight
NNWeight
p1274
(dp1275
g3
F-0.01258638462066676
sba(innWeight
NNWeight
p1276
(dp1277
g3
F-0.021189216410364094
sba(innWeight
NNWeight
p1278
(dp1279
g3
F0.007191798466334486
sba(innWeight
NNWeight
p1280
(dp1281
g3
F0.05689159825819179
sba(innWeight
NNWeight
p1282
(dp1283
g3
F-0.01926388169822566
sba(innWeight
NNWeight
p1284
(dp1285
g3
F0.019044674115072064
sba(innWeight
NNWeight
p1286
(dp1287
g3
F0.0034261965330879573
sba(innWeight
NNWeight
p1288
(dp1289
g3
F-0.03414395118719902
sba(innWeight
NNWeight
p1290
(dp1291
g3
F-0.02623153257909928
sba(innWeight
NNWeight
p1292
(dp1293
g3
F-0.024890879275089223
sba(innWeight
NNWeight
p1294
(dp1295
g3
F-0.057971351125107755
sba(innWeight
NNWeight
p1296
(dp1297
g3
F-0.028195078752868415
sba(innWeight
NNWeight
p1298
(dp1299
g3
F0.011150469363380667
sba(innWeight
NNWeight
p1300
(dp1301
g3
F0.02936855051961109
sba(innWeight
NNWeight
p1302
(dp1303
g3
F-0.03879733925111634
sba(innWeight
NNWeight
p1304
(dp1305
g3
F0.013822700340693115
sba(innWeight
NNWeight
p1306
(dp1307
g3
F0.023307440930137
sba(innWeight
NNWeight
p1308
(dp1309
g3
F0.021027154541589883
sba(innWeight
NNWeight
p1310
(dp1311
g3
F0.02049414614665928
sba(innWeight
NNWeight
p1312
(dp1313
g3
F-0.006281704057425459
sba(innWeight
NNWeight
p1314
(dp1315
g3
F-0.006227049430046744
sba(innWeight
NNWeight
p1316
(dp1317
g3
F-0.038370517826248805
sba(innWeight
NNWeight
p1318
(dp1319
g3
F0.052835430469240795
sba(innWeight
NNWeight
p1320
(dp1321
g3
F-0.0463287584456222
sba(innWeight
NNWeight
p1322
(dp1323
g3
F-0.021916839638849443
sba(innWeight
NNWeight
p1324
(dp1325
g3
F-0.02402747117121402
sba(innWeight
NNWeight
p1326
(dp1327
g3
F-0.028856103158661064
sba(innWeight
NNWeight
p1328
(dp1329
g3
F-0.007997791465176344
sba(innWeight
NNWeight
p1330
(dp1331
g3
F0.005971748335543389
sba(innWeight
NNWeight
p1332
(dp1333
g3
F-0.023667120413865844
sba(innWeight
NNWeight
p1334
(dp1335
g3
F0.03916746219491159
sba(innWeight
NNWeight
p1336
(dp1337
g3
F0.07599202095411736
sba(innWeight
NNWeight
p1338
(dp1339
g3
F0.099531579843474
sba(innWeight
NNWeight
p1340
(dp1341
g3
F0.02542506840688957
sba(innWeight
NNWeight
p1342
(dp1343
g3
F0.04771126171425881
sba(innWeight
NNWeight
p1344
(dp1345
g3
F-0.01329267221215747
sba(innWeight
NNWeight
p1346
(dp1347
g3
F-0.02516071855345364
sba(innWeight
NNWeight
p1348
(dp1349
g3
F-0.055688669067814583
sba(innWeight
NNWeight
p1350
(dp1351
g3
F0.05772547635289522
sba(innWeight
NNWeight
p1352
(dp1353
g3
F0.017536690819045755
sba(innWeight
NNWeight
p1354
(dp1355
g3
F0.02444974129668171
sba(innWeight
NNWeight
p1356
(dp1357
g3
F-0.024651888369863033
sba(innWeight
NNWeight
p1358
(dp1359
g3
F-0.04994690116918074
sba(innWeight
NNWeight
p1360
(dp1361
g3
F-0.039188349566087646
sba(innWeight
NNWeight
p1362
(dp1363
g3
F0.0035098162409352876
sba(innWeight
NNWeight
p1364
(dp1365
g3
F0.025675209437126655
sba(innWeight
NNWeight
p1366
(dp1367
g3
F-0.004262112779781201
sba(innWeight
NNWeight
p1368
(dp1369
g3
F0.025700061822983473
sba(innWeight
NNWeight
p1370
(dp1371
g3
F0.03436126291852045
sba(innWeight
NNWeight
p1372
(dp1373
g3
F-0.01317184453848587
sba(innWeight
NNWeight
p1374
(dp1375
g3
F0.059927829359444414
sba(innWeight
NNWeight
p1376
(dp1377
g3
F0.04992615746678374
sba(innWeight
NNWeight
p1378
(dp1379
g3
F-0.019796128611169445
sba(innWeight
NNWeight
p1380
(dp1381
g3
F-0.03067787081255945
sba(innWeight
NNWeight
p1382
(dp1383
g3
F0.004946208615637746
sba(innWeight
NNWeight
p1384
(dp1385
g3
F0.016732315567483436
sba(innWeight
NNWeight
p1386
(dp1387
g3
F-0.029986745568262092
sba(innWeight
NNWeight
p1388
(dp1389
g3
F-0.025731293681275167
sba(innWeight
NNWeight
p1390
(dp1391
g3
F-0.06678258528924855
sba(innWeight
NNWeight
p1392
(dp1393
g3
F0.007084532572250936
sba(innWeight
NNWeight
p1394
(dp1395
g3
F0.0179318225479216
sba(innWeight
NNWeight
p1396
(dp1397
g3
F0.004561802125714102
sba(innWeight
NNWeight
p1398
(dp1399
g3
F0.0702909075221917
sba(innWeight
NNWeight
p1400
(dp1401
g3
F0.0029680560022257913
sba(innWeight
NNWeight
p1402
(dp1403
g3
F-0.003371593394237055
sba(innWeight
NNWeight
p1404
(dp1405
g3
F-0.02352171383405349
sba(innWeight
NNWeight
p1406
(dp1407
g3
F0.06360406778390948
sba(innWeight
NNWeight
p1408
(dp1409
g3
F0.055134625537478686
sba(innWeight
NNWeight
p1410
(dp1411
g3
F-0.010238303065672055
sba(innWeight
NNWeight
p1412
(dp1413
g3
F-0.018279107772473574
sba(innWeight
NNWeight
p1414
(dp1415
g3
F-0.01268165374020658
sba(innWeight
NNWeight
p1416
(dp1417
g3
F0.0012344184129359124
sba(innWeight
NNWeight
p1418
(dp1419
g3
F-0.03897466681686344
sba(innWeight
NNWeight
p1420
(dp1421
g3
F0.04575799820749928
sba(innWeight
NNWeight
p1422
(dp1423
g3
F0.021385994054565392
sba(innWeight
NNWeight
p1424
(dp1425
g3
F-0.02916691827195358
sba(innWeight
NNWeight
p1426
(dp1427
g3
F0.04938905342069045
sba(innWeight
NNWeight
p1428
(dp1429
g3
F0.01889780651618958
sba(innWeight
NNWeight
p1430
(dp1431
g3
F0.024481441481901633
sba(innWeight
NNWeight
p1432
(dp1433
g3
F0.003983600889252638
sba(innWeight
NNWeight
p1434
(dp1435
g3
F0.008625927885417214
sba(innWeight
NNWeight
p1436
(dp1437
g3
F0.013061792731531307
sba(innWeight
NNWeight
p1438
(dp1439
g3
F0.03278652881728174
sba(innWeight
NNWeight
p1440
(dp1441
g3
F0.013958288822709152
sba(innWeight
NNWeight
p1442
(dp1443
g3
F0.0327623809908348
sba(innWeight
NNWeight
p1444
(dp1445
g3
F-0.01658088494572233
sba(innWeight
NNWeight
p1446
(dp1447
g3
F0.020152872139134883
sba(innWeight
NNWeight
p1448
(dp1449
g3
F-0.030588742619084733
sba(innWeight
NNWeight
p1450
(dp1451
g3
F-0.06458547900384391
sba(innWeight
NNWeight
p1452
(dp1453
g3
F0.0018083601017830236
sba(innWeight
NNWeight
p1454
(dp1455
g3
F0.004379646073364746
sba(innWeight
NNWeight
p1456
(dp1457
g3
F0.013999254057626163
sba(innWeight
NNWeight
p1458
(dp1459
g3
F-0.03478287412409929
sba(innWeight
NNWeight
p1460
(dp1461
g3
F0.04973477918357224
sba(innWeight
NNWeight
p1462
(dp1463
g3
F-0.03350341889456547
sba(innWeight
NNWeight
p1464
(dp1465
g3
F-0.005768305471105662
sba(innWeight
NNWeight
p1466
(dp1467
g3
F-0.012793508791229613
sba(innWeight
NNWeight
p1468
(dp1469
g3
F0.08768012531757924
sba(innWeight
NNWeight
p1470
(dp1471
g3
F-0.013618428925627795
sba(innWeight
NNWeight
p1472
(dp1473
g3
F-0.04092138297230954
sba(innWeight
NNWeight
p1474
(dp1475
g3
F0.03598192143649437
sba(innWeight
NNWeight
p1476
(dp1477
g3
F0.001841181191108869
sba(innWeight
NNWeight
p1478
(dp1479
g3
F-0.02797108879622603
sba(innWeight
NNWeight
p1480
(dp1481
g3
F-0.035575324363969485
sba(innWeight
NNWeight
p1482
(dp1483
g3
F-0.005049583084398859
sba(innWeight
NNWeight
p1484
(dp1485
g3
F0.050491770083867245
sba(innWeight
NNWeight
p1486
(dp1487
g3
F-0.02670718885774735
sba(innWeight
NNWeight
p1488
(dp1489
g3
F0.0486820234231316
sba(innWeight
NNWeight
p1490
(dp1491
g3
F0.008200404060333807
sba(innWeight
NNWeight
p1492
(dp1493
g3
F0.01800570346513451
sba(innWeight
NNWeight
p1494
(dp1495
g3
F0.05365139881804792
sba(innWeight
NNWeight
p1496
(dp1497
g3
F0.06532283673124133
sba(innWeight
NNWeight
p1498
(dp1499
g3
F0.022260539584971435
sba(innWeight
NNWeight
p1500
(dp1501
g3
F-0.029216015301336197
sba(innWeight
NNWeight
p1502
(dp1503
g3
F0.022948094974571943
sba(innWeight
NNWeight
p1504
(dp1505
g3
F-0.09708041875653077
sba(innWeight
NNWeight
p1506
(dp1507
g3
F0.04229706181376688
sba(innWeight
NNWeight
p1508
(dp1509
g3
F-0.08674280035362865
sba(innWeight
NNWeight
p1510
(dp1511
g3
F-0.0713636246934956
sba(innWeight
NNWeight
p1512
(dp1513
g3
F0.006468935622071485
sba(innWeight
NNWeight
p1514
(dp1515
g3
F0.013842709446186393
sba(innWeight
NNWeight
p1516
(dp1517
g3
F0.006582844960868652
sba(innWeight
NNWeight
p1518
(dp1519
g3
F-0.06296674159422966
sba(innWeight
NNWeight
p1520
(dp1521
g3
F0.05296568492747002
sba(innWeight
NNWeight
p1522
(dp1523
g3
F-0.005085899040412408
sba(innWeight
NNWeight
p1524
(dp1525
g3
F0.07275591803095074
sba(innWeight
NNWeight
p1526
(dp1527
g3
F0.04074988483448306
sba(innWeight
NNWeight
p1528
(dp1529
g3
F0.021050693437419818
sba(innWeight
NNWeight
p1530
(dp1531
g3
F-0.027755459667880334
sba(innWeight
NNWeight
p1532
(dp1533
g3
F0.0010594830308074538
sba(innWeight
NNWeight
p1534
(dp1535
g3
F-0.004755944185813929
sba(innWeight
NNWeight
p1536
(dp1537
g3
F-0.056867784232765166
sba(innWeight
NNWeight
p1538
(dp1539
g3
F-0.005004202088227095
sba(innWeight
NNWeight
p1540
(dp1541
g3
F-0.0541499880958073
sba(innWeight
NNWeight
p1542
(dp1543
g3
F-0.035534020296240816
sba(innWeight
NNWeight
p1544
(dp1545
g3
F0.021504500288802905
sba(innWeight
NNWeight
p1546
(dp1547
g3
F0.06300865633943321
sba(innWeight
NNWeight
p1548
(dp1549
g3
F0.043068219227423876
sba(innWeight
NNWeight
p1550
(dp1551
g3
F-0.014860177206018281
sba(innWeight
NNWeight
p1552
(dp1553
g3
F0.05034870460389787
sba(innWeight
NNWeight
p1554
(dp1555
g3
F0.06639231947031587
sba(innWeight
NNWeight
p1556
(dp1557
g3
F-0.01613016330985965
sba(innWeight
NNWeight
p1558
(dp1559
g3
F-0.014982188533116949
sba(innWeight
NNWeight
p1560
(dp1561
g3
F0.042880126124939515
sba(innWeight
NNWeight
p1562
(dp1563
g3
F0.04326306515729964
sba(innWeight
NNWeight
p1564
(dp1565
g3
F-0.02656017610600767
sba(innWeight
NNWeight
p1566
(dp1567
g3
F-0.026979039004239345
sba(innWeight
NNWeight
p1568
(dp1569
g3
F-0.0046234288911129835
sba(innWeight
NNWeight
p1570
(dp1571
g3
F-0.012827258260371099
sba(innWeight
NNWeight
p1572
(dp1573
g3
F0.03398059855599385
sba(innWeight
NNWeight
p1574
(dp1575
g3
F0.020301574696597775
sba(innWeight
NNWeight
p1576
(dp1577
g3
F-0.008760229069307469
sba(innWeight
NNWeight
p1578
(dp1579
g3
F0.04224009699059291
sba(innWeight
NNWeight
p1580
(dp1581
g3
F0.005171156779147528
sba(innWeight
NNWeight
p1582
(dp1583
g3
F0.00858140150239892
sba(innWeight
NNWeight
p1584
(dp1585
g3
F-0.01017950323446665
sba(innWeight
NNWeight
p1586
(dp1587
g3
F-0.008070856834828144
sba(innWeight
NNWeight
p1588
(dp1589
g3
F-0.017994428845808298
sba(innWeight
NNWeight
p1590
(dp1591
g3
F-0.05548610860786531
sba(innWeight
NNWeight
p1592
(dp1593
g3
F0.011482723490689453
sba(innWeight
NNWeight
p1594
(dp1595
g3
F0.07020956787228602
sba(innWeight
NNWeight
p1596
(dp1597
g3
F-0.017140667920766208
sba(innWeight
NNWeight
p1598
(dp1599
g3
F0.05695211631090389
sba(innWeight
NNWeight
p1600
(dp1601
g3
F-0.0023862713181419383
sba(innWeight
NNWeight
p1602
(dp1603
g3
F-0.02876171010016203
sba(innWeight
NNWeight
p1604
(dp1605
g3
F0.0562584410246627
sba(innWeight
NNWeight
p1606
(dp1607
g3
F0.020215826657362736
sba(innWeight
NNWeight
p1608
(dp1609
g3
F0.03242517339827593
sba(innWeight
NNWeight
p1610
(dp1611
g3
F-0.0042827890022693995
sba(innWeight
NNWeight
p1612
(dp1613
g3
F-0.015640355034593312
sba(innWeight
NNWeight
p1614
(dp1615
g3
F0.0006786332289006274
sba(innWeight
NNWeight
p1616
(dp1617
g3
F0.01777386363369611
sba(innWeight
NNWeight
p1618
(dp1619
g3
F-0.04396402927413342
sba(innWeight
NNWeight
p1620
(dp1621
g3
F-0.05301595353125742
sba(innWeight
NNWeight
p1622
(dp1623
g3
F-0.05596804207450841
sba(innWeight
NNWeight
p1624
(dp1625
g3
F-0.024920459822159194
sba(innWeight
NNWeight
p1626
(dp1627
g3
F0.038224736247546555
sba(innWeight
NNWeight
p1628
(dp1629
g3
F-0.0446317952735864
sba(innWeight
NNWeight
p1630
(dp1631
g3
F0.06580083072915859
sba(innWeight
NNWeight
p1632
(dp1633
g3
F0.010094725177707325
sba(innWeight
NNWeight
p1634
(dp1635
g3
F0.001371220060347678
sba(innWeight
NNWeight
p1636
(dp1637
g3
F-0.01172625904471476
sba(innWeight
NNWeight
p1638
(dp1639
g3
F-0.01522098711042806
sba(innWeight
NNWeight
p1640
(dp1641
g3
F-0.0010311985357460574
sba(innWeight
NNWeight
p1642
(dp1643
g3
F0.05085034139791832
sba(innWeight
NNWeight
p1644
(dp1645
g3
F-0.0373513972309837
sba(innWeight
NNWeight
p1646
(dp1647
g3
F0.013989355878177909
sba(innWeight
NNWeight
p1648
(dp1649
g3
F0.04110925585162299
sba(innWeight
NNWeight
p1650
(dp1651
g3
F0.05044121170903843
sba(innWeight
NNWeight
p1652
(dp1653
g3
F0.004230333332114527
sba(innWeight
NNWeight
p1654
(dp1655
g3
F-0.023997529822825506
sba(innWeight
NNWeight
p1656
(dp1657
g3
F0.05449039759090314
sba(innWeight
NNWeight
p1658
(dp1659
g3
F0.03897669703691379
sba(innWeight
NNWeight
p1660
(dp1661
g3
F0.0017518378817871503
sba(innWeight
NNWeight
p1662
(dp1663
g3
F0.04007218247895066
sba(innWeight
NNWeight
p1664
(dp1665
g3
F-0.03636931247952659
sba(innWeight
NNWeight
p1666
(dp1667
g3
F0.021324152412483487
sba(innWeight
NNWeight
p1668
(dp1669
g3
F0.006884569033164467
sba(innWeight
NNWeight
p1670
(dp1671
g3
F0.06865903055111863
sba(innWeight
NNWeight
p1672
(dp1673
g3
F-0.020363222046704793
sba(innWeight
NNWeight
p1674
(dp1675
g3
F0.04324979364434895
sba(innWeight
NNWeight
p1676
(dp1677
g3
F0.06719949443350087
sba(innWeight
NNWeight
p1678
(dp1679
g3
F-0.009957692218182082
sba(innWeight
NNWeight
p1680
(dp1681
g3
F0.011879934648980761
sba(innWeight
NNWeight
p1682
(dp1683
g3
F0.03566968813032879
sba(innWeight
NNWeight
p1684
(dp1685
g3
F0.007479542767236791
sba(innWeight
NNWeight
p1686
(dp1687
g3
F0.04947558371056377
sba(innWeight
NNWeight
p1688
(dp1689
g3
F0.0046250752056925075
sba(innWeight
NNWeight
p1690
(dp1691
g3
F0.05815725655448327
sba(innWeight
NNWeight
p1692
(dp1693
g3
F-0.01483577230755744
sba(innWeight
NNWeight
p1694
(dp1695
g3
F-0.02663958455961827
sba(innWeight
NNWeight
p1696
(dp1697
g3
F-0.019895506584285714
sba(innWeight
NNWeight
p1698
(dp1699
g3
F0.07818755323641265
sba(innWeight
NNWeight
p1700
(dp1701
g3
F-0.023589691608572678
sba(innWeight
NNWeight
p1702
(dp1703
g3
F0.01304330004308221
sba(innWeight
NNWeight
p1704
(dp1705
g3
F0.007668801248303733
sba(innWeight
NNWeight
p1706
(dp1707
g3
F0.03036294376341599
sba(innWeight
NNWeight
p1708
(dp1709
g3
F0.03509760216573879
sba(innWeight
NNWeight
p1710
(dp1711
g3
F-0.01258363765912797
sba(innWeight
NNWeight
p1712
(dp1713
g3
F0.002628357617233437
sba(innWeight
NNWeight
p1714
(dp1715
g3
F-0.02860151136197418
sba(innWeight
NNWeight
p1716
(dp1717
g3
F0.021671068395414887
sba(innWeight
NNWeight
p1718
(dp1719
g3
F0.03628411670548991
sba(innWeight
NNWeight
p1720
(dp1721
g3
F-0.012503402601209409
sba(innWeight
NNWeight
p1722
(dp1723
g3
F0.03350353999803081
sba(innWeight
NNWeight
p1724
(dp1725
g3
F0.036933237374714364
sba(innWeight
NNWeight
p1726
(dp1727
g3
F-0.03327970726268111
sba(innWeight
NNWeight
p1728
(dp1729
g3
F-0.015332897470305727
sba(innWeight
NNWeight
p1730
(dp1731
g3
F0.0396691734834455
sba(innWeight
NNWeight
p1732
(dp1733
g3
F-0.025059698914521047
sba(innWeight
NNWeight
p1734
(dp1735
g3
F-0.004881194121098764
sba(innWeight
NNWeight
p1736
(dp1737
g3
F-0.036661914246536094
sba(innWeight
NNWeight
p1738
(dp1739
g3
F-0.0440426673529907
sba(innWeight
NNWeight
p1740
(dp1741
g3
F0.014916488496741008
sba(innWeight
NNWeight
p1742
(dp1743
g3
F-0.03394440619130161
sba(innWeight
NNWeight
p1744
(dp1745
g3
F0.05720414520859628
sba(innWeight
NNWeight
p1746
(dp1747
g3
F-0.024258039226435008
sba(innWeight
NNWeight
p1748
(dp1749
g3
F-0.029207746856458244
sba(innWeight
NNWeight
p1750
(dp1751
g3
F-0.05414282805649226
sba(innWeight
NNWeight
p1752
(dp1753
g3
F0.03643029630939828
sba(innWeight
NNWeight
p1754
(dp1755
g3
F-0.023008929964222366
sba(innWeight
NNWeight
p1756
(dp1757
g3
F-0.04308415498217086
sba(innWeight
NNWeight
p1758
(dp1759
g3
F-0.05032500900054856
sba(innWeight
NNWeight
p1760
(dp1761
g3
F-0.04798186237303143
sba(innWeight
NNWeight
p1762
(dp1763
g3
F-0.0012590738034306307
sba(innWeight
NNWeight
p1764
(dp1765
g3
F0.002068053222848167
sba(innWeight
NNWeight
p1766
(dp1767
g3
F-0.06036564735919142
sba(innWeight
NNWeight
p1768
(dp1769
g3
F0.02748523304526514
sba(innWeight
NNWeight
p1770
(dp1771
g3
F-0.07288871016469427
sba(innWeight
NNWeight
p1772
(dp1773
g3
F0.0441809006428737
sba(innWeight
NNWeight
p1774
(dp1775
g3
F0.013514641905811078
sba(innWeight
NNWeight
p1776
(dp1777
g3
F0.045117414478919204
sba(innWeight
NNWeight
p1778
(dp1779
g3
F0.011236378969584815
sba(innWeight
NNWeight
p1780
(dp1781
g3
F0.042478573331019814
sba(innWeight
NNWeight
p1782
(dp1783
g3
F-0.02990540941604795
sba(innWeight
NNWeight
p1784
(dp1785
g3
F0.007021491491267765
sba(innWeight
NNWeight
p1786
(dp1787
g3
F0.04683601612139211
sba(innWeight
NNWeight
p1788
(dp1789
g3
F0.006733599008779719
sba(innWeight
NNWeight
p1790
(dp1791
g3
F-0.0023988188515641027
sba(innWeight
NNWeight
p1792
(dp1793
g3
F-0.026695186644128857
sba(innWeight
NNWeight
p1794
(dp1795
g3
F-0.052787509033015205
sba(innWeight
NNWeight
p1796
(dp1797
g3
F-0.015330368690101685
sba(innWeight
NNWeight
p1798
(dp1799
g3
F0.0010699555760930036
sba(innWeight
NNWeight
p1800
(dp1801
g3
F-0.06239821002095513
sba(innWeight
NNWeight
p1802
(dp1803
g3
F-0.054027606703972726
sba(innWeight
NNWeight
p1804
(dp1805
g3
F-0.040960222066441294
sba(innWeight
NNWeight
p1806
(dp1807
g3
F-0.0033038217449336943
sba(innWeight
NNWeight
p1808
(dp1809
g3
F-0.03528472388031099
sba(innWeight
NNWeight
p1810
(dp1811
g3
F0.05376160667843292
sba(innWeight
NNWeight
p1812
(dp1813
g3
F-0.044445468484573245
sba(innWeight
NNWeight
p1814
(dp1815
g3
F0.0038546203900023755
sba(innWeight
NNWeight
p1816
(dp1817
g3
F-0.04674900655201902
sba(innWeight
NNWeight
p1818
(dp1819
g3
F0.030278663342072253
sba(innWeight
NNWeight
p1820
(dp1821
g3
F-0.02112935586699127
sba(innWeight
NNWeight
p1822
(dp1823
g3
F-0.012498402639945299
sba(innWeight
NNWeight
p1824
(dp1825
g3
F-0.05823628766821791
sba(innWeight
NNWeight
p1826
(dp1827
g3
F-0.02587162867541914
sba(innWeight
NNWeight
p1828
(dp1829
g3
F-0.019894834088949254
sba(innWeight
NNWeight
p1830
(dp1831
g3
F-0.018147329372852763
sba(innWeight
NNWeight
p1832
(dp1833
g3
F0.035369014616043415
sba(innWeight
NNWeight
p1834
(dp1835
g3
F0.03149130706468957
sba(innWeight
NNWeight
p1836
(dp1837
g3
F-0.025518526980716463
sba(innWeight
NNWeight
p1838
(dp1839
g3
F-0.04003750613120578
sba(innWeight
NNWeight
p1840
(dp1841
g3
F-0.0017829237564198049
sba(innWeight
NNWeight
p1842
(dp1843
g3
F0.006418248628666303
sba(innWeight
NNWeight
p1844
(dp1845
g3
F-0.018706006722553497
sba(innWeight
NNWeight
p1846
(dp1847
g3
F-0.021522247207362875
sba(innWeight
NNWeight
p1848
(dp1849
g3
F0.008374778522844644
sba(innWeight
NNWeight
p1850
(dp1851
g3
F-0.00924959626546386
sba(innWeight
NNWeight
p1852
(dp1853
g3
F0.014518087822165892
sba(innWeight
NNWeight
p1854
(dp1855
g3
F0.002665225544741038
sba(innWeight
NNWeight
p1856
(dp1857
g3
F0.009517642584367379
sba(innWeight
NNWeight
p1858
(dp1859
g3
F0.057029222796050785
sba(innWeight
NNWeight
p1860
(dp1861
g3
F-0.03346106687707716
sba(innWeight
NNWeight
p1862
(dp1863
g3
F0.02139837357472984
sba(innWeight
NNWeight
p1864
(dp1865
g3
F-0.002963651835872269
sba(innWeight
NNWeight
p1866
(dp1867
g3
F0.04474001467122439
sba(innWeight
NNWeight
p1868
(dp1869
g3
F0.004519109047243383
sba(innWeight
NNWeight
p1870
(dp1871
g3
F0.03879772387358067
sba(innWeight
NNWeight
p1872
(dp1873
g3
F-0.013336710434530287
sba(innWeight
NNWeight
p1874
(dp1875
g3
F-0.007757505900038763
sba(innWeight
NNWeight
p1876
(dp1877
g3
F-0.02395391637843763
sba(innWeight
NNWeight
p1878
(dp1879
g3
F0.05489799812966956
sba(innWeight
NNWeight
p1880
(dp1881
g3
F-0.0032172124499034336
sba(innWeight
NNWeight
p1882
(dp1883
g3
F0.018115123014263802
sba(innWeight
NNWeight
p1884
(dp1885
g3
F-0.014691675161764842
sba(innWeight
NNWeight
p1886
(dp1887
g3
F-0.037162763062271204
sba(innWeight
NNWeight
p1888
(dp1889
g3
F0.060210076976236
sba(innWeight
NNWeight
p1890
(dp1891
g3
F-0.02873118902631089
sba(innWeight
NNWeight
p1892
(dp1893
g3
F0.047445291847731365
sba(innWeight
NNWeight
p1894
(dp1895
g3
F-0.04172127475882879
sba(innWeight
NNWeight
p1896
(dp1897
g3
F-0.043978535936879525
sba(innWeight
NNWeight
p1898
(dp1899
g3
F0.0004368858252670898
sba(innWeight
NNWeight
p1900
(dp1901
g3
F-0.015548264470809522
sba(innWeight
NNWeight
p1902
(dp1903
g3
F0.02365427026862083
sba(innWeight
NNWeight
p1904
(dp1905
g3
F-0.02135509393350729
sba(innWeight
NNWeight
p1906
(dp1907
g3
F0.026381900439442506
sba(innWeight
NNWeight
p1908
(dp1909
g3
F-0.04306389509967031
sba(innWeight
NNWeight
p1910
(dp1911
g3
F0.013572120634313324
sba(innWeight
NNWeight
p1912
(dp1913
g3
F-0.015822043838822308
sba(innWeight
NNWeight
p1914
(dp1915
g3
F-0.08422457730922733
sba(innWeight
NNWeight
p1916
(dp1917
g3
F0.04609721922462475
sba(innWeight
NNWeight
p1918
(dp1919
g3
F0.031488678174284204
sba(innWeight
NNWeight
p1920
(dp1921
g3
F-0.007653659947208778
sba(innWeight
NNWeight
p1922
(dp1923
g3
F-0.029400133470217193
sba(innWeight
NNWeight
p1924
(dp1925
g3
F0.04972562936630634
sba(innWeight
NNWeight
p1926
(dp1927
g3
F-0.03753988941460084
sba(innWeight
NNWeight
p1928
(dp1929
g3
F-0.02777832823301447
sba(innWeight
NNWeight
p1930
(dp1931
g3
F0.03472306507885109
sba(innWeight
NNWeight
p1932
(dp1933
g3
F-0.012961678886488165
sba(innWeight
NNWeight
p1934
(dp1935
g3
F-0.05667811567584206
sba(innWeight
NNWeight
p1936
(dp1937
g3
F0.0331380520981298
sba(innWeight
NNWeight
p1938
(dp1939
g3
F0.005541686535726532
sba(innWeight
NNWeight
p1940
(dp1941
g3
F-0.030331746285119306
sba(innWeight
NNWeight
p1942
(dp1943
g3
F0.03810027865399151
sba(innWeight
NNWeight
p1944
(dp1945
g3
F0.017637509299640763
sba(innWeight
NNWeight
p1946
(dp1947
g3
F-0.011855019241241027
sba(innWeight
NNWeight
p1948
(dp1949
g3
F0.022489232342716717
sba(innWeight
NNWeight
p1950
(dp1951
g3
F-0.02608084078446061
sba(innWeight
NNWeight
p1952
(dp1953
g3
F0.007215244786134391
sba(innWeight
NNWeight
p1954
(dp1955
g3
F-0.04725545077352416
sba(innWeight
NNWeight
p1956
(dp1957
g3
F-0.02028986405057511
sba(innWeight
NNWeight
p1958
(dp1959
g3
F-0.004781441456578761
sba(innWeight
NNWeight
p1960
(dp1961
g3
F-0.01547004314929157
sba(innWeight
NNWeight
p1962
(dp1963
g3
F0.055292454073611955
sba(innWeight
NNWeight
p1964
(dp1965
g3
F0.009886838884555311
sba(innWeight
NNWeight
p1966
(dp1967
g3
F0.028352753810417353
sba(innWeight
NNWeight
p1968
(dp1969
g3
F-0.0057332578199052455
sba(innWeight
NNWeight
p1970
(dp1971
g3
F-0.0035403294317981246
sba(innWeight
NNWeight
p1972
(dp1973
g3
F0.03582079000854192
sba(innWeight
NNWeight
p1974
(dp1975
g3
F-0.046847838384456365
sba(innWeight
NNWeight
p1976
(dp1977
g3
F-0.06637931438143801
sba(innWeight
NNWeight
p1978
(dp1979
g3
F0.024321883691391884
sba(innWeight
NNWeight
p1980
(dp1981
g3
F-0.01850539310943124
sba(innWeight
NNWeight
p1982
(dp1983
g3
F0.07275881080922542
sba(innWeight
NNWeight
p1984
(dp1985
g3
F0.0075087398404568685
sba(innWeight
NNWeight
p1986
(dp1987
g3
F0.05538430729265105
sba(innWeight
NNWeight
p1988
(dp1989
g3
F0.02127523494089526
sba(innWeight
NNWeight
p1990
(dp1991
g3
F0.06689396780751686
sba(innWeight
NNWeight
p1992
(dp1993
g3
F-0.07093329439966331
sba(innWeight
NNWeight
p1994
(dp1995
g3
F0.014399884657441185
sba(innWeight
NNWeight
p1996
(dp1997
g3
F0.002647844137501676
sba(innWeight
NNWeight
p1998
(dp1999
g3
F0.039423402960163584
sba(innWeight
NNWeight
p2000
(dp2001
g3
F0.002707804218950745
sba(innWeight
NNWeight
p2002
(dp2003
g3
F-0.005563361494133107
sba(innWeight
NNWeight
p2004
(dp2005
g3
F0.04817860182142595
sba(innWeight
NNWeight
p2006
(dp2007
g3
F0.0039553060560340286
sba(innWeight
NNWeight
p2008
(dp2009
g3
F-0.027787065099000603
sba(innWeight
NNWeight
p2010
(dp2011
g3
F-0.007822799810666513
sba(innWeight
NNWeight
p2012
(dp2013
g3
F-0.060247132044272525
sba(innWeight
NNWeight
p2014
(dp2015
g3
F0.03601340575520801
sba(innWeight
NNWeight
p2016
(dp2017
g3
F0.000589781153329586
sba(innWeight
NNWeight
p2018
(dp2019
g3
F-0.003971009136302144
sba(innWeight
NNWeight
p2020
(dp2021
g3
F0.09003998584527718
sba.