(lp0
(innWeight
NNWeight
p1
(dp2
S'val'
p3
F-0.03771741786961476
sba(innWeight
NNWeight
p4
(dp5
g3
F0.035748873465076214
sba(innWeight
NNWeight
p6
(dp7
g3
F-0.04642027425972703
sba(innWeight
NNWeight
p8
(dp9
g3
F0.046169799725386144
sba(innWeight
NNWeight
p10
(dp11
g3
F0.0003557864496693597
sba(innWeight
NNWeight
p12
(dp13
g3
F-0.04062409354792518
sba(innWeight
NNWeight
p14
(dp15
g3
F0.007089662519869944
sba(innWeight
NNWeight
p16
(dp17
g3
F-0.023195981466654948
sba(innWeight
NNWeight
p18
(dp19
g3
F0.02263593593730641
sba(innWeight
NNWeight
p20
(dp21
g3
F0.03843255771009118
sba(innWeight
NNWeight
p22
(dp23
g3
F0.043717585678183235
sba(innWeight
NNWeight
p24
(dp25
g3
F-0.04623670026781576
sba(innWeight
NNWeight
p26
(dp27
g3
F0.04098433721632269
sba(innWeight
NNWeight
p28
(dp29
g3
F-0.04343754423980241
sba(innWeight
NNWeight
p30
(dp31
g3
F0.006274212171605687
sba(innWeight
NNWeight
p32
(dp33
g3
F-0.009288082649636797
sba(innWeight
NNWeight
p34
(dp35
g3
F0.03231511128021793
sba(innWeight
NNWeight
p36
(dp37
g3
F0.04961752179691225
sba(innWeight
NNWeight
p38
(dp39
g3
F-0.04647607880074354
sba(innWeight
NNWeight
p40
(dp41
g3
F0.039480014925448295
sba(innWeight
NNWeight
p42
(dp43
g3
F-0.04735497470068533
sba(innWeight
NNWeight
p44
(dp45
g3
F-0.006648415321485313
sba(innWeight
NNWeight
p46
(dp47
g3
F0.010296610510073023
sba(innWeight
NNWeight
p48
(dp49
g3
F0.0190630443526031
sba(innWeight
NNWeight
p50
(dp51
g3
F0.02367570813407066
sba(innWeight
NNWeight
p52
(dp53
g3
F-0.00969478262418354
sba(innWeight
NNWeight
p54
(dp55
g3
F0.03517098641882737
sba(innWeight
NNWeight
p56
(dp57
g3
F0.047877915783199713
sba(innWeight
NNWeight
p58
(dp59
g3
F0.020929837541402374
sba(innWeight
NNWeight
p60
(dp61
g3
F-0.0023721793755699053
sba(innWeight
NNWeight
p62
(dp63
g3
F0.03075561277211063
sba(innWeight
NNWeight
p64
(dp65
g3
F-0.039106095049372326
sba(innWeight
NNWeight
p66
(dp67
g3
F0.005234717308731918
sba(innWeight
NNWeight
p68
(dp69
g3
F0.0035228791683132423
sba(innWeight
NNWeight
p70
(dp71
g3
F0.01855621917349377
sba(innWeight
NNWeight
p72
(dp73
g3
F0.04582247125813108
sba(innWeight
NNWeight
p74
(dp75
g3
F-0.03320508179070632
sba(innWeight
NNWeight
p76
(dp77
g3
F0.009711160703699618
sba(innWeight
NNWeight
p78
(dp79
g3
F-0.012008941839677035
sba(innWeight
NNWeight
p80
(dp81
g3
F0.009025716862125733
sba(innWeight
NNWeight
p82
(dp83
g3
F0.008182696270420097
sba(innWeight
NNWeight
p84
(dp85
g3
F0.005928760462120675
sba(innWeight
NNWeight
p86
(dp87
g3
F-0.040334874926680975
sba(innWeight
NNWeight
p88
(dp89
g3
F-0.017130510858785277
sba(innWeight
NNWeight
p90
(dp91
g3
F0.04965494038619187
sba(innWeight
NNWeight
p92
(dp93
g3
F-0.04724186520904251
sba(innWeight
NNWeight
p94
(dp95
g3
F-0.007701016007612061
sba(innWeight
NNWeight
p96
(dp97
g3
F0.03582603876133083
sba(innWeight
NNWeight
p98
(dp99
g3
F0.02539870829233052
sba(innWeight
NNWeight
p100
(dp101
g3
F0.03408805652241905
sba(innWeight
NNWeight
p102
(dp103
g3
F-0.01003850003592256
sba(innWeight
NNWeight
p104
(dp105
g3
F-0.013574546336402427
sba(innWeight
NNWeight
p106
(dp107
g3
F-0.034401300435109326
sba(innWeight
NNWeight
p108
(dp109
g3
F-0.017923331983609625
sba(innWeight
NNWeight
p110
(dp111
g3
F-0.030991759603522875
sba(innWeight
NNWeight
p112
(dp113
g3
F0.020791542058682555
sba(innWeight
NNWeight
p114
(dp115
g3
F-0.04815766621362924
sba(innWeight
NNWeight
p116
(dp117
g3
F-0.031123024380952546
sba(innWeight
NNWeight
p118
(dp119
g3
F-0.03981064434761203
sba(innWeight
NNWeight
p120
(dp121
g3
F-0.017985469233797357
sba(innWeight
NNWeight
p122
(dp123
g3
F0.048514920974220666
sba(innWeight
NNWeight
p124
(dp125
g3
F-0.023076302191410138
sba(innWeight
NNWeight
p126
(dp127
g3
F-0.03661365881811788
sba(innWeight
NNWeight
p128
(dp129
g3
F0.006074047165811037
sba(innWeight
NNWeight
p130
(dp131
g3
F-0.016197639144618425
sba(innWeight
NNWeight
p132
(dp133
g3
F-0.019725096348920237
sba(innWeight
NNWeight
p134
(dp135
g3
F0.04957331172071523
sba(innWeight
NNWeight
p136
(dp137
g3
F0.018041757852762765
sba(innWeight
NNWeight
p138
(dp139
g3
F-0.03433475810133484
sba(innWeight
NNWeight
p140
(dp141
g3
F0.027815935931944626
sba(innWeight
NNWeight
p142
(dp143
g3
F-0.03459799620750205
sba(innWeight
NNWeight
p144
(dp145
g3
F0.001207599142323934
sba(innWeight
NNWeight
p146
(dp147
g3
F-0.009590396577199923
sba(innWeight
NNWeight
p148
(dp149
g3
F-0.015990735908709232
sba(innWeight
NNWeight
p150
(dp151
g3
F0.039494414958440575
sba(innWeight
NNWeight
p152
(dp153
g3
F-0.04099914586801445
sba(innWeight
NNWeight
p154
(dp155
g3
F0.009712280679969133
sba(innWeight
NNWeight
p156
(dp157
g3
F0.026631822804890917
sba(innWeight
NNWeight
p158
(dp159
g3
F-0.027461118045817925
sba(innWeight
NNWeight
p160
(dp161
g3
F-0.03066462587788418
sba(innWeight
NNWeight
p162
(dp163
g3
F0.026872904471698367
sba(innWeight
NNWeight
p164
(dp165
g3
F-0.026613545498469317
sba(innWeight
NNWeight
p166
(dp167
g3
F0.002718423194163622
sba(innWeight
NNWeight
p168
(dp169
g3
F-0.011985791674305258
sba(innWeight
NNWeight
p170
(dp171
g3
F-0.033122637656104924
sba(innWeight
NNWeight
p172
(dp173
g3
F0.03260773351708881
sba(innWeight
NNWeight
p174
(dp175
g3
F0.005764749432403427
sba(innWeight
NNWeight
p176
(dp177
g3
F0.005946423859395256
sba(innWeight
NNWeight
p178
(dp179
g3
F0.013185551413342135
sba(innWeight
NNWeight
p180
(dp181
g3
F-0.010931961318210693
sba(innWeight
NNWeight
p182
(dp183
g3
F0.0035826212499954547
sba(innWeight
NNWeight
p184
(dp185
g3
F0.042908507037861414
sba(innWeight
NNWeight
p186
(dp187
g3
F-0.0023448809140107496
sba(innWeight
NNWeight
p188
(dp189
g3
F0.007846307101776962
sba(innWeight
NNWeight
p190
(dp191
g3
F-0.023184662927527678
sba(innWeight
NNWeight
p192
(dp193
g3
F-0.046577983642998026
sba(innWeight
NNWeight
p194
(dp195
g3
F-0.007038336145873548
sba(innWeight
NNWeight
p196
(dp197
g3
F-0.00795768674119316
sba(innWeight
NNWeight
p198
(dp199
g3
F0.04022719036698988
sba(innWeight
NNWeight
p200
(dp201
g3
F0.003973511886221282
sba(innWeight
NNWeight
p202
(dp203
g3
F0.03378819104368319
sba(innWeight
NNWeight
p204
(dp205
g3
F0.0001126243015883266
sba(innWeight
NNWeight
p206
(dp207
g3
F0.04838626591361303
sba(innWeight
NNWeight
p208
(dp209
g3
F-0.04560454477831971
sba(innWeight
NNWeight
p210
(dp211
g3
F-0.026504484787181218
sba(innWeight
NNWeight
p212
(dp213
g3
F0.044998758327616406
sba(innWeight
NNWeight
p214
(dp215
g3
F0.02572638752501959
sba(innWeight
NNWeight
p216
(dp217
g3
F0.0370331498242942
sba(innWeight
NNWeight
p218
(dp219
g3
F-0.04374972287030117
sba(innWeight
NNWeight
p220
(dp221
g3
F-0.0016546714386762142
sba(innWeight
NNWeight
p222
(dp223
g3
F0.02071671591991521
sba(innWeight
NNWeight
p224
(dp225
g3
F-0.020376395560809793
sba(innWeight
NNWeight
p226
(dp227
g3
F-0.010296244546103084
sba(innWeight
NNWeight
p228
(dp229
g3
F-0.005979344049732083
sba(innWeight
NNWeight
p230
(dp231
g3
F0.009171291565214257
sba(innWeight
NNWeight
p232
(dp233
g3
F-0.001046687562195403
sba(innWeight
NNWeight
p234
(dp235
g3
F-0.04298446489388591
sba(innWeight
NNWeight
p236
(dp237
g3
F0.03258788366229187
sba(innWeight
NNWeight
p238
(dp239
g3
F0.01785870024402364
sba(innWeight
NNWeight
p240
(dp241
g3
F0.022137248031643155
sba(innWeight
NNWeight
p242
(dp243
g3
F0.04364646345895884
sba(innWeight
NNWeight
p244
(dp245
g3
F0.02418319023565585
sba(innWeight
NNWeight
p246
(dp247
g3
F-0.01870838929729952
sba(innWeight
NNWeight
p248
(dp249
g3
F0.016004166871282755
sba(innWeight
NNWeight
p250
(dp251
g3
F-0.02925958631834177
sba(innWeight
NNWeight
p252
(dp253
g3
F0.024771464562040515
sba(innWeight
NNWeight
p254
(dp255
g3
F0.010361040294378732
sba(innWeight
NNWeight
p256
(dp257
g3
F0.028532126700279572
sba(innWeight
NNWeight
p258
(dp259
g3
F0.04898337022733637
sba(innWeight
NNWeight
p260
(dp261
g3
F0.02321579131699826
sba(innWeight
NNWeight
p262
(dp263
g3
F0.007119626701666349
sba(innWeight
NNWeight
p264
(dp265
g3
F-0.027669574551792253
sba(innWeight
NNWeight
p266
(dp267
g3
F0.023432252428099654
sba(innWeight
NNWeight
p268
(dp269
g3
F-0.013296275252790547
sba(innWeight
NNWeight
p270
(dp271
g3
F0.016950111132549985
sba(innWeight
NNWeight
p272
(dp273
g3
F0.031622394035230726
sba(innWeight
NNWeight
p274
(dp275
g3
F-0.028321071963930102
sba(innWeight
NNWeight
p276
(dp277
g3
F-0.03548894570407261
sba(innWeight
NNWeight
p278
(dp279
g3
F-0.04484991320448184
sba(innWeight
NNWeight
p280
(dp281
g3
F0.01350412511021215
sba(innWeight
NNWeight
p282
(dp283
g3
F0.01617992239167959
sba(innWeight
NNWeight
p284
(dp285
g3
F-0.04662118719609534
sba(innWeight
NNWeight
p286
(dp287
g3
F-0.02548277535816598
sba(innWeight
NNWeight
p288
(dp289
g3
F-0.041901310640408876
sba(innWeight
NNWeight
p290
(dp291
g3
F-0.012207445052734835
sba(innWeight
NNWeight
p292
(dp293
g3
F0.045945489577192467
sba(innWeight
NNWeight
p294
(dp295
g3
F-0.02396806183486133
sba(innWeight
NNWeight
p296
(dp297
g3
F0.01560232653771415
sba(innWeight
NNWeight
p298
(dp299
g3
F-0.02689810367129432
sba(innWeight
NNWeight
p300
(dp301
g3
F0.048308377381675496
sba(innWeight
NNWeight
p302
(dp303
g3
F0.030511892081622183
sba(innWeight
NNWeight
p304
(dp305
g3
F0.01757155834885057
sba(innWeight
NNWeight
p306
(dp307
g3
F-0.019449739536443147
sba(innWeight
NNWeight
p308
(dp309
g3
F-0.03316273153408868
sba(innWeight
NNWeight
p310
(dp311
g3
F-0.03141087634006018
sba(innWeight
NNWeight
p312
(dp313
g3
F0.02308250384490178
sba.