(lp0
(innWeight
NNWeight
p1
(dp2
S'val'
p3
F-0.08452081076989766
sba(innWeight
NNWeight
p4
(dp5
g3
F0.005902590472158022
sba(innWeight
NNWeight
p6
(dp7
g3
F0.0076443987810249575
sba(innWeight
NNWeight
p8
(dp9
g3
F-0.012798533638850338
sba(innWeight
NNWeight
p10
(dp11
g3
F0.02666171653259421
sba(innWeight
NNWeight
p12
(dp13
g3
F-0.005092002275766909
sba(innWeight
NNWeight
p14
(dp15
g3
F0.030654724940071407
sba(innWeight
NNWeight
p16
(dp17
g3
F0.007096769511490567
sba(innWeight
NNWeight
p18
(dp19
g3
F0.00965186905885709
sba(innWeight
NNWeight
p20
(dp21
g3
F-0.0009913824636011686
sba(innWeight
NNWeight
p22
(dp23
g3
F-0.01015845092323601
sba(innWeight
NNWeight
p24
(dp25
g3
F0.03399520143000144
sba(innWeight
NNWeight
p26
(dp27
g3
F-0.028285599551337713
sba(innWeight
NNWeight
p28
(dp29
g3
F-0.00916516371452803
sba(innWeight
NNWeight
p30
(dp31
g3
F-0.0011439382447500084
sba(innWeight
NNWeight
p32
(dp33
g3
F-0.02612228111157521
sba(innWeight
NNWeight
p34
(dp35
g3
F0.013295357857592904
sba(innWeight
NNWeight
p36
(dp37
g3
F0.004930772732257924
sba(innWeight
NNWeight
p38
(dp39
g3
F0.032308484088822274
sba(innWeight
NNWeight
p40
(dp41
g3
F0.019921507754340245
sba(innWeight
NNWeight
p42
(dp43
g3
F0.006815390740799636
sba(innWeight
NNWeight
p44
(dp45
g3
F0.02717744965593652
sba(innWeight
NNWeight
p46
(dp47
g3
F-0.0027046136615275235
sba(innWeight
NNWeight
p48
(dp49
g3
F0.007892672637542024
sba(innWeight
NNWeight
p50
(dp51
g3
F-0.01554306748749987
sba(innWeight
NNWeight
p52
(dp53
g3
F0.023499307533821432
sba(innWeight
NNWeight
p54
(dp55
g3
F-0.015401588488094422
sba(innWeight
NNWeight
p56
(dp57
g3
F0.013670738820443838
sba(innWeight
NNWeight
p58
(dp59
g3
F0.05170148112943886
sba(innWeight
NNWeight
p60
(dp61
g3
F-0.03932875076400868
sba(innWeight
NNWeight
p62
(dp63
g3
F0.01603187862556525
sba(innWeight
NNWeight
p64
(dp65
g3
F-0.004466676022368816
sba(innWeight
NNWeight
p66
(dp67
g3
F-0.009192910386179025
sba(innWeight
NNWeight
p68
(dp69
g3
F-0.05525985632174283
sba(innWeight
NNWeight
p70
(dp71
g3
F-0.003319332486172895
sba(innWeight
NNWeight
p72
(dp73
g3
F-0.02876279172779531
sba(innWeight
NNWeight
p74
(dp75
g3
F0.015260629984559189
sba(innWeight
NNWeight
p76
(dp77
g3
F-0.04904235978578612
sba(innWeight
NNWeight
p78
(dp79
g3
F-0.03286570338696606
sba(innWeight
NNWeight
p80
(dp81
g3
F-0.005737285431636224
sba(innWeight
NNWeight
p82
(dp83
g3
F-0.05199778639299679
sba(innWeight
NNWeight
p84
(dp85
g3
F-0.004838820116463965
sba(innWeight
NNWeight
p86
(dp87
g3
F0.008680284741395155
sba(innWeight
NNWeight
p88
(dp89
g3
F-0.0019358564924430053
sba(innWeight
NNWeight
p90
(dp91
g3
F0.019343993106387715
sba(innWeight
NNWeight
p92
(dp93
g3
F-0.0112963736577517
sba(innWeight
NNWeight
p94
(dp95
g3
F-0.016346984696236196
sba(innWeight
NNWeight
p96
(dp97
g3
F0.0002516050162564053
sba(innWeight
NNWeight
p98
(dp99
g3
F-0.028432821575258557
sba(innWeight
NNWeight
p100
(dp101
g3
F0.012881476435007906
sba(innWeight
NNWeight
p102
(dp103
g3
F-0.0004931407824016925
sba(innWeight
NNWeight
p104
(dp105
g3
F0.0066800102548839205
sba(innWeight
NNWeight
p106
(dp107
g3
F0.02737935720927072
sba(innWeight
NNWeight
p108
(dp109
g3
F-0.0013251639991340338
sba(innWeight
NNWeight
p110
(dp111
g3
F0.01962020140374759
sba(innWeight
NNWeight
p112
(dp113
g3
F0.014684338378527104
sba(innWeight
NNWeight
p114
(dp115
g3
F0.03339686227220971
sba(innWeight
NNWeight
p116
(dp117
g3
F0.007611353005124737
sba(innWeight
NNWeight
p118
(dp119
g3
F-0.006273532368671361
sba(innWeight
NNWeight
p120
(dp121
g3
F0.004101988161691555
sba(innWeight
NNWeight
p122
(dp123
g3
F-0.007011228135483643
sba(innWeight
NNWeight
p124
(dp125
g3
F0.02406126739598713
sba(innWeight
NNWeight
p126
(dp127
g3
F-0.08474707568133627
sba(innWeight
NNWeight
p128
(dp129
g3
F-0.000838920417838319
sba(innWeight
NNWeight
p130
(dp131
g3
F-0.037049701894050095
sba(innWeight
NNWeight
p132
(dp133
g3
F-2.5260976399035665e-05
sba(innWeight
NNWeight
p134
(dp135
g3
F-0.004855298900085153
sba(innWeight
NNWeight
p136
(dp137
g3
F-0.007785761803588514
sba(innWeight
NNWeight
p138
(dp139
g3
F-0.006795879882048217
sba(innWeight
NNWeight
p140
(dp141
g3
F-0.06828442691551513
sba(innWeight
NNWeight
p142
(dp143
g3
F-0.019812406646925327
sba(innWeight
NNWeight
p144
(dp145
g3
F0.006805140990803689
sba(innWeight
NNWeight
p146
(dp147
g3
F-0.024812918301851155
sba(innWeight
NNWeight
p148
(dp149
g3
F0.029495553374057088
sba(innWeight
NNWeight
p150
(dp151
g3
F-0.028874686026053073
sba(innWeight
NNWeight
p152
(dp153
g3
F0.012151455212603024
sba(innWeight
NNWeight
p154
(dp155
g3
F0.007305284939835176
sba(innWeight
NNWeight
p156
(dp157
g3
F0.015925473009391275
sba(innWeight
NNWeight
p158
(dp159
g3
F-0.03569619751540967
sba(innWeight
NNWeight
p160
(dp161
g3
F0.012077588682578752
sba(innWeight
NNWeight
p162
(dp163
g3
F-0.019818460778551865
sba(innWeight
NNWeight
p164
(dp165
g3
F-0.12796858109580822
sba(innWeight
NNWeight
p166
(dp167
g3
F-0.031894536008099376
sba(innWeight
NNWeight
p168
(dp169
g3
F-0.052991194781312735
sba(innWeight
NNWeight
p170
(dp171
g3
F0.011256864513852927
sba(innWeight
NNWeight
p172
(dp173
g3
F0.02480389242928335
sba(innWeight
NNWeight
p174
(dp175
g3
F0.0033519230072477364
sba(innWeight
NNWeight
p176
(dp177
g3
F-0.019205586435307287
sba(innWeight
NNWeight
p178
(dp179
g3
F0.030903808135969026
sba(innWeight
NNWeight
p180
(dp181
g3
F0.005081883840229212
sba(innWeight
NNWeight
p182
(dp183
g3
F0.010534154045075095
sba(innWeight
NNWeight
p184
(dp185
g3
F0.0014886375628946173
sba(innWeight
NNWeight
p186
(dp187
g3
F0.011996966303948534
sba(innWeight
NNWeight
p188
(dp189
g3
F-0.1357327302151143
sba(innWeight
NNWeight
p190
(dp191
g3
F-0.03523930732323027
sba(innWeight
NNWeight
p192
(dp193
g3
F0.015443084278153333
sba(innWeight
NNWeight
p194
(dp195
g3
F0.033944101598506436
sba(innWeight
NNWeight
p196
(dp197
g3
F-0.018695996525207488
sba(innWeight
NNWeight
p198
(dp199
g3
F-0.03782160043162696
sba(innWeight
NNWeight
p200
(dp201
g3
F0.007067497237955632
sba(innWeight
NNWeight
p202
(dp203
g3
F-0.010332363624817027
sba(innWeight
NNWeight
p204
(dp205
g3
F-0.07224862267513116
sba(innWeight
NNWeight
p206
(dp207
g3
F-0.003164245237038956
sba(innWeight
NNWeight
p208
(dp209
g3
F0.010889620147487487
sba(innWeight
NNWeight
p210
(dp211
g3
F-0.042424368127038536
sba(innWeight
NNWeight
p212
(dp213
g3
F0.04049572427585995
sba(innWeight
NNWeight
p214
(dp215
g3
F0.005292153364033605
sba(innWeight
NNWeight
p216
(dp217
g3
F0.006722048587102137
sba(innWeight
NNWeight
p218
(dp219
g3
F-0.019197147087655714
sba(innWeight
NNWeight
p220
(dp221
g3
F0.005010024776197412
sba(innWeight
NNWeight
p222
(dp223
g3
F0.0076389607511675285
sba(innWeight
NNWeight
p224
(dp225
g3
F0.023785726571191036
sba(innWeight
NNWeight
p226
(dp227
g3
F0.001861039095776017
sba(innWeight
NNWeight
p228
(dp229
g3
F-0.034577951359050584
sba(innWeight
NNWeight
p230
(dp231
g3
F0.0329297427860941
sba(innWeight
NNWeight
p232
(dp233
g3
F0.010215438976610968
sba(innWeight
NNWeight
p234
(dp235
g3
F0.0354412336529883
sba(innWeight
NNWeight
p236
(dp237
g3
F0.003989326201427419
sba(innWeight
NNWeight
p238
(dp239
g3
F-0.03716315368511453
sba(innWeight
NNWeight
p240
(dp241
g3
F0.014044909557222965
sba(innWeight
NNWeight
p242
(dp243
g3
F-0.013115139440415867
sba(innWeight
NNWeight
p244
(dp245
g3
F-0.005670311488564558
sba(innWeight
NNWeight
p246
(dp247
g3
F0.00972137705432382
sba(innWeight
NNWeight
p248
(dp249
g3
F0.007750660044355304
sba(innWeight
NNWeight
p250
(dp251
g3
F0.011010861630586113
sba(innWeight
NNWeight
p252
(dp253
g3
F0.002989468896289716
sba(innWeight
NNWeight
p254
(dp255
g3
F0.018285183656169383
sba(innWeight
NNWeight
p256
(dp257
g3
F-0.00784226601004281
sba(innWeight
NNWeight
p258
(dp259
g3
F-0.0041732956858887005
sba(innWeight
NNWeight
p260
(dp261
g3
F0.013224226125441765
sba(innWeight
NNWeight
p262
(dp263
g3
F0.02556789490174432
sba(innWeight
NNWeight
p264
(dp265
g3
F0.002889683501745434
sba(innWeight
NNWeight
p266
(dp267
g3
F-0.02467480826850679
sba(innWeight
NNWeight
p268
(dp269
g3
F-0.017416969090143484
sba(innWeight
NNWeight
p270
(dp271
g3
F-0.01559295085611614
sba(innWeight
NNWeight
p272
(dp273
g3
F-0.07064011638617274
sba(innWeight
NNWeight
p274
(dp275
g3
F0.002824572899318534
sba(innWeight
NNWeight
p276
(dp277
g3
F-0.0022398167857250267
sba(innWeight
NNWeight
p278
(dp279
g3
F0.009047529639063466
sba(innWeight
NNWeight
p280
(dp281
g3
F0.016965480556819845
sba(innWeight
NNWeight
p282
(dp283
g3
F0.027158591678696442
sba(innWeight
NNWeight
p284
(dp285
g3
F-0.05028432942695905
sba(innWeight
NNWeight
p286
(dp287
g3
F-0.00875971947707042
sba(innWeight
NNWeight
p288
(dp289
g3
F0.0005915193641398985
sba(innWeight
NNWeight
p290
(dp291
g3
F-0.00044736887566579293
sba(innWeight
NNWeight
p292
(dp293
g3
F0.031693877031762935
sba(innWeight
NNWeight
p294
(dp295
g3
F-0.004503419711473543
sba(innWeight
NNWeight
p296
(dp297
g3
F-0.004238161939322998
sba(innWeight
NNWeight
p298
(dp299
g3
F0.0034583870892035563
sba(innWeight
NNWeight
p300
(dp301
g3
F-0.004938834894557608
sba(innWeight
NNWeight
p302
(dp303
g3
F0.0057162191980058
sba(innWeight
NNWeight
p304
(dp305
g3
F-0.0018334205977003763
sba(innWeight
NNWeight
p306
(dp307
g3
F-0.010587271182984187
sba(innWeight
NNWeight
p308
(dp309
g3
F-0.05492455189972862
sba(innWeight
NNWeight
p310
(dp311
g3
F-0.011585399030145266
sba(innWeight
NNWeight
p312
(dp313
g3
F-0.033420835346857775
sba(innWeight
NNWeight
p314
(dp315
g3
F0.009143808496271463
sba(innWeight
NNWeight
p316
(dp317
g3
F0.004412280504409913
sba(innWeight
NNWeight
p318
(dp319
g3
F0.0015837491476426205
sba(innWeight
NNWeight
p320
(dp321
g3
F-0.006211725190047398
sba(innWeight
NNWeight
p322
(dp323
g3
F-0.011897092651668719
sba(innWeight
NNWeight
p324
(dp325
g3
F0.011267900843483709
sba(innWeight
NNWeight
p326
(dp327
g3
F0.010653796012755096
sba(innWeight
NNWeight
p328
(dp329
g3
F-0.041068972695036746
sba(innWeight
NNWeight
p330
(dp331
g3
F-0.011340691171535553
sba(innWeight
NNWeight
p332
(dp333
g3
F0.005691096334756634
sba(innWeight
NNWeight
p334
(dp335
g3
F0.01480530436473592
sba(innWeight
NNWeight
p336
(dp337
g3
F-0.02316393111547565
sba(innWeight
NNWeight
p338
(dp339
g3
F0.028609817993907348
sba(innWeight
NNWeight
p340
(dp341
g3
F-0.08527212258585946
sba(innWeight
NNWeight
p342
(dp343
g3
F-0.062278209716395826
sba(innWeight
NNWeight
p344
(dp345
g3
F-0.01941263566833385
sba(innWeight
NNWeight
p346
(dp347
g3
F0.01152578050712471
sba(innWeight
NNWeight
p348
(dp349
g3
F0.03412265686369574
sba(innWeight
NNWeight
p350
(dp351
g3
F0.010610735239398891
sba(innWeight
NNWeight
p352
(dp353
g3
F0.01808681686186438
sba(innWeight
NNWeight
p354
(dp355
g3
F-0.013971171570906969
sba(innWeight
NNWeight
p356
(dp357
g3
F0.007598625764817506
sba(innWeight
NNWeight
p358
(dp359
g3
F0.014190311199117537
sba(innWeight
NNWeight
p360
(dp361
g3
F-0.03550607232923518
sba(innWeight
NNWeight
p362
(dp363
g3
F-0.01625202601147617
sba(innWeight
NNWeight
p364
(dp365
g3
F-0.015743957427556583
sba(innWeight
NNWeight
p366
(dp367
g3
F-0.11646882917926193
sba(innWeight
NNWeight
p368
(dp369
g3
F0.008303982625439105
sba(innWeight
NNWeight
p370
(dp371
g3
F0.013344389315704095
sba(innWeight
NNWeight
p372
(dp373
g3
F-0.029110981871084927
sba(innWeight
NNWeight
p374
(dp375
g3
F0.026720984890951423
sba(innWeight
NNWeight
p376
(dp377
g3
F0.018334305917153026
sba(innWeight
NNWeight
p378
(dp379
g3
F0.009224308358792276
sba(innWeight
NNWeight
p380
(dp381
g3
F-0.022543402021033533
sba(innWeight
NNWeight
p382
(dp383
g3
F-0.009361417157038815
sba(innWeight
NNWeight
p384
(dp385
g3
F0.007578084595417067
sba(innWeight
NNWeight
p386
(dp387
g3
F-0.0014747395174991088
sba(innWeight
NNWeight
p388
(dp389
g3
F0.018168065718786663
sba(innWeight
NNWeight
p390
(dp391
g3
F-0.07169377603361786
sba(innWeight
NNWeight
p392
(dp393
g3
F0.036340900958438276
sba(innWeight
NNWeight
p394
(dp395
g3
F0.016662416046205386
sba(innWeight
NNWeight
p396
(dp397
g3
F0.03792602941234402
sba(innWeight
NNWeight
p398
(dp399
g3
F0.006473679043954858
sba(innWeight
NNWeight
p400
(dp401
g3
F-0.021117289400494323
sba(innWeight
NNWeight
p402
(dp403
g3
F0.008953671622640295
sba(innWeight
NNWeight
p404
(dp405
g3
F0.00034360585362865314
sba(innWeight
NNWeight
p406
(dp407
g3
F-0.007927627247186179
sba(innWeight
NNWeight
p408
(dp409
g3
F-0.02193651175362968
sba(innWeight
NNWeight
p410
(dp411
g3
F0.010274098904041799
sba(innWeight
NNWeight
p412
(dp413
g3
F0.03220253022941916
sba(innWeight
NNWeight
p414
(dp415
g3
F0.001807023876985117
sba(innWeight
NNWeight
p416
(dp417
g3
F-0.021406334934680717
sba(innWeight
NNWeight
p418
(dp419
g3
F0.00588302571454167
sba(innWeight
NNWeight
p420
(dp421
g3
F0.006945827456939803
sba(innWeight
NNWeight
p422
(dp423
g3
F-0.05369811526887356
sba(innWeight
NNWeight
p424
(dp425
g3
F-0.02928487328805232
sba(innWeight
NNWeight
p426
(dp427
g3
F-0.013688298434147903
sba(innWeight
NNWeight
p428
(dp429
g3
F-0.009830525615023115
sba(innWeight
NNWeight
p430
(dp431
g3
F0.009423090542508238
sba(innWeight
NNWeight
p432
(dp433
g3
F-0.018191415696376383
sba(innWeight
NNWeight
p434
(dp435
g3
F-0.0085557411284446
sba(innWeight
NNWeight
p436
(dp437
g3
F-0.009437633445030394
sba(innWeight
NNWeight
p438
(dp439
g3
F-0.017132481063952848
sba(innWeight
NNWeight
p440
(dp441
g3
F0.01030773667922541
sba(innWeight
NNWeight
p442
(dp443
g3
F-0.008820417878377056
sba(innWeight
NNWeight
p444
(dp445
g3
F0.010240653983375333
sba(innWeight
NNWeight
p446
(dp447
g3
F0.0030430242393193257
sba(innWeight
NNWeight
p448
(dp449
g3
F0.009180466098881462
sba(innWeight
NNWeight
p450
(dp451
g3
F-0.0475916578262207
sba(innWeight
NNWeight
p452
(dp453
g3
F-0.022359914108586756
sba(innWeight
NNWeight
p454
(dp455
g3
F0.00646781052333302
sba(innWeight
NNWeight
p456
(dp457
g3
F-0.025132159358027796
sba(innWeight
NNWeight
p458
(dp459
g3
F-0.017558398019427216
sba(innWeight
NNWeight
p460
(dp461
g3
F0.014060602586823994
sba(innWeight
NNWeight
p462
(dp463
g3
F-0.025282968264455214
sba(innWeight
NNWeight
p464
(dp465
g3
F-0.01238682416334628
sba(innWeight
NNWeight
p466
(dp467
g3
F-0.0307043480811971
sba(innWeight
NNWeight
p468
(dp469
g3
F-0.016770439995456788
sba(innWeight
NNWeight
p470
(dp471
g3
F-0.05405784246074459
sba(innWeight
NNWeight
p472
(dp473
g3
F-0.0064443538676157725
sba(innWeight
NNWeight
p474
(dp475
g3
F-0.006530525473694045
sba(innWeight
NNWeight
p476
(dp477
g3
F0.03265598353600327
sba(innWeight
NNWeight
p478
(dp479
g3
F0.04334099206910501
sba(innWeight
NNWeight
p480
(dp481
g3
F-0.0030765379477869907
sba(innWeight
NNWeight
p482
(dp483
g3
F-0.054461515036915736
sba(innWeight
NNWeight
p484
(dp485
g3
F-0.016263096265243217
sba(innWeight
NNWeight
p486
(dp487
g3
F-0.007794295808308172
sba(innWeight
NNWeight
p488
(dp489
g3
F-0.024243610069819743
sba(innWeight
NNWeight
p490
(dp491
g3
F0.022062891054198983
sba(innWeight
NNWeight
p492
(dp493
g3
F-0.02740256566601862
sba(innWeight
NNWeight
p494
(dp495
g3
F0.014992944038636642
sba(innWeight
NNWeight
p496
(dp497
g3
F0.016236362863772856
sba(innWeight
NNWeight
p498
(dp499
g3
F0.00501702343101504
sba(innWeight
NNWeight
p500
(dp501
g3
F-0.005877738399152916
sba(innWeight
NNWeight
p502
(dp503
g3
F0.02687852205141446
sba(innWeight
NNWeight
p504
(dp505
g3
F0.003912502894717632
sba(innWeight
NNWeight
p506
(dp507
g3
F-0.0051463525986299805
sba(innWeight
NNWeight
p508
(dp509
g3
F0.024975817639977166
sba(innWeight
NNWeight
p510
(dp511
g3
F-0.013473360751273334
sba(innWeight
NNWeight
p512
(dp513
g3
F0.012137499052840112
sba(innWeight
NNWeight
p514
(dp515
g3
F-0.04993443356802159
sba(innWeight
NNWeight
p516
(dp517
g3
F0.014070208859612627
sba(innWeight
NNWeight
p518
(dp519
g3
F-0.011761692421229913
sba(innWeight
NNWeight
p520
(dp521
g3
F-0.02028487932898962
sba(innWeight
NNWeight
p522
(dp523
g3
F-0.003024648931873009
sba(innWeight
NNWeight
p524
(dp525
g3
F0.019958400966351188
sba(innWeight
NNWeight
p526
(dp527
g3
F0.01865928364318893
sba(innWeight
NNWeight
p528
(dp529
g3
F0.005985802106111692
sba(innWeight
NNWeight
p530
(dp531
g3
F-0.03486590021218238
sba(innWeight
NNWeight
p532
(dp533
g3
F0.01910585731141391
sba(innWeight
NNWeight
p534
(dp535
g3
F-0.01638553971829829
sba(innWeight
NNWeight
p536
(dp537
g3
F0.016793051875654993
sba(innWeight
NNWeight
p538
(dp539
g3
F0.02017586079226697
sba(innWeight
NNWeight
p540
(dp541
g3
F0.015528692813384362
sba(innWeight
NNWeight
p542
(dp543
g3
F-0.02585922026263489
sba(innWeight
NNWeight
p544
(dp545
g3
F-0.05856313572206729
sba(innWeight
NNWeight
p546
(dp547
g3
F-0.01512682181364174
sba(innWeight
NNWeight
p548
(dp549
g3
F-0.0008489687050769203
sba(innWeight
NNWeight
p550
(dp551
g3
F-0.02010493226090514
sba(innWeight
NNWeight
p552
(dp553
g3
F-0.04291458403503275
sba(innWeight
NNWeight
p554
(dp555
g3
F0.03778010248153791
sba(innWeight
NNWeight
p556
(dp557
g3
F0.018222808129443883
sba(innWeight
NNWeight
p558
(dp559
g3
F-0.006203489842187563
sba(innWeight
NNWeight
p560
(dp561
g3
F-0.010170300414772505
sba(innWeight
NNWeight
p562
(dp563
g3
F-0.0005682826318192963
sba(innWeight
NNWeight
p564
(dp565
g3
F-0.01485096607332885
sba(innWeight
NNWeight
p566
(dp567
g3
F-0.027559179288610843
sba(innWeight
NNWeight
p568
(dp569
g3
F-0.08838005618969477
sba(innWeight
NNWeight
p570
(dp571
g3
F-0.022336083213379588
sba(innWeight
NNWeight
p572
(dp573
g3
F0.024375289057637993
sba(innWeight
NNWeight
p574
(dp575
g3
F-0.02231442447240668
sba(innWeight
NNWeight
p576
(dp577
g3
F-0.03739582325117655
sba(innWeight
NNWeight
p578
(dp579
g3
F-0.026571824355406008
sba(innWeight
NNWeight
p580
(dp581
g3
F0.011456646853726514
sba(innWeight
NNWeight
p582
(dp583
g3
F0.02010555573515267
sba(innWeight
NNWeight
p584
(dp585
g3
F-0.01878340292118162
sba(innWeight
NNWeight
p586
(dp587
g3
F0.00011963013214658055
sba(innWeight
NNWeight
p588
(dp589
g3
F0.017425414043374735
sba(innWeight
NNWeight
p590
(dp591
g3
F0.005534962087703479
sba(innWeight
NNWeight
p592
(dp593
g3
F-0.06475666624357292
sba(innWeight
NNWeight
p594
(dp595
g3
F0.007730068466880692
sba(innWeight
NNWeight
p596
(dp597
g3
F-0.000881990418881038
sba(innWeight
NNWeight
p598
(dp599
g3
F-0.01806277315986915
sba(innWeight
NNWeight
p600
(dp601
g3
F0.014297671593061334
sba(innWeight
NNWeight
p602
(dp603
g3
F-0.05480866941726799
sba(innWeight
NNWeight
p604
(dp605
g3
F-0.030119157985654735
sba(innWeight
NNWeight
p606
(dp607
g3
F0.05166198452420867
sba(innWeight
NNWeight
p608
(dp609
g3
F-0.0561611351852745
sba(innWeight
NNWeight
p610
(dp611
g3
F0.008126079189364687
sba(innWeight
NNWeight
p612
(dp613
g3
F-0.0024610311800351424
sba(innWeight
NNWeight
p614
(dp615
g3
F-0.00775389098402324
sba(innWeight
NNWeight
p616
(dp617
g3
F0.009372072204637535
sba(innWeight
NNWeight
p618
(dp619
g3
F0.002462607197695082
sba(innWeight
NNWeight
p620
(dp621
g3
F-0.003206068444675707
sba(innWeight
NNWeight
p622
(dp623
g3
F-0.029499023680854913
sba(innWeight
NNWeight
p624
(dp625
g3
F0.010313509624283356
sba(innWeight
NNWeight
p626
(dp627
g3
F0.022852094678778176
sba(innWeight
NNWeight
p628
(dp629
g3
F0.007147457943025798
sba(innWeight
NNWeight
p630
(dp631
g3
F0.015479983520500323
sba(innWeight
NNWeight
p632
(dp633
g3
F0.006099287440530666
sba(innWeight
NNWeight
p634
(dp635
g3
F-0.044429379526019705
sba(innWeight
NNWeight
p636
(dp637
g3
F0.027508295068817263
sba(innWeight
NNWeight
p638
(dp639
g3
F0.02416623504463106
sba(innWeight
NNWeight
p640
(dp641
g3
F-0.02183301959710221
sba(innWeight
NNWeight
p642
(dp643
g3
F0.01399387257282842
sba(innWeight
NNWeight
p644
(dp645
g3
F-0.015722673025322056
sba(innWeight
NNWeight
p646
(dp647
g3
F-0.054632710781108755
sba(innWeight
NNWeight
p648
(dp649
g3
F0.029811561880232477
sba(innWeight
NNWeight
p650
(dp651
g3
F-0.010418028488181907
sba(innWeight
NNWeight
p652
(dp653
g3
F0.003048082168294583
sba(innWeight
NNWeight
p654
(dp655
g3
F0.000124608011253081
sba(innWeight
NNWeight
p656
(dp657
g3
F-0.014365424521712324
sba(innWeight
NNWeight
p658
(dp659
g3
F-0.01846456556564541
sba(innWeight
NNWeight
p660
(dp661
g3
F0.0066716585510299235
sba(innWeight
NNWeight
p662
(dp663
g3
F-0.006774096457899706
sba(innWeight
NNWeight
p664
(dp665
g3
F-0.03750120178087557
sba(innWeight
NNWeight
p666
(dp667
g3
F0.0075639423772800715
sba(innWeight
NNWeight
p668
(dp669
g3
F-0.0010653654420957484
sba(innWeight
NNWeight
p670
(dp671
g3
F-0.0011314370893225623
sba(innWeight
NNWeight
p672
(dp673
g3
F0.0437199002733643
sba(innWeight
NNWeight
p674
(dp675
g3
F0.03018649031195245
sba(innWeight
NNWeight
p676
(dp677
g3
F0.0055557405791274266
sba(innWeight
NNWeight
p678
(dp679
g3
F-0.03235376847572012
sba(innWeight
NNWeight
p680
(dp681
g3
F-0.0067730908364237695
sba(innWeight
NNWeight
p682
(dp683
g3
F0.0013494420970841165
sba(innWeight
NNWeight
p684
(dp685
g3
F0.027077993920799258
sba(innWeight
NNWeight
p686
(dp687
g3
F0.021246516127584103
sba(innWeight
NNWeight
p688
(dp689
g3
F-0.05540569110540133
sba(innWeight
NNWeight
p690
(dp691
g3
F-0.0038337556391149813
sba(innWeight
NNWeight
p692
(dp693
g3
F-0.02628403094674385
sba(innWeight
NNWeight
p694
(dp695
g3
F0.0171931506343982
sba(innWeight
NNWeight
p696
(dp697
g3
F-0.0016705068608067549
sba(innWeight
NNWeight
p698
(dp699
g3
F0.0006997774511078033
sba(innWeight
NNWeight
p700
(dp701
g3
F-0.02051361951556955
sba(innWeight
NNWeight
p702
(dp703
g3
F0.002344874406557591
sba(innWeight
NNWeight
p704
(dp705
g3
F0.020519735885136423
sba(innWeight
NNWeight
p706
(dp707
g3
F-0.004691576896364411
sba(innWeight
NNWeight
p708
(dp709
g3
F0.004836670199200873
sba(innWeight
NNWeight
p710
(dp711
g3
F-0.004681568679005958
sba(innWeight
NNWeight
p712
(dp713
g3
F-0.022058880913245253
sba(innWeight
NNWeight
p714
(dp715
g3
F-0.0025971361680291304
sba(innWeight
NNWeight
p716
(dp717
g3
F0.013432641041906083
sba(innWeight
NNWeight
p718
(dp719
g3
F-0.015110455468175618
sba(innWeight
NNWeight
p720
(dp721
g3
F0.02513425906988167
sba(innWeight
NNWeight
p722
(dp723
g3
F-0.03017143755867283
sba(innWeight
NNWeight
p724
(dp725
g3
F-0.007181835021247367
sba(innWeight
NNWeight
p726
(dp727
g3
F-0.0012339225086954713
sba(innWeight
NNWeight
p728
(dp729
g3
F0.019445683902593696
sba(innWeight
NNWeight
p730
(dp731
g3
F-0.03747797624022463
sba(innWeight
NNWeight
p732
(dp733
g3
F0.008121945992547662
sba(innWeight
NNWeight
p734
(dp735
g3
F-0.012900527971993104
sba(innWeight
NNWeight
p736
(dp737
g3
F0.0026872990152655074
sba(innWeight
NNWeight
p738
(dp739
g3
F-0.014273367248317837
sba(innWeight
NNWeight
p740
(dp741
g3
F0.012231635075452166
sba(innWeight
NNWeight
p742
(dp743
g3
F0.004349150462425431
sba(innWeight
NNWeight
p744
(dp745
g3
F0.049748733818284915
sba(innWeight
NNWeight
p746
(dp747
g3
F-0.05383934374154886
sba(innWeight
NNWeight
p748
(dp749
g3
F-0.0500833493008866
sba(innWeight
NNWeight
p750
(dp751
g3
F-0.02314059720681392
sba(innWeight
NNWeight
p752
(dp753
g3
F-0.02698868569431325
sba(innWeight
NNWeight
p754
(dp755
g3
F0.044175444549052104
sba(innWeight
NNWeight
p756
(dp757
g3
F-0.008661207946827074
sba(innWeight
NNWeight
p758
(dp759
g3
F-0.010171771832406896
sba(innWeight
NNWeight
p760
(dp761
g3
F0.025187875702042603
sba(innWeight
NNWeight
p762
(dp763
g3
F-0.01795785483139888
sba(innWeight
NNWeight
p764
(dp765
g3
F0.0020361323316702936
sba(innWeight
NNWeight
p766
(dp767
g3
F0.0022967422147962243
sba(innWeight
NNWeight
p768
(dp769
g3
F0.03004050192905391
sba(innWeight
NNWeight
p770
(dp771
g3
F-0.123225855154326
sba(innWeight
NNWeight
p772
(dp773
g3
F0.00038345945332840856
sba(innWeight
NNWeight
p774
(dp775
g3
F0.017996756576863088
sba(innWeight
NNWeight
p776
(dp777
g3
F-0.008935941158777853
sba(innWeight
NNWeight
p778
(dp779
g3
F-0.01408451731483005
sba(innWeight
NNWeight
p780
(dp781
g3
F0.02920007930898575
sba(innWeight
NNWeight
p782
(dp783
g3
F0.011464897152501255
sba(innWeight
NNWeight
p784
(dp785
g3
F0.01657884090603872
sba(innWeight
NNWeight
p786
(dp787
g3
F0.007212554670625782
sba(innWeight
NNWeight
p788
(dp789
g3
F0.011228740323196386
sba(innWeight
NNWeight
p790
(dp791
g3
F-0.06255034233404337
sba(innWeight
NNWeight
p792
(dp793
g3
F-0.04371960488772553
sba(innWeight
NNWeight
p794
(dp795
g3
F-0.10851547589530998
sba(innWeight
NNWeight
p796
(dp797
g3
F-0.0057994903414029944
sba(innWeight
NNWeight
p798
(dp799
g3
F-0.005112696032262694
sba(innWeight
NNWeight
p800
(dp801
g3
F-0.034904122689106025
sba(innWeight
NNWeight
p802
(dp803
g3
F0.003008870925043288
sba(innWeight
NNWeight
p804
(dp805
g3
F-0.0006451956049689915
sba(innWeight
NNWeight
p806
(dp807
g3
F-0.004850709676739897
sba(innWeight
NNWeight
p808
(dp809
g3
F-0.05427785059446184
sba(innWeight
NNWeight
p810
(dp811
g3
F-0.0973833070281747
sba(innWeight
NNWeight
p812
(dp813
g3
F-0.00699189865199035
sba(innWeight
NNWeight
p814
(dp815
g3
F0.03951882143432255
sba(innWeight
NNWeight
p816
(dp817
g3
F0.013385935751140518
sba(innWeight
NNWeight
p818
(dp819
g3
F0.03687357652604441
sba(innWeight
NNWeight
p820
(dp821
g3
F0.007724593088637624
sba(innWeight
NNWeight
p822
(dp823
g3
F0.016007665061181498
sba(innWeight
NNWeight
p824
(dp825
g3
F-0.001121853629554703
sba(innWeight
NNWeight
p826
(dp827
g3
F-0.006302116968061682
sba(innWeight
NNWeight
p828
(dp829
g3
F-0.0023861363131767997
sba(innWeight
NNWeight
p830
(dp831
g3
F-0.022174566195428635
sba(innWeight
NNWeight
p832
(dp833
g3
F0.0002560463975102025
sba(innWeight
NNWeight
p834
(dp835
g3
F-0.00983181935827261
sba(innWeight
NNWeight
p836
(dp837
g3
F-0.013025667161841722
sba(innWeight
NNWeight
p838
(dp839
g3
F-0.03584995919831101
sba(innWeight
NNWeight
p840
(dp841
g3
F-0.02482898612332387
sba(innWeight
NNWeight
p842
(dp843
g3
F-0.02476459541498536
sba(innWeight
NNWeight
p844
(dp845
g3
F-0.005388669280358349
sba(innWeight
NNWeight
p846
(dp847
g3
F0.027132183540746823
sba(innWeight
NNWeight
p848
(dp849
g3
F-0.009295330314525237
sba(innWeight
NNWeight
p850
(dp851
g3
F0.0029979196042496754
sba(innWeight
NNWeight
p852
(dp853
g3
F-0.008945407953551358
sba(innWeight
NNWeight
p854
(dp855
g3
F0.0008314826139859929
sba(innWeight
NNWeight
p856
(dp857
g3
F0.004405803447230363
sba(innWeight
NNWeight
p858
(dp859
g3
F0.028432813952228058
sba(innWeight
NNWeight
p860
(dp861
g3
F-0.0015196285400815984
sba(innWeight
NNWeight
p862
(dp863
g3
F0.0037060330502407314
sba(innWeight
NNWeight
p864
(dp865
g3
F0.0033733913150440875
sba(innWeight
NNWeight
p866
(dp867
g3
F-0.008481822592313563
sba(innWeight
NNWeight
p868
(dp869
g3
F0.033877746658673755
sba(innWeight
NNWeight
p870
(dp871
g3
F0.010205265557147599
sba(innWeight
NNWeight
p872
(dp873
g3
F-0.02055912132371299
sba(innWeight
NNWeight
p874
(dp875
g3
F-0.009326528294656375
sba(innWeight
NNWeight
p876
(dp877
g3
F-0.004633043443515477
sba(innWeight
NNWeight
p878
(dp879
g3
F-0.016976622961595647
sba(innWeight
NNWeight
p880
(dp881
g3
F-0.0021829207210032116
sba(innWeight
NNWeight
p882
(dp883
g3
F0.010639519751043705
sba(innWeight
NNWeight
p884
(dp885
g3
F-0.002372932259399592
sba(innWeight
NNWeight
p886
(dp887
g3
F-0.005279388608916224
sba(innWeight
NNWeight
p888
(dp889
g3
F-0.0038682203246322017
sba(innWeight
NNWeight
p890
(dp891
g3
F-0.06163560954653049
sba(innWeight
NNWeight
p892
(dp893
g3
F-0.05432605236287112
sba(innWeight
NNWeight
p894
(dp895
g3
F0.01729433366414765
sba(innWeight
NNWeight
p896
(dp897
g3
F0.009399020104171029
sba(innWeight
NNWeight
p898
(dp899
g3
F-0.0058281621123665375
sba(innWeight
NNWeight
p900
(dp901
g3
F-0.009088964444351996
sba(innWeight
NNWeight
p902
(dp903
g3
F0.03646079046227569
sba(innWeight
NNWeight
p904
(dp905
g3
F-0.01995250753255174
sba(innWeight
NNWeight
p906
(dp907
g3
F0.01686083660709535
sba(innWeight
NNWeight
p908
(dp909
g3
F-0.018855467248385393
sba(innWeight
NNWeight
p910
(dp911
g3
F0.01776260166680522
sba(innWeight
NNWeight
p912
(dp913
g3
F-0.0062178468607333595
sba(innWeight
NNWeight
p914
(dp915
g3
F0.022627650957664613
sba(innWeight
NNWeight
p916
(dp917
g3
F-0.03628680414121285
sba(innWeight
NNWeight
p918
(dp919
g3
F0.029179647259664043
sba(innWeight
NNWeight
p920
(dp921
g3
F0.01663932093165917
sba(innWeight
NNWeight
p922
(dp923
g3
F-0.0631493094971114
sba(innWeight
NNWeight
p924
(dp925
g3
F-0.0055240769833714565
sba(innWeight
NNWeight
p926
(dp927
g3
F-0.021230421774679268
sba(innWeight
NNWeight
p928
(dp929
g3
F-0.004186319672527865
sba(innWeight
NNWeight
p930
(dp931
g3
F0.012583357341212534
sba(innWeight
NNWeight
p932
(dp933
g3
F0.013813472384543122
sba(innWeight
NNWeight
p934
(dp935
g3
F-0.03677309827660098
sba(innWeight
NNWeight
p936
(dp937
g3
F-0.04514333529489381
sba(innWeight
NNWeight
p938
(dp939
g3
F0.0015377349417264633
sba(innWeight
NNWeight
p940
(dp941
g3
F-0.02685031019723863
sba(innWeight
NNWeight
p942
(dp943
g3
F0.013275011975006476
sba(innWeight
NNWeight
p944
(dp945
g3
F-0.03244453047978763
sba(innWeight
NNWeight
p946
(dp947
g3
F-0.01322422905479323
sba(innWeight
NNWeight
p948
(dp949
g3
F-0.06640761496913448
sba(innWeight
NNWeight
p950
(dp951
g3
F0.0032368809140771344
sba(innWeight
NNWeight
p952
(dp953
g3
F-0.013743505373652203
sba(innWeight
NNWeight
p954
(dp955
g3
F0.0024686342681368217
sba(innWeight
NNWeight
p956
(dp957
g3
F0.020359835594606187
sba(innWeight
NNWeight
p958
(dp959
g3
F-0.002042191054740997
sba(innWeight
NNWeight
p960
(dp961
g3
F0.02747226631520793
sba(innWeight
NNWeight
p962
(dp963
g3
F-0.030671445236369808
sba(innWeight
NNWeight
p964
(dp965
g3
F-0.037301245381914094
sba(innWeight
NNWeight
p966
(dp967
g3
F-0.0025741529767136324
sba(innWeight
NNWeight
p968
(dp969
g3
F-0.013546541391453344
sba(innWeight
NNWeight
p970
(dp971
g3
F0.003882028984696921
sba(innWeight
NNWeight
p972
(dp973
g3
F-0.0956867556438319
sba(innWeight
NNWeight
p974
(dp975
g3
F0.016562032197848856
sba(innWeight
NNWeight
p976
(dp977
g3
F0.012843856174993496
sba(innWeight
NNWeight
p978
(dp979
g3
F0.002306674380815333
sba(innWeight
NNWeight
p980
(dp981
g3
F-0.0033349173051242338
sba(innWeight
NNWeight
p982
(dp983
g3
F-0.002697910796297258
sba(innWeight
NNWeight
p984
(dp985
g3
F-0.00592098999137493
sba(innWeight
NNWeight
p986
(dp987
g3
F-0.003314942674894262
sba(innWeight
NNWeight
p988
(dp989
g3
F-0.006732787366441281
sba(innWeight
NNWeight
p990
(dp991
g3
F0.014350849398457466
sba(innWeight
NNWeight
p992
(dp993
g3
F0.02365458295410437
sba(innWeight
NNWeight
p994
(dp995
g3
F-0.011248681205877147
sba(innWeight
NNWeight
p996
(dp997
g3
F-0.08302492981215656
sba(innWeight
NNWeight
p998
(dp999
g3
F0.01171649583116965
sba(innWeight
NNWeight
p1000
(dp1001
g3
F-0.008823134284299924
sba(innWeight
NNWeight
p1002
(dp1003
g3
F-0.008981563597309072
sba(innWeight
NNWeight
p1004
(dp1005
g3
F-0.009867673042489028
sba(innWeight
NNWeight
p1006
(dp1007
g3
F0.018761357822943043
sba(innWeight
NNWeight
p1008
(dp1009
g3
F-0.018111412678073438
sba(innWeight
NNWeight
p1010
(dp1011
g3
F0.0024482764520374943
sba(innWeight
NNWeight
p1012
(dp1013
g3
F-0.018082624447765584
sba(innWeight
NNWeight
p1014
(dp1015
g3
F0.00970491831128983
sba(innWeight
NNWeight
p1016
(dp1017
g3
F0.009262151628296253
sba(innWeight
NNWeight
p1018
(dp1019
g3
F0.03444379834296962
sba(innWeight
NNWeight
p1020
(dp1021
g3
F0.015418576864937432
sba(innWeight
NNWeight
p1022
(dp1023
g3
F0.005326309189324853
sba(innWeight
NNWeight
p1024
(dp1025
g3
F-0.004689378858494394
sba(innWeight
NNWeight
p1026
(dp1027
g3
F0.02110591340870726
sba(innWeight
NNWeight
p1028
(dp1029
g3
F-0.028163458203125866
sba(innWeight
NNWeight
p1030
(dp1031
g3
F-0.03507461587362633
sba(innWeight
NNWeight
p1032
(dp1033
g3
F0.005001103439850724
sba(innWeight
NNWeight
p1034
(dp1035
g3
F-0.05361116323990752
sba(innWeight
NNWeight
p1036
(dp1037
g3
F0.04592888296079285
sba(innWeight
NNWeight
p1038
(dp1039
g3
F0.012132711885006218
sba(innWeight
NNWeight
p1040
(dp1041
g3
F-0.02172870184340836
sba(innWeight
NNWeight
p1042
(dp1043
g3
F-0.03409002571731754
sba(innWeight
NNWeight
p1044
(dp1045
g3
F0.026769594515985946
sba(innWeight
NNWeight
p1046
(dp1047
g3
F-0.013453377437582344
sba(innWeight
NNWeight
p1048
(dp1049
g3
F-0.03958422897855699
sba(innWeight
NNWeight
p1050
(dp1051
g3
F0.003101009582843108
sba(innWeight
NNWeight
p1052
(dp1053
g3
F-0.0480573241563965
sba(innWeight
NNWeight
p1054
(dp1055
g3
F-0.017423845272734634
sba(innWeight
NNWeight
p1056
(dp1057
g3
F0.010363303985107514
sba(innWeight
NNWeight
p1058
(dp1059
g3
F-0.0074458392941212466
sba(innWeight
NNWeight
p1060
(dp1061
g3
F-0.024083347749513286
sba(innWeight
NNWeight
p1062
(dp1063
g3
F-0.028023939551511865
sba(innWeight
NNWeight
p1064
(dp1065
g3
F0.003746060348721447
sba(innWeight
NNWeight
p1066
(dp1067
g3
F0.01288555057363485
sba(innWeight
NNWeight
p1068
(dp1069
g3
F0.002017778879630918
sba(innWeight
NNWeight
p1070
(dp1071
g3
F0.0083709611870207
sba(innWeight
NNWeight
p1072
(dp1073
g3
F0.017900146221996115
sba(innWeight
NNWeight
p1074
(dp1075
g3
F-0.01635003043731588
sba(innWeight
NNWeight
p1076
(dp1077
g3
F-0.012536918008435606
sba(innWeight
NNWeight
p1078
(dp1079
g3
F-0.03942329333282329
sba(innWeight
NNWeight
p1080
(dp1081
g3
F-0.014571292264640602
sba(innWeight
NNWeight
p1082
(dp1083
g3
F0.022332503395055308
sba(innWeight
NNWeight
p1084
(dp1085
g3
F-0.014337094281229468
sba(innWeight
NNWeight
p1086
(dp1087
g3
F0.0014011108385443192
sba(innWeight
NNWeight
p1088
(dp1089
g3
F0.009904466906742562
sba(innWeight
NNWeight
p1090
(dp1091
g3
F0.023924994226285697
sba(innWeight
NNWeight
p1092
(dp1093
g3
F-0.09706349255076215
sba(innWeight
NNWeight
p1094
(dp1095
g3
F0.004365149965795718
sba(innWeight
NNWeight
p1096
(dp1097
g3
F0.01852268120298084
sba(innWeight
NNWeight
p1098
(dp1099
g3
F-0.019668367941145508
sba(innWeight
NNWeight
p1100
(dp1101
g3
F-0.04913310819426374
sba(innWeight
NNWeight
p1102
(dp1103
g3
F-0.004883019274535155
sba(innWeight
NNWeight
p1104
(dp1105
g3
F0.016905841702813198
sba(innWeight
NNWeight
p1106
(dp1107
g3
F0.0009733245446947841
sba(innWeight
NNWeight
p1108
(dp1109
g3
F0.008485671906857546
sba(innWeight
NNWeight
p1110
(dp1111
g3
F0.0046513751562682676
sba(innWeight
NNWeight
p1112
(dp1113
g3
F0.0037638182793772817
sba(innWeight
NNWeight
p1114
(dp1115
g3
F0.010362130250091089
sba(innWeight
NNWeight
p1116
(dp1117
g3
F-0.041854973211143884
sba(innWeight
NNWeight
p1118
(dp1119
g3
F0.010140560238999416
sba(innWeight
NNWeight
p1120
(dp1121
g3
F0.0007443719143030539
sba(innWeight
NNWeight
p1122
(dp1123
g3
F-0.008588624014784175
sba(innWeight
NNWeight
p1124
(dp1125
g3
F-0.021628274208001032
sba(innWeight
NNWeight
p1126
(dp1127
g3
F-0.01867313548466038
sba(innWeight
NNWeight
p1128
(dp1129
g3
F-0.003397374667490917
sba(innWeight
NNWeight
p1130
(dp1131
g3
F-0.003579451270273675
sba(innWeight
NNWeight
p1132
(dp1133
g3
F0.0035132134602519037
sba(innWeight
NNWeight
p1134
(dp1135
g3
F-0.03059682373700491
sba(innWeight
NNWeight
p1136
(dp1137
g3
F0.02019239526499414
sba(innWeight
NNWeight
p1138
(dp1139
g3
F-0.006909046134757383
sba(innWeight
NNWeight
p1140
(dp1141
g3
F-0.03979855935680942
sba(innWeight
NNWeight
p1142
(dp1143
g3
F-0.0029619919405481686
sba(innWeight
NNWeight
p1144
(dp1145
g3
F0.022922923397531592
sba(innWeight
NNWeight
p1146
(dp1147
g3
F0.0028002047855512956
sba(innWeight
NNWeight
p1148
(dp1149
g3
F-0.04106670443805692
sba(innWeight
NNWeight
p1150
(dp1151
g3
F-0.055517233158195206
sba(innWeight
NNWeight
p1152
(dp1153
g3
F0.02916861310102203
sba(innWeight
NNWeight
p1154
(dp1155
g3
F0.006970583355173483
sba(innWeight
NNWeight
p1156
(dp1157
g3
F0.03389823001998317
sba(innWeight
NNWeight
p1158
(dp1159
g3
F-0.029038136853867552
sba(innWeight
NNWeight
p1160
(dp1161
g3
F-0.00030375094331046304
sba(innWeight
NNWeight
p1162
(dp1163
g3
F0.027235696987105266
sba(innWeight
NNWeight
p1164
(dp1165
g3
F-0.0030196193497486895
sba(innWeight
NNWeight
p1166
(dp1167
g3
F0.015924764586437174
sba(innWeight
NNWeight
p1168
(dp1169
g3
F0.005016812704937736
sba(innWeight
NNWeight
p1170
(dp1171
g3
F-0.005844906745707871
sba(innWeight
NNWeight
p1172
(dp1173
g3
F0.007149816141009769
sba(innWeight
NNWeight
p1174
(dp1175
g3
F-0.06244212175232203
sba(innWeight
NNWeight
p1176
(dp1177
g3
F-0.030109513798861343
sba(innWeight
NNWeight
p1178
(dp1179
g3
F-0.04235216776575285
sba(innWeight
NNWeight
p1180
(dp1181
g3
F0.018909127518796358
sba(innWeight
NNWeight
p1182
(dp1183
g3
F-0.030793373928151995
sba(innWeight
NNWeight
p1184
(dp1185
g3
F-0.010625956994495738
sba(innWeight
NNWeight
p1186
(dp1187
g3
F-0.008035166277424607
sba(innWeight
NNWeight
p1188
(dp1189
g3
F-0.031184881948040883
sba(innWeight
NNWeight
p1190
(dp1191
g3
F0.015826411003967217
sba(innWeight
NNWeight
p1192
(dp1193
g3
F-0.044124583965928665
sba(innWeight
NNWeight
p1194
(dp1195
g3
F-0.04334152416279658
sba(innWeight
NNWeight
p1196
(dp1197
g3
F0.02911337995655819
sba(innWeight
NNWeight
p1198
(dp1199
g3
F-0.01129716108362523
sba(innWeight
NNWeight
p1200
(dp1201
g3
F-0.020799624034994687
sba(innWeight
NNWeight
p1202
(dp1203
g3
F-0.017543421324937865
sba(innWeight
NNWeight
p1204
(dp1205
g3
F-0.03140587675722364
sba(innWeight
NNWeight
p1206
(dp1207
g3
F0.015578072962174096
sba(innWeight
NNWeight
p1208
(dp1209
g3
F0.01916246501614739
sba(innWeight
NNWeight
p1210
(dp1211
g3
F0.013633676209575247
sba(innWeight
NNWeight
p1212
(dp1213
g3
F-0.006164905928406638
sba(innWeight
NNWeight
p1214
(dp1215
g3
F-0.07572053487490837
sba(innWeight
NNWeight
p1216
(dp1217
g3
F-0.003358697416941129
sba(innWeight
NNWeight
p1218
(dp1219
g3
F-0.03972737713149865
sba(innWeight
NNWeight
p1220
(dp1221
g3
F-0.010022138240344905
sba(innWeight
NNWeight
p1222
(dp1223
g3
F-0.013121076106605355
sba(innWeight
NNWeight
p1224
(dp1225
g3
F-0.01465624940231626
sba(innWeight
NNWeight
p1226
(dp1227
g3
F-0.014909439553313752
sba(innWeight
NNWeight
p1228
(dp1229
g3
F-0.00570902085214591
sba(innWeight
NNWeight
p1230
(dp1231
g3
F0.026257035928642626
sba(innWeight
NNWeight
p1232
(dp1233
g3
F0.015426282862523889
sba(innWeight
NNWeight
p1234
(dp1235
g3
F0.01826252499697754
sba(innWeight
NNWeight
p1236
(dp1237
g3
F-0.02943775357196814
sba(innWeight
NNWeight
p1238
(dp1239
g3
F-0.014764306080539413
sba(innWeight
NNWeight
p1240
(dp1241
g3
F-0.012718671495755543
sba(innWeight
NNWeight
p1242
(dp1243
g3
F0.025012899711878953
sba(innWeight
NNWeight
p1244
(dp1245
g3
F0.002504588696065367
sba(innWeight
NNWeight
p1246
(dp1247
g3
F0.006087908039562986
sba(innWeight
NNWeight
p1248
(dp1249
g3
F0.018218325057087616
sba(innWeight
NNWeight
p1250
(dp1251
g3
F0.012630667473096779
sba(innWeight
NNWeight
p1252
(dp1253
g3
F-0.00803883392915127
sba(innWeight
NNWeight
p1254
(dp1255
g3
F-0.013500743967751451
sba(innWeight
NNWeight
p1256
(dp1257
g3
F-0.01625291494695875
sba(innWeight
NNWeight
p1258
(dp1259
g3
F0.014127352001526372
sba(innWeight
NNWeight
p1260
(dp1261
g3
F0.028395493601813745
sba(innWeight
NNWeight
p1262
(dp1263
g3
F0.006021804661241972
sba(innWeight
NNWeight
p1264
(dp1265
g3
F0.016412050757861646
sba(innWeight
NNWeight
p1266
(dp1267
g3
F0.025078517118896346
sba(innWeight
NNWeight
p1268
(dp1269
g3
F0.016229979362522188
sba(innWeight
NNWeight
p1270
(dp1271
g3
F0.007451420218260716
sba(innWeight
NNWeight
p1272
(dp1273
g3
F0.002847309446162391
sba(innWeight
NNWeight
p1274
(dp1275
g3
F-0.014243114628308767
sba(innWeight
NNWeight
p1276
(dp1277
g3
F0.006585848897150791
sba(innWeight
NNWeight
p1278
(dp1279
g3
F0.01505161580294473
sba(innWeight
NNWeight
p1280
(dp1281
g3
F0.04588526227399222
sba(innWeight
NNWeight
p1282
(dp1283
g3
F0.01711244037396824
sba(innWeight
NNWeight
p1284
(dp1285
g3
F-0.0021306660929212625
sba(innWeight
NNWeight
p1286
(dp1287
g3
F-0.03241142281147072
sba(innWeight
NNWeight
p1288
(dp1289
g3
F0.015424438650393483
sba(innWeight
NNWeight
p1290
(dp1291
g3
F0.01348327954209243
sba(innWeight
NNWeight
p1292
(dp1293
g3
F0.007187335270920502
sba(innWeight
NNWeight
p1294
(dp1295
g3
F-0.02725454093655809
sba(innWeight
NNWeight
p1296
(dp1297
g3
F0.007648985615458738
sba(innWeight
NNWeight
p1298
(dp1299
g3
F-0.01609674941053156
sba(innWeight
NNWeight
p1300
(dp1301
g3
F0.014399616262298319
sba(innWeight
NNWeight
p1302
(dp1303
g3
F-0.002863104803245864
sba(innWeight
NNWeight
p1304
(dp1305
g3
F-0.020115763560838454
sba(innWeight
NNWeight
p1306
(dp1307
g3
F0.014979082816080862
sba(innWeight
NNWeight
p1308
(dp1309
g3
F-0.019264952575116276
sba(innWeight
NNWeight
p1310
(dp1311
g3
F-0.026560065138409805
sba(innWeight
NNWeight
p1312
(dp1313
g3
F0.008726116684400957
sba(innWeight
NNWeight
p1314
(dp1315
g3
F-0.003388662780176758
sba(innWeight
NNWeight
p1316
(dp1317
g3
F-0.03812074874169232
sba(innWeight
NNWeight
p1318
(dp1319
g3
F0.035359701536722764
sba(innWeight
NNWeight
p1320
(dp1321
g3
F0.0046880470304083745
sba(innWeight
NNWeight
p1322
(dp1323
g3
F-0.015971086778949397
sba(innWeight
NNWeight
p1324
(dp1325
g3
F-0.009540652886338558
sba(innWeight
NNWeight
p1326
(dp1327
g3
F0.006936652409830698
sba(innWeight
NNWeight
p1328
(dp1329
g3
F0.008708364232484726
sba(innWeight
NNWeight
p1330
(dp1331
g3
F0.004238252577286428
sba(innWeight
NNWeight
p1332
(dp1333
g3
F0.008014107646067461
sba(innWeight
NNWeight
p1334
(dp1335
g3
F-0.011206357150754083
sba(innWeight
NNWeight
p1336
(dp1337
g3
F0.008225163991609068
sba(innWeight
NNWeight
p1338
(dp1339
g3
F-0.16205505615131244
sba(innWeight
NNWeight
p1340
(dp1341
g3
F0.039669492231103186
sba(innWeight
NNWeight
p1342
(dp1343
g3
F0.021387580658564248
sba(innWeight
NNWeight
p1344
(dp1345
g3
F-0.03716978577427175
sba(innWeight
NNWeight
p1346
(dp1347
g3
F-0.035590795160847254
sba(innWeight
NNWeight
p1348
(dp1349
g3
F-0.010305836099308371
sba(innWeight
NNWeight
p1350
(dp1351
g3
F0.023553192496674667
sba(innWeight
NNWeight
p1352
(dp1353
g3
F-0.09255166858059553
sba(innWeight
NNWeight
p1354
(dp1355
g3
F0.018171620802595944
sba(innWeight
NNWeight
p1356
(dp1357
g3
F-0.01604065936571481
sba(innWeight
NNWeight
p1358
(dp1359
g3
F0.008100336868761411
sba(innWeight
NNWeight
p1360
(dp1361
g3
F-0.005971649256001618
sba(innWeight
NNWeight
p1362
(dp1363
g3
F-0.023350324430590815
sba(innWeight
NNWeight
p1364
(dp1365
g3
F-0.039728218288283
sba(innWeight
NNWeight
p1366
(dp1367
g3
F-0.03657996766194405
sba(innWeight
NNWeight
p1368
(dp1369
g3
F0.0049078065911454674
sba(innWeight
NNWeight
p1370
(dp1371
g3
F0.02365736897825574
sba(innWeight
NNWeight
p1372
(dp1373
g3
F0.0008570926690826825
sba(innWeight
NNWeight
p1374
(dp1375
g3
F0.02172855075362115
sba(innWeight
NNWeight
p1376
(dp1377
g3
F-0.07101703654520909
sba(innWeight
NNWeight
p1378
(dp1379
g3
F0.004429748230273041
sba(innWeight
NNWeight
p1380
(dp1381
g3
F-0.007577601992721926
sba(innWeight
NNWeight
p1382
(dp1383
g3
F0.014198386478459099
sba(innWeight
NNWeight
p1384
(dp1385
g3
F0.03852769292150281
sba(innWeight
NNWeight
p1386
(dp1387
g3
F-0.03207332279840599
sba(innWeight
NNWeight
p1388
(dp1389
g3
F0.009056855134863335
sba(innWeight
NNWeight
p1390
(dp1391
g3
F-0.001572667966625823
sba(innWeight
NNWeight
p1392
(dp1393
g3
F0.013805476552025159
sba(innWeight
NNWeight
p1394
(dp1395
g3
F0.005742114956590524
sba(innWeight
NNWeight
p1396
(dp1397
g3
F-0.004026082552501809
sba(innWeight
NNWeight
p1398
(dp1399
g3
F-0.021505376448733307
sba(innWeight
NNWeight
p1400
(dp1401
g3
F-0.10171934410960633
sba(innWeight
NNWeight
p1402
(dp1403
g3
F-0.0322454628027643
sba(innWeight
NNWeight
p1404
(dp1405
g3
F0.0006988776841453381
sba(innWeight
NNWeight
p1406
(dp1407
g3
F-0.003064505762836217
sba(innWeight
NNWeight
p1408
(dp1409
g3
F-0.027894221280049685
sba(innWeight
NNWeight
p1410
(dp1411
g3
F0.022737396410616607
sba(innWeight
NNWeight
p1412
(dp1413
g3
F-0.01626616304011283
sba(innWeight
NNWeight
p1414
(dp1415
g3
F-0.004670996702058952
sba(innWeight
NNWeight
p1416
(dp1417
g3
F0.004660887002149845
sba(innWeight
NNWeight
p1418
(dp1419
g3
F-0.0011952798456677637
sba(innWeight
NNWeight
p1420
(dp1421
g3
F-0.0004954011385795172
sba(innWeight
NNWeight
p1422
(dp1423
g3
F-0.017502713736079565
sba(innWeight
NNWeight
p1424
(dp1425
g3
F-0.06026465584500881
sba(innWeight
NNWeight
p1426
(dp1427
g3
F-0.007594508742893995
sba(innWeight
NNWeight
p1428
(dp1429
g3
F-0.05356909651294708
sba(innWeight
NNWeight
p1430
(dp1431
g3
F0.016841923749088144
sba(innWeight
NNWeight
p1432
(dp1433
g3
F-0.011334173999840807
sba(innWeight
NNWeight
p1434
(dp1435
g3
F-0.007098679227339452
sba(innWeight
NNWeight
p1436
(dp1437
g3
F-0.04850123858462709
sba(innWeight
NNWeight
p1438
(dp1439
g3
F0.010717016060636742
sba(innWeight
NNWeight
p1440
(dp1441
g3
F0.02577191053361478
sba(innWeight
NNWeight
p1442
(dp1443
g3
F0.0005407650787372193
sba(innWeight
NNWeight
p1444
(dp1445
g3
F0.011461720020858207
sba(innWeight
NNWeight
p1446
(dp1447
g3
F-0.005429141073983753
sba(innWeight
NNWeight
p1448
(dp1449
g3
F-0.0016630106362595213
sba(innWeight
NNWeight
p1450
(dp1451
g3
F-0.046609020559796654
sba(innWeight
NNWeight
p1452
(dp1453
g3
F-0.01583145914923278
sba(innWeight
NNWeight
p1454
(dp1455
g3
F0.010963680718169139
sba(innWeight
NNWeight
p1456
(dp1457
g3
F-0.0038003850476172026
sba(innWeight
NNWeight
p1458
(dp1459
g3
F0.011868198022809914
sba(innWeight
NNWeight
p1460
(dp1461
g3
F0.001110931441340079
sba(innWeight
NNWeight
p1462
(dp1463
g3
F-0.009227166826512041
sba(innWeight
NNWeight
p1464
(dp1465
g3
F0.006632226069169915
sba(innWeight
NNWeight
p1466
(dp1467
g3
F0.010493590113740636
sba(innWeight
NNWeight
p1468
(dp1469
g3
F0.001395695281537347
sba(innWeight
NNWeight
p1470
(dp1471
g3
F-0.011465413248362841
sba(innWeight
NNWeight
p1472
(dp1473
g3
F-0.0007483922112795974
sba(innWeight
NNWeight
p1474
(dp1475
g3
F0.009522993768168878
sba(innWeight
NNWeight
p1476
(dp1477
g3
F0.0033144238983857603
sba(innWeight
NNWeight
p1478
(dp1479
g3
F0.010499302443886643
sba(innWeight
NNWeight
p1480
(dp1481
g3
F-0.004330407354156355
sba(innWeight
NNWeight
p1482
(dp1483
g3
F0.008434086713793513
sba(innWeight
NNWeight
p1484
(dp1485
g3
F0.019528261114861976
sba(innWeight
NNWeight
p1486
(dp1487
g3
F-0.0023129796028640037
sba(innWeight
NNWeight
p1488
(dp1489
g3
F0.011566559734129376
sba(innWeight
NNWeight
p1490
(dp1491
g3
F-0.021393503415280228
sba(innWeight
NNWeight
p1492
(dp1493
g3
F0.004896052957884114
sba(innWeight
NNWeight
p1494
(dp1495
g3
F-0.06843222647400378
sba(innWeight
NNWeight
p1496
(dp1497
g3
F-0.09520499154877972
sba(innWeight
NNWeight
p1498
(dp1499
g3
F0.04589939593327946
sba(innWeight
NNWeight
p1500
(dp1501
g3
F0.0028566554932689665
sba(innWeight
NNWeight
p1502
(dp1503
g3
F0.0103241458950922
sba(innWeight
NNWeight
p1504
(dp1505
g3
F-0.05143503804451052
sba(innWeight
NNWeight
p1506
(dp1507
g3
F-0.0048798310118027596
sba(innWeight
NNWeight
p1508
(dp1509
g3
F0.027663670634511372
sba(innWeight
NNWeight
p1510
(dp1511
g3
F0.0205348874204
sba(innWeight
NNWeight
p1512
(dp1513
g3
F-0.01500323561913271
sba(innWeight
NNWeight
p1514
(dp1515
g3
F0.011030882702471965
sba(innWeight
NNWeight
p1516
(dp1517
g3
F0.0006739205678993261
sba(innWeight
NNWeight
p1518
(dp1519
g3
F0.0015646680863757613
sba(innWeight
NNWeight
p1520
(dp1521
g3
F0.022062732440962452
sba(innWeight
NNWeight
p1522
(dp1523
g3
F0.03057589128246431
sba(innWeight
NNWeight
p1524
(dp1525
g3
F-0.0003656134318102351
sba(innWeight
NNWeight
p1526
(dp1527
g3
F-0.11873310274319197
sba(innWeight
NNWeight
p1528
(dp1529
g3
F0.0007338783195165149
sba(innWeight
NNWeight
p1530
(dp1531
g3
F-0.0009925770108620852
sba(innWeight
NNWeight
p1532
(dp1533
g3
F-0.00562024271500679
sba(innWeight
NNWeight
p1534
(dp1535
g3
F-0.026356495774043042
sba(innWeight
NNWeight
p1536
(dp1537
g3
F-0.010890144083442624
sba(innWeight
NNWeight
p1538
(dp1539
g3
F0.005905139143666474
sba(innWeight
NNWeight
p1540
(dp1541
g3
F-0.030174276626129395
sba(innWeight
NNWeight
p1542
(dp1543
g3
F-0.018526437111926454
sba(innWeight
NNWeight
p1544
(dp1545
g3
F0.00035375915806867006
sba(innWeight
NNWeight
p1546
(dp1547
g3
F0.009599966044974637
sba(innWeight
NNWeight
p1548
(dp1549
g3
F0.014612530258552364
sba(innWeight
NNWeight
p1550
(dp1551
g3
F-0.00674773264960465
sba(innWeight
NNWeight
p1552
(dp1553
g3
F-0.003799087850150596
sba(innWeight
NNWeight
p1554
(dp1555
g3
F-0.021014510638696755
sba(innWeight
NNWeight
p1556
(dp1557
g3
F-0.0015852412702642383
sba(innWeight
NNWeight
p1558
(dp1559
g3
F0.0004672230881153719
sba(innWeight
NNWeight
p1560
(dp1561
g3
F0.008061373960928655
sba(innWeight
NNWeight
p1562
(dp1563
g3
F-0.003748043880105434
sba(innWeight
NNWeight
p1564
(dp1565
g3
F-0.0029335891870017772
sba(innWeight
NNWeight
p1566
(dp1567
g3
F0.0016809260759983685
sba(innWeight
NNWeight
p1568
(dp1569
g3
F-0.007572037048406784
sba(innWeight
NNWeight
p1570
(dp1571
g3
F-0.01670056977556958
sba(innWeight
NNWeight
p1572
(dp1573
g3
F0.005790852415436152
sba(innWeight
NNWeight
p1574
(dp1575
g3
F-0.01786377700622188
sba(innWeight
NNWeight
p1576
(dp1577
g3
F0.0013546679700377586
sba(innWeight
NNWeight
p1578
(dp1579
g3
F-0.0539005781435231
sba(innWeight
NNWeight
p1580
(dp1581
g3
F-0.009710261450502834
sba(innWeight
NNWeight
p1582
(dp1583
g3
F0.014398293303285452
sba(innWeight
NNWeight
p1584
(dp1585
g3
F-0.026982859189170465
sba(innWeight
NNWeight
p1586
(dp1587
g3
F0.05618678376753079
sba(innWeight
NNWeight
p1588
(dp1589
g3
F-0.004609160924736847
sba(innWeight
NNWeight
p1590
(dp1591
g3
F-0.002629341251834717
sba(innWeight
NNWeight
p1592
(dp1593
g3
F0.030411954365407154
sba(innWeight
NNWeight
p1594
(dp1595
g3
F-5.868786472801299e-05
sba(innWeight
NNWeight
p1596
(dp1597
g3
F0.020344521310448272
sba(innWeight
NNWeight
p1598
(dp1599
g3
F0.003614585526762855
sba(innWeight
NNWeight
p1600
(dp1601
g3
F0.002333640124189136
sba(innWeight
NNWeight
p1602
(dp1603
g3
F-0.07153559397578833
sba(innWeight
NNWeight
p1604
(dp1605
g3
F-0.006841287665656861
sba(innWeight
NNWeight
p1606
(dp1607
g3
F0.004005689880939843
sba(innWeight
NNWeight
p1608
(dp1609
g3
F0.007165996265358554
sba(innWeight
NNWeight
p1610
(dp1611
g3
F0.004320254608162921
sba(innWeight
NNWeight
p1612
(dp1613
g3
F0.006921808176800003
sba(innWeight
NNWeight
p1614
(dp1615
g3
F-0.010251101698612932
sba(innWeight
NNWeight
p1616
(dp1617
g3
F0.02588918173394818
sba(innWeight
NNWeight
p1618
(dp1619
g3
F-0.1761743411821021
sba(innWeight
NNWeight
p1620
(dp1621
g3
F-0.021807145331704463
sba(innWeight
NNWeight
p1622
(dp1623
g3
F-0.015345383934414128
sba(innWeight
NNWeight
p1624
(dp1625
g3
F0.004493547181158288
sba(innWeight
NNWeight
p1626
(dp1627
g3
F0.020183706153831568
sba(innWeight
NNWeight
p1628
(dp1629
g3
F0.038541324251250696
sba(innWeight
NNWeight
p1630
(dp1631
g3
F-0.007134571960826624
sba(innWeight
NNWeight
p1632
(dp1633
g3
F0.024310552921919727
sba(innWeight
NNWeight
p1634
(dp1635
g3
F0.015671898895943913
sba(innWeight
NNWeight
p1636
(dp1637
g3
F-0.0057309834212213116
sba(innWeight
NNWeight
p1638
(dp1639
g3
F0.023066818299040965
sba(innWeight
NNWeight
p1640
(dp1641
g3
F0.01558651842758984
sba(innWeight
NNWeight
p1642
(dp1643
g3
F-0.0012531222040422598
sba(innWeight
NNWeight
p1644
(dp1645
g3
F0.007628084703476725
sba(innWeight
NNWeight
p1646
(dp1647
g3
F0.024705203940694902
sba(innWeight
NNWeight
p1648
(dp1649
g3
F0.030600221166800633
sba(innWeight
NNWeight
p1650
(dp1651
g3
F0.018127506833384273
sba(innWeight
NNWeight
p1652
(dp1653
g3
F0.015476498983506297
sba(innWeight
NNWeight
p1654
(dp1655
g3
F-0.014255484014177857
sba(innWeight
NNWeight
p1656
(dp1657
g3
F0.02579205669857374
sba(innWeight
NNWeight
p1658
(dp1659
g3
F-0.008804571900665435
sba(innWeight
NNWeight
p1660
(dp1661
g3
F-0.01248361602741868
sba(innWeight
NNWeight
p1662
(dp1663
g3
F0.002493166180963073
sba(innWeight
NNWeight
p1664
(dp1665
g3
F0.01088448263186528
sba(innWeight
NNWeight
p1666
(dp1667
g3
F0.015327943743344551
sba(innWeight
NNWeight
p1668
(dp1669
g3
F-0.013949787016846946
sba(innWeight
NNWeight
p1670
(dp1671
g3
F0.02213356952675126
sba(innWeight
NNWeight
p1672
(dp1673
g3
F-0.03857040475918112
sba(innWeight
NNWeight
p1674
(dp1675
g3
F-0.009717351950086871
sba(innWeight
NNWeight
p1676
(dp1677
g3
F-0.04382526201128258
sba(innWeight
NNWeight
p1678
(dp1679
g3
F-0.014619817237259363
sba(innWeight
NNWeight
p1680
(dp1681
g3
F0.02541460756228756
sba(innWeight
NNWeight
p1682
(dp1683
g3
F0.04658902440340932
sba(innWeight
NNWeight
p1684
(dp1685
g3
F0.02079454033537412
sba(innWeight
NNWeight
p1686
(dp1687
g3
F0.018547700043197387
sba(innWeight
NNWeight
p1688
(dp1689
g3
F0.007196801301973201
sba(innWeight
NNWeight
p1690
(dp1691
g3
F-0.008765723388076206
sba(innWeight
NNWeight
p1692
(dp1693
g3
F0.026867545943401697
sba(innWeight
NNWeight
p1694
(dp1695
g3
F0.01896183894321728
sba(innWeight
NNWeight
p1696
(dp1697
g3
F-0.01773450459859761
sba(innWeight
NNWeight
p1698
(dp1699
g3
F-0.06514539025238276
sba(innWeight
NNWeight
p1700
(dp1701
g3
F0.059201361158379096
sba(innWeight
NNWeight
p1702
(dp1703
g3
F-0.016700675831822928
sba(innWeight
NNWeight
p1704
(dp1705
g3
F-0.029277917472584337
sba(innWeight
NNWeight
p1706
(dp1707
g3
F0.008561179578996563
sba(innWeight
NNWeight
p1708
(dp1709
g3
F0.023549218462335656
sba(innWeight
NNWeight
p1710
(dp1711
g3
F-0.04268440496160302
sba(innWeight
NNWeight
p1712
(dp1713
g3
F-0.013275030997460737
sba(innWeight
NNWeight
p1714
(dp1715
g3
F-0.006583280281467305
sba(innWeight
NNWeight
p1716
(dp1717
g3
F-0.011148746446643624
sba(innWeight
NNWeight
p1718
(dp1719
g3
F0.02768157273831005
sba(innWeight
NNWeight
p1720
(dp1721
g3
F0.023079303695799313
sba(innWeight
NNWeight
p1722
(dp1723
g3
F-0.006200617284727893
sba(innWeight
NNWeight
p1724
(dp1725
g3
F-0.007279916259278212
sba(innWeight
NNWeight
p1726
(dp1727
g3
F0.045408208744156776
sba(innWeight
NNWeight
p1728
(dp1729
g3
F0.003943636828562332
sba(innWeight
NNWeight
p1730
(dp1731
g3
F0.004312859739501882
sba(innWeight
NNWeight
p1732
(dp1733
g3
F0.02361208425862583
sba(innWeight
NNWeight
p1734
(dp1735
g3
F-0.0007533423957812315
sba(innWeight
NNWeight
p1736
(dp1737
g3
F0.008129073850548318
sba(innWeight
NNWeight
p1738
(dp1739
g3
F-0.023703411664630882
sba(innWeight
NNWeight
p1740
(dp1741
g3
F-0.0013521348956295064
sba(innWeight
NNWeight
p1742
(dp1743
g3
F-0.10249529814596811
sba(innWeight
NNWeight
p1744
(dp1745
g3
F0.034712964311721856
sba(innWeight
NNWeight
p1746
(dp1747
g3
F0.045627722517731464
sba(innWeight
NNWeight
p1748
(dp1749
g3
F0.00689410697725258
sba(innWeight
NNWeight
p1750
(dp1751
g3
F-0.005498551572814908
sba(innWeight
NNWeight
p1752
(dp1753
g3
F0.02433273786116244
sba(innWeight
NNWeight
p1754
(dp1755
g3
F0.0250100232380493
sba(innWeight
NNWeight
p1756
(dp1757
g3
F-0.10204097330142006
sba(innWeight
NNWeight
p1758
(dp1759
g3
F0.038557967405446515
sba(innWeight
NNWeight
p1760
(dp1761
g3
F0.0016176477594289954
sba(innWeight
NNWeight
p1762
(dp1763
g3
F-0.038396442478138615
sba(innWeight
NNWeight
p1764
(dp1765
g3
F-0.010003290073618734
sba(innWeight
NNWeight
p1766
(dp1767
g3
F0.02856036753585509
sba(innWeight
NNWeight
p1768
(dp1769
g3
F-0.0006218464893709599
sba(innWeight
NNWeight
p1770
(dp1771
g3
F0.017969428134840048
sba(innWeight
NNWeight
p1772
(dp1773
g3
F-0.008709931379171441
sba(innWeight
NNWeight
p1774
(dp1775
g3
F0.024808937906886656
sba(innWeight
NNWeight
p1776
(dp1777
g3
F0.05345499199110925
sba(innWeight
NNWeight
p1778
(dp1779
g3
F0.016955772033684834
sba(innWeight
NNWeight
p1780
(dp1781
g3
F-0.11987069349601706
sba(innWeight
NNWeight
p1782
(dp1783
g3
F0.04200583701141873
sba(innWeight
NNWeight
p1784
(dp1785
g3
F-0.004420057148689648
sba(innWeight
NNWeight
p1786
(dp1787
g3
F0.009194704809289765
sba(innWeight
NNWeight
p1788
(dp1789
g3
F-0.01829577211951671
sba(innWeight
NNWeight
p1790
(dp1791
g3
F0.011884685790288077
sba(innWeight
NNWeight
p1792
(dp1793
g3
F-0.0027364331340980763
sba(innWeight
NNWeight
p1794
(dp1795
g3
F-0.045952124627115974
sba(innWeight
NNWeight
p1796
(dp1797
g3
F-0.027818200642140446
sba(innWeight
NNWeight
p1798
(dp1799
g3
F0.010033981739655555
sba(innWeight
NNWeight
p1800
(dp1801
g3
F0.022614445490393164
sba(innWeight
NNWeight
p1802
(dp1803
g3
F-0.04912046627552524
sba(innWeight
NNWeight
p1804
(dp1805
g3
F-0.20838733981509816
sba(innWeight
NNWeight
p1806
(dp1807
g3
F-0.023750977333649143
sba(innWeight
NNWeight
p1808
(dp1809
g3
F-0.01800988984726425
sba(innWeight
NNWeight
p1810
(dp1811
g3
F0.011834780037439816
sba(innWeight
NNWeight
p1812
(dp1813
g3
F0.032261058681233946
sba(innWeight
NNWeight
p1814
(dp1815
g3
F-0.0158832426007769
sba(innWeight
NNWeight
p1816
(dp1817
g3
F0.01748594928396275
sba(innWeight
NNWeight
p1818
(dp1819
g3
F-0.005152681995269472
sba(innWeight
NNWeight
p1820
(dp1821
g3
F-0.11744008280616317
sba(innWeight
NNWeight
p1822
(dp1823
g3
F-0.02118100140745793
sba(innWeight
NNWeight
p1824
(dp1825
g3
F-0.003178793168273973
sba(innWeight
NNWeight
p1826
(dp1827
g3
F-0.004254431328223249
sba(innWeight
NNWeight
p1828
(dp1829
g3
F-0.06476504824465212
sba(innWeight
NNWeight
p1830
(dp1831
g3
F-0.05450863188621647
sba(innWeight
NNWeight
p1832
(dp1833
g3
F0.015363655718005605
sba(innWeight
NNWeight
p1834
(dp1835
g3
F-0.006238314527824258
sba(innWeight
NNWeight
p1836
(dp1837
g3
F0.03927203715568911
sba(innWeight
NNWeight
p1838
(dp1839
g3
F0.021723940850204296
sba(innWeight
NNWeight
p1840
(dp1841
g3
F0.02415246871141364
sba(innWeight
NNWeight
p1842
(dp1843
g3
F-0.01577007518599811
sba(innWeight
NNWeight
p1844
(dp1845
g3
F-0.029809767185280642
sba(innWeight
NNWeight
p1846
(dp1847
g3
F0.002381261963243972
sba(innWeight
NNWeight
p1848
(dp1849
g3
F-0.040005270867925116
sba(innWeight
NNWeight
p1850
(dp1851
g3
F0.014368787106325496
sba(innWeight
NNWeight
p1852
(dp1853
g3
F0.006407685569849796
sba(innWeight
NNWeight
p1854
(dp1855
g3
F0.048940452137394626
sba(innWeight
NNWeight
p1856
(dp1857
g3
F-0.009193465363665268
sba(innWeight
NNWeight
p1858
(dp1859
g3
F0.006334768918332938
sba(innWeight
NNWeight
p1860
(dp1861
g3
F0.0015090815151292212
sba(innWeight
NNWeight
p1862
(dp1863
g3
F-0.011482111990884619
sba(innWeight
NNWeight
p1864
(dp1865
g3
F0.0004041760051547419
sba(innWeight
NNWeight
p1866
(dp1867
g3
F-0.03547330282389631
sba(innWeight
NNWeight
p1868
(dp1869
g3
F-0.018786509751078765
sba(innWeight
NNWeight
p1870
(dp1871
g3
F0.009270677647012244
sba(innWeight
NNWeight
p1872
(dp1873
g3
F-0.048905655818499275
sba(innWeight
NNWeight
p1874
(dp1875
g3
F-0.038929682160496464
sba(innWeight
NNWeight
p1876
(dp1877
g3
F-0.003522631939641493
sba(innWeight
NNWeight
p1878
(dp1879
g3
F-0.0224529266690543
sba(innWeight
NNWeight
p1880
(dp1881
g3
F-0.0022697089681468154
sba(innWeight
NNWeight
p1882
(dp1883
g3
F0.012743699373005932
sba(innWeight
NNWeight
p1884
(dp1885
g3
F-0.002230351373123407
sba(innWeight
NNWeight
p1886
(dp1887
g3
F0.013628568076366981
sba(innWeight
NNWeight
p1888
(dp1889
g3
F-0.025076664062915442
sba(innWeight
NNWeight
p1890
(dp1891
g3
F-0.0012637374632793724
sba(innWeight
NNWeight
p1892
(dp1893
g3
F-0.0060540374114377805
sba(innWeight
NNWeight
p1894
(dp1895
g3
F0.0025094064485249716
sba(innWeight
NNWeight
p1896
(dp1897
g3
F0.005773858530566334
sba(innWeight
NNWeight
p1898
(dp1899
g3
F-0.00014363297312922356
sba(innWeight
NNWeight
p1900
(dp1901
g3
F-0.02107892628401482
sba(innWeight
NNWeight
p1902
(dp1903
g3
F-0.014969851118854885
sba(innWeight
NNWeight
p1904
(dp1905
g3
F0.0006691733226614641
sba(innWeight
NNWeight
p1906
(dp1907
g3
F-0.012356415364518357
sba(innWeight
NNWeight
p1908
(dp1909
g3
F0.00969924573673754
sba(innWeight
NNWeight
p1910
(dp1911
g3
F-0.014678690382255943
sba(innWeight
NNWeight
p1912
(dp1913
g3
F-0.030562148263681296
sba(innWeight
NNWeight
p1914
(dp1915
g3
F0.009098175050567835
sba(innWeight
NNWeight
p1916
(dp1917
g3
F-0.012420460820647235
sba(innWeight
NNWeight
p1918
(dp1919
g3
F-0.028815343827371314
sba(innWeight
NNWeight
p1920
(dp1921
g3
F0.0021387325681835566
sba(innWeight
NNWeight
p1922
(dp1923
g3
F-0.019977915621318922
sba(innWeight
NNWeight
p1924
(dp1925
g3
F-0.00690038070240917
sba(innWeight
NNWeight
p1926
(dp1927
g3
F0.00027215911958057684
sba(innWeight
NNWeight
p1928
(dp1929
g3
F-0.0036256267893369815
sba(innWeight
NNWeight
p1930
(dp1931
g3
F0.004679404721063237
sba(innWeight
NNWeight
p1932
(dp1933
g3
F0.005700586071770001
sba(innWeight
NNWeight
p1934
(dp1935
g3
F0.023434055771876884
sba(innWeight
NNWeight
p1936
(dp1937
g3
F0.011612140939501787
sba(innWeight
NNWeight
p1938
(dp1939
g3
F-0.013948152564252348
sba(innWeight
NNWeight
p1940
(dp1941
g3
F-0.003796942563778497
sba(innWeight
NNWeight
p1942
(dp1943
g3
F-0.019492869271740078
sba(innWeight
NNWeight
p1944
(dp1945
g3
F-0.023297723820175253
sba(innWeight
NNWeight
p1946
(dp1947
g3
F-0.017094872809655434
sba(innWeight
NNWeight
p1948
(dp1949
g3
F0.011039856848769168
sba(innWeight
NNWeight
p1950
(dp1951
g3
F-0.0022548709309734246
sba(innWeight
NNWeight
p1952
(dp1953
g3
F-0.012625983644324375
sba(innWeight
NNWeight
p1954
(dp1955
g3
F-0.02406580929106532
sba(innWeight
NNWeight
p1956
(dp1957
g3
F0.0017080022637794479
sba(innWeight
NNWeight
p1958
(dp1959
g3
F-0.0032933020790654245
sba(innWeight
NNWeight
p1960
(dp1961
g3
F0.010294807349196187
sba(innWeight
NNWeight
p1962
(dp1963
g3
F0.015191344086853511
sba(innWeight
NNWeight
p1964
(dp1965
g3
F-0.0019308106159333063
sba(innWeight
NNWeight
p1966
(dp1967
g3
F0.002872017191856478
sba(innWeight
NNWeight
p1968
(dp1969
g3
F-0.008532791758516399
sba(innWeight
NNWeight
p1970
(dp1971
g3
F0.004545697346028577
sba(innWeight
NNWeight
p1972
(dp1973
g3
F0.033009765698603415
sba(innWeight
NNWeight
p1974
(dp1975
g3
F0.03333278575745653
sba(innWeight
NNWeight
p1976
(dp1977
g3
F-0.022442817500173618
sba(innWeight
NNWeight
p1978
(dp1979
g3
F0.003706421068254994
sba(innWeight
NNWeight
p1980
(dp1981
g3
F-0.008858093324825528
sba(innWeight
NNWeight
p1982
(dp1983
g3
F-0.0766680579259241
sba(innWeight
NNWeight
p1984
(dp1985
g3
F0.00236520059214552
sba(innWeight
NNWeight
p1986
(dp1987
g3
F0.012247597319210374
sba(innWeight
NNWeight
p1988
(dp1989
g3
F0.02751378347660662
sba(innWeight
NNWeight
p1990
(dp1991
g3
F-0.06322106244659617
sba(innWeight
NNWeight
p1992
(dp1993
g3
F-0.014331119151267823
sba(innWeight
NNWeight
p1994
(dp1995
g3
F0.010128099246223777
sba(innWeight
NNWeight
p1996
(dp1997
g3
F0.02047261831775802
sba(innWeight
NNWeight
p1998
(dp1999
g3
F0.01902508447417363
sba(innWeight
NNWeight
p2000
(dp2001
g3
F-0.027237901753768442
sba(innWeight
NNWeight
p2002
(dp2003
g3
F-0.0031963785230497144
sba(innWeight
NNWeight
p2004
(dp2005
g3
F0.01613926990434713
sba(innWeight
NNWeight
p2006
(dp2007
g3
F-0.08510019740005768
sba(innWeight
NNWeight
p2008
(dp2009
g3
F0.02000143933473406
sba(innWeight
NNWeight
p2010
(dp2011
g3
F0.011864714079382794
sba(innWeight
NNWeight
p2012
(dp2013
g3
F-0.00957075452264392
sba(innWeight
NNWeight
p2014
(dp2015
g3
F-0.0008600332904931255
sba(innWeight
NNWeight
p2016
(dp2017
g3
F-0.005733689107858565
sba(innWeight
NNWeight
p2018
(dp2019
g3
F0.03389142940594666
sba(innWeight
NNWeight
p2020
(dp2021
g3
F0.0011286119806307839
sba.