(lp0
(innWeight
NNWeight
p1
(dp2
S'val'
p3
F-0.04154898229359442
sba(innWeight
NNWeight
p4
(dp5
g3
F-0.08085716762035536
sba(innWeight
NNWeight
p6
(dp7
g3
F-0.03860954794141805
sba(innWeight
NNWeight
p8
(dp9
g3
F-0.013507022868400036
sba(innWeight
NNWeight
p10
(dp11
g3
F-0.025526207597395288
sba(innWeight
NNWeight
p12
(dp13
g3
F-0.0016246553157307018
sba(innWeight
NNWeight
p14
(dp15
g3
F-0.026215122938038484
sba(innWeight
NNWeight
p16
(dp17
g3
F-0.06873617174355648
sba(innWeight
NNWeight
p18
(dp19
g3
F-0.02590991063844855
sba(innWeight
NNWeight
p20
(dp21
g3
F0.06628992807830236
sba(innWeight
NNWeight
p22
(dp23
g3
F-0.03702035189091391
sba(innWeight
NNWeight
p24
(dp25
g3
F-0.012679293080484894
sba(innWeight
NNWeight
p26
(dp27
g3
F-0.06156272660009569
sba(innWeight
NNWeight
p28
(dp29
g3
F0.021527705550764404
sba(innWeight
NNWeight
p30
(dp31
g3
F0.013857746993821892
sba(innWeight
NNWeight
p32
(dp33
g3
F-0.024744382515191343
sba(innWeight
NNWeight
p34
(dp35
g3
F-0.015540254803224974
sba(innWeight
NNWeight
p36
(dp37
g3
F0.026615874758493054
sba(innWeight
NNWeight
p38
(dp39
g3
F0.036336909940372066
sba(innWeight
NNWeight
p40
(dp41
g3
F-0.04349265009972573
sba(innWeight
NNWeight
p42
(dp43
g3
F0.016928589288066558
sba(innWeight
NNWeight
p44
(dp45
g3
F0.061990021322005553
sba(innWeight
NNWeight
p46
(dp47
g3
F-0.024808084586812326
sba(innWeight
NNWeight
p48
(dp49
g3
F0.04747744157186019
sba(innWeight
NNWeight
p50
(dp51
g3
F0.03655399143015889
sba(innWeight
NNWeight
p52
(dp53
g3
F0.04071024822194906
sba(innWeight
NNWeight
p54
(dp55
g3
F0.06938601832659887
sba(innWeight
NNWeight
p56
(dp57
g3
F0.04805851924786654
sba(innWeight
NNWeight
p58
(dp59
g3
F0.0325955878974624
sba(innWeight
NNWeight
p60
(dp61
g3
F-0.0123269394123936
sba(innWeight
NNWeight
p62
(dp63
g3
F-0.03139547041400743
sba(innWeight
NNWeight
p64
(dp65
g3
F-0.06670463937417767
sba(innWeight
NNWeight
p66
(dp67
g3
F-0.062319139324138254
sba(innWeight
NNWeight
p68
(dp69
g3
F-0.01608893031485607
sba(innWeight
NNWeight
p70
(dp71
g3
F0.004361007065789886
sba(innWeight
NNWeight
p72
(dp73
g3
F0.05559369512462249
sba(innWeight
NNWeight
p74
(dp75
g3
F-0.08947160073525286
sba(innWeight
NNWeight
p76
(dp77
g3
F0.01991186259288561
sba(innWeight
NNWeight
p78
(dp79
g3
F0.003964731702737865
sba(innWeight
NNWeight
p80
(dp81
g3
F0.020735088313892498
sba(innWeight
NNWeight
p82
(dp83
g3
F-0.04671606366988604
sba(innWeight
NNWeight
p84
(dp85
g3
F0.029249632566368398
sba(innWeight
NNWeight
p86
(dp87
g3
F0.005299242074102878
sba(innWeight
NNWeight
p88
(dp89
g3
F-0.02960613852156639
sba(innWeight
NNWeight
p90
(dp91
g3
F-0.02664159184794743
sba(innWeight
NNWeight
p92
(dp93
g3
F-0.01894012683929101
sba(innWeight
NNWeight
p94
(dp95
g3
F-0.00851264108353626
sba(innWeight
NNWeight
p96
(dp97
g3
F-0.051535224515678296
sba(innWeight
NNWeight
p98
(dp99
g3
F0.03437266736114131
sba(innWeight
NNWeight
p100
(dp101
g3
F-0.05321100544019559
sba(innWeight
NNWeight
p102
(dp103
g3
F0.05291043303686729
sba(innWeight
NNWeight
p104
(dp105
g3
F0.07214625039688109
sba(innWeight
NNWeight
p106
(dp107
g3
F-0.031145243909594833
sba(innWeight
NNWeight
p108
(dp109
g3
F-0.004821821228157492
sba(innWeight
NNWeight
p110
(dp111
g3
F-0.010886025419316842
sba(innWeight
NNWeight
p112
(dp113
g3
F-0.09348034231996234
sba(innWeight
NNWeight
p114
(dp115
g3
F-0.037806352847418984
sba(innWeight
NNWeight
p116
(dp117
g3
F0.027068372089809098
sba(innWeight
NNWeight
p118
(dp119
g3
F0.044198010637240215
sba(innWeight
NNWeight
p120
(dp121
g3
F-0.03341392592366649
sba(innWeight
NNWeight
p122
(dp123
g3
F-0.03840208335537386
sba(innWeight
NNWeight
p124
(dp125
g3
F0.038745781994045034
sba(innWeight
NNWeight
p126
(dp127
g3
F0.029808312929181027
sba(innWeight
NNWeight
p128
(dp129
g3
F0.05356740587453405
sba(innWeight
NNWeight
p130
(dp131
g3
F-0.027859222289242123
sba(innWeight
NNWeight
p132
(dp133
g3
F0.015290205118547815
sba(innWeight
NNWeight
p134
(dp135
g3
F-0.06106704260779539
sba(innWeight
NNWeight
p136
(dp137
g3
F-0.0003171586831592639
sba(innWeight
NNWeight
p138
(dp139
g3
F-0.05307922366102372
sba(innWeight
NNWeight
p140
(dp141
g3
F-0.03145469734878022
sba(innWeight
NNWeight
p142
(dp143
g3
F0.07839673144488199
sba(innWeight
NNWeight
p144
(dp145
g3
F-0.018643209096032252
sba(innWeight
NNWeight
p146
(dp147
g3
F-0.04445182530575293
sba(innWeight
NNWeight
p148
(dp149
g3
F0.004982823671678125
sba(innWeight
NNWeight
p150
(dp151
g3
F0.0015455697362703863
sba(innWeight
NNWeight
p152
(dp153
g3
F-0.044196613599640514
sba(innWeight
NNWeight
p154
(dp155
g3
F0.0047708465330400535
sba(innWeight
NNWeight
p156
(dp157
g3
F0.04221318080363417
sba(innWeight
NNWeight
p158
(dp159
g3
F-0.013858358038025344
sba(innWeight
NNWeight
p160
(dp161
g3
F0.05315465712772804
sba(innWeight
NNWeight
p162
(dp163
g3
F0.029261819641550568
sba(innWeight
NNWeight
p164
(dp165
g3
F0.041966602746959195
sba(innWeight
NNWeight
p166
(dp167
g3
F0.04429075290287116
sba(innWeight
NNWeight
p168
(dp169
g3
F0.05161070710543566
sba(innWeight
NNWeight
p170
(dp171
g3
F0.07778113239473779
sba(innWeight
NNWeight
p172
(dp173
g3
F0.025962005525259284
sba(innWeight
NNWeight
p174
(dp175
g3
F0.03145873803528825
sba(innWeight
NNWeight
p176
(dp177
g3
F0.043301271675613366
sba(innWeight
NNWeight
p178
(dp179
g3
F0.015972967186309316
sba(innWeight
NNWeight
p180
(dp181
g3
F0.029758076429961224
sba(innWeight
NNWeight
p182
(dp183
g3
F-0.029016376680560674
sba(innWeight
NNWeight
p184
(dp185
g3
F0.0189957088114405
sba(innWeight
NNWeight
p186
(dp187
g3
F-0.007609294073489225
sba(innWeight
NNWeight
p188
(dp189
g3
F0.04208321641588389
sba(innWeight
NNWeight
p190
(dp191
g3
F-0.0023458362784929744
sba(innWeight
NNWeight
p192
(dp193
g3
F0.008978510560948906
sba(innWeight
NNWeight
p194
(dp195
g3
F0.022384149883147037
sba(innWeight
NNWeight
p196
(dp197
g3
F-0.02240547928730213
sba(innWeight
NNWeight
p198
(dp199
g3
F0.04138606748421065
sba(innWeight
NNWeight
p200
(dp201
g3
F0.07287185542715174
sba(innWeight
NNWeight
p202
(dp203
g3
F0.01541496045481378
sba(innWeight
NNWeight
p204
(dp205
g3
F0.021210444278797157
sba(innWeight
NNWeight
p206
(dp207
g3
F0.022552961562746464
sba(innWeight
NNWeight
p208
(dp209
g3
F-0.002668279164460558
sba(innWeight
NNWeight
p210
(dp211
g3
F-0.08129537776389376
sba(innWeight
NNWeight
p212
(dp213
g3
F-0.050731648817903006
sba(innWeight
NNWeight
p214
(dp215
g3
F-0.03177497830062275
sba(innWeight
NNWeight
p216
(dp217
g3
F-0.05341909513834391
sba(innWeight
NNWeight
p218
(dp219
g3
F0.00924605081196035
sba(innWeight
NNWeight
p220
(dp221
g3
F0.01747349420339811
sba(innWeight
NNWeight
p222
(dp223
g3
F0.03573363147266994
sba(innWeight
NNWeight
p224
(dp225
g3
F-0.026386189190534676
sba(innWeight
NNWeight
p226
(dp227
g3
F-0.04558696641509441
sba(innWeight
NNWeight
p228
(dp229
g3
F0.039245546078927475
sba(innWeight
NNWeight
p230
(dp231
g3
F-0.03284194974564092
sba(innWeight
NNWeight
p232
(dp233
g3
F0.02052082313874737
sba(innWeight
NNWeight
p234
(dp235
g3
F-0.03595986171724677
sba(innWeight
NNWeight
p236
(dp237
g3
F-0.05083398249915223
sba(innWeight
NNWeight
p238
(dp239
g3
F-0.012469552751623073
sba(innWeight
NNWeight
p240
(dp241
g3
F0.0011963429805494838
sba(innWeight
NNWeight
p242
(dp243
g3
F-0.06764352694048816
sba(innWeight
NNWeight
p244
(dp245
g3
F-0.07811385813007457
sba(innWeight
NNWeight
p246
(dp247
g3
F-0.002718747463587657
sba(innWeight
NNWeight
p248
(dp249
g3
F0.02102497538509921
sba(innWeight
NNWeight
p250
(dp251
g3
F-0.015170943182098563
sba(innWeight
NNWeight
p252
(dp253
g3
F-0.05299483726818055
sba(innWeight
NNWeight
p254
(dp255
g3
F0.05949551830040568
sba(innWeight
NNWeight
p256
(dp257
g3
F-0.025772054022708216
sba(innWeight
NNWeight
p258
(dp259
g3
F0.01671189085580601
sba(innWeight
NNWeight
p260
(dp261
g3
F-0.007296204622997758
sba(innWeight
NNWeight
p262
(dp263
g3
F-0.03760572796903107
sba(innWeight
NNWeight
p264
(dp265
g3
F0.05326308405276303
sba(innWeight
NNWeight
p266
(dp267
g3
F-0.010941090422725773
sba(innWeight
NNWeight
p268
(dp269
g3
F-0.05476329441110124
sba(innWeight
NNWeight
p270
(dp271
g3
F0.004469753983305921
sba(innWeight
NNWeight
p272
(dp273
g3
F-0.024111670783522034
sba(innWeight
NNWeight
p274
(dp275
g3
F-0.09263373630147563
sba(innWeight
NNWeight
p276
(dp277
g3
F0.034445051984489786
sba(innWeight
NNWeight
p278
(dp279
g3
F-0.032548393606254826
sba(innWeight
NNWeight
p280
(dp281
g3
F-0.10369362308555895
sba(innWeight
NNWeight
p282
(dp283
g3
F0.018214226480056238
sba(innWeight
NNWeight
p284
(dp285
g3
F0.03098357361688474
sba(innWeight
NNWeight
p286
(dp287
g3
F0.04732604386051337
sba(innWeight
NNWeight
p288
(dp289
g3
F-0.013281450526717224
sba(innWeight
NNWeight
p290
(dp291
g3
F0.03934341359202436
sba(innWeight
NNWeight
p292
(dp293
g3
F0.047771626509916267
sba(innWeight
NNWeight
p294
(dp295
g3
F-0.005921297907643983
sba(innWeight
NNWeight
p296
(dp297
g3
F0.03307289082400106
sba(innWeight
NNWeight
p298
(dp299
g3
F-0.033336829280809326
sba(innWeight
NNWeight
p300
(dp301
g3
F-0.0721495255287831
sba(innWeight
NNWeight
p302
(dp303
g3
F0.056900507142826996
sba(innWeight
NNWeight
p304
(dp305
g3
F0.08753026335565743
sba(innWeight
NNWeight
p306
(dp307
g3
F-0.015594708932442233
sba(innWeight
NNWeight
p308
(dp309
g3
F0.024246430940877868
sba(innWeight
NNWeight
p310
(dp311
g3
F0.043003149387635844
sba(innWeight
NNWeight
p312
(dp313
g3
F0.0367412879600089
sba(innWeight
NNWeight
p314
(dp315
g3
F0.0132118445221412
sba(innWeight
NNWeight
p316
(dp317
g3
F-0.046976296792616085
sba(innWeight
NNWeight
p318
(dp319
g3
F0.05602663153071595
sba(innWeight
NNWeight
p320
(dp321
g3
F0.02529303446807381
sba(innWeight
NNWeight
p322
(dp323
g3
F0.019788147735844384
sba(innWeight
NNWeight
p324
(dp325
g3
F0.017228335723311235
sba(innWeight
NNWeight
p326
(dp327
g3
F-0.026827521138351452
sba(innWeight
NNWeight
p328
(dp329
g3
F0.05124462988288224
sba(innWeight
NNWeight
p330
(dp331
g3
F0.03208171502257085
sba(innWeight
NNWeight
p332
(dp333
g3
F-0.050053265363089995
sba(innWeight
NNWeight
p334
(dp335
g3
F0.04266758982145612
sba(innWeight
NNWeight
p336
(dp337
g3
F0.05197049696515937
sba(innWeight
NNWeight
p338
(dp339
g3
F-0.0795132438582564
sba(innWeight
NNWeight
p340
(dp341
g3
F0.0282348349671876
sba(innWeight
NNWeight
p342
(dp343
g3
F0.004721483833898828
sba(innWeight
NNWeight
p344
(dp345
g3
F0.0432045539922911
sba(innWeight
NNWeight
p346
(dp347
g3
F-0.014399400888487207
sba(innWeight
NNWeight
p348
(dp349
g3
F-0.022864160931218187
sba(innWeight
NNWeight
p350
(dp351
g3
F-0.02627938859020612
sba(innWeight
NNWeight
p352
(dp353
g3
F-0.0024039626172160104
sba(innWeight
NNWeight
p354
(dp355
g3
F-0.041451650809270935
sba(innWeight
NNWeight
p356
(dp357
g3
F0.04285947939749599
sba(innWeight
NNWeight
p358
(dp359
g3
F0.014908274696458
sba(innWeight
NNWeight
p360
(dp361
g3
F0.03027799322088018
sba(innWeight
NNWeight
p362
(dp363
g3
F-0.02814115579081148
sba(innWeight
NNWeight
p364
(dp365
g3
F0.027364887329656293
sba(innWeight
NNWeight
p366
(dp367
g3
F0.06432093706603978
sba(innWeight
NNWeight
p368
(dp369
g3
F-0.03947288732134621
sba(innWeight
NNWeight
p370
(dp371
g3
F0.05619219829286378
sba(innWeight
NNWeight
p372
(dp373
g3
F-0.010273838913687845
sba(innWeight
NNWeight
p374
(dp375
g3
F-0.0030622006323140134
sba(innWeight
NNWeight
p376
(dp377
g3
F-0.014205781239369468
sba(innWeight
NNWeight
p378
(dp379
g3
F-0.06118558130909501
sba(innWeight
NNWeight
p380
(dp381
g3
F-0.02662990773302097
sba(innWeight
NNWeight
p382
(dp383
g3
F0.021230866680366545
sba(innWeight
NNWeight
p384
(dp385
g3
F0.018232835569119032
sba(innWeight
NNWeight
p386
(dp387
g3
F-0.02785523506113265
sba(innWeight
NNWeight
p388
(dp389
g3
F-0.009164301980166491
sba(innWeight
NNWeight
p390
(dp391
g3
F0.03475179036791263
sba(innWeight
NNWeight
p392
(dp393
g3
F0.030278338246826794
sba(innWeight
NNWeight
p394
(dp395
g3
F0.05645993939312074
sba(innWeight
NNWeight
p396
(dp397
g3
F0.03646748105972752
sba(innWeight
NNWeight
p398
(dp399
g3
F0.022514717233316113
sba(innWeight
NNWeight
p400
(dp401
g3
F0.01674649729465995
sba(innWeight
NNWeight
p402
(dp403
g3
F-0.05448490279951462
sba(innWeight
NNWeight
p404
(dp405
g3
F0.038901610129027674
sba(innWeight
NNWeight
p406
(dp407
g3
F-0.02083344437130377
sba(innWeight
NNWeight
p408
(dp409
g3
F0.009330928983998498
sba(innWeight
NNWeight
p410
(dp411
g3
F0.04190349578921853
sba(innWeight
NNWeight
p412
(dp413
g3
F-0.037241035739745444
sba(innWeight
NNWeight
p414
(dp415
g3
F-0.06561186438261227
sba(innWeight
NNWeight
p416
(dp417
g3
F0.0013442483450040188
sba(innWeight
NNWeight
p418
(dp419
g3
F-0.004082295310521656
sba(innWeight
NNWeight
p420
(dp421
g3
F0.007786825986355346
sba(innWeight
NNWeight
p422
(dp423
g3
F-0.0026418929177119605
sba(innWeight
NNWeight
p424
(dp425
g3
F0.017024777511074465
sba(innWeight
NNWeight
p426
(dp427
g3
F-0.06337070516087957
sba(innWeight
NNWeight
p428
(dp429
g3
F0.03803319467493656
sba(innWeight
NNWeight
p430
(dp431
g3
F-0.01962616178783713
sba(innWeight
NNWeight
p432
(dp433
g3
F0.013408725911894136
sba(innWeight
NNWeight
p434
(dp435
g3
F0.014500604323119955
sba(innWeight
NNWeight
p436
(dp437
g3
F0.03543778826311989
sba(innWeight
NNWeight
p438
(dp439
g3
F0.005577626415242362
sba(innWeight
NNWeight
p440
(dp441
g3
F-0.03215646800153772
sba(innWeight
NNWeight
p442
(dp443
g3
F0.03647174307018341
sba(innWeight
NNWeight
p444
(dp445
g3
F-0.05609350847683997
sba(innWeight
NNWeight
p446
(dp447
g3
F-0.0700891260474264
sba(innWeight
NNWeight
p448
(dp449
g3
F0.010576290857602918
sba(innWeight
NNWeight
p450
(dp451
g3
F-0.021261218112006455
sba(innWeight
NNWeight
p452
(dp453
g3
F0.03747925223361218
sba(innWeight
NNWeight
p454
(dp455
g3
F-0.03706675795092583
sba(innWeight
NNWeight
p456
(dp457
g3
F-0.02205998873943391
sba(innWeight
NNWeight
p458
(dp459
g3
F0.021190198364438764
sba(innWeight
NNWeight
p460
(dp461
g3
F-0.00993354192089405
sba(innWeight
NNWeight
p462
(dp463
g3
F-0.025574218748881362
sba(innWeight
NNWeight
p464
(dp465
g3
F-0.03378672685555887
sba(innWeight
NNWeight
p466
(dp467
g3
F-0.03843974598033784
sba(innWeight
NNWeight
p468
(dp469
g3
F-0.020881638369595574
sba(innWeight
NNWeight
p470
(dp471
g3
F0.017651526296164666
sba(innWeight
NNWeight
p472
(dp473
g3
F-0.04390225156912368
sba(innWeight
NNWeight
p474
(dp475
g3
F-0.11873145677109571
sba(innWeight
NNWeight
p476
(dp477
g3
F0.03173887931187578
sba(innWeight
NNWeight
p478
(dp479
g3
F0.021055712829925976
sba(innWeight
NNWeight
p480
(dp481
g3
F0.04092290634334584
sba(innWeight
NNWeight
p482
(dp483
g3
F0.05350500022338228
sba(innWeight
NNWeight
p484
(dp485
g3
F-0.029417739326136044
sba(innWeight
NNWeight
p486
(dp487
g3
F0.021324611256120916
sba(innWeight
NNWeight
p488
(dp489
g3
F0.019961573071906283
sba(innWeight
NNWeight
p490
(dp491
g3
F-0.025127017892111175
sba(innWeight
NNWeight
p492
(dp493
g3
F0.016753798265507897
sba(innWeight
NNWeight
p494
(dp495
g3
F-0.0006315430155126369
sba(innWeight
NNWeight
p496
(dp497
g3
F0.016865855987998342
sba(innWeight
NNWeight
p498
(dp499
g3
F0.028403068448035248
sba(innWeight
NNWeight
p500
(dp501
g3
F-0.06658543102091787
sba(innWeight
NNWeight
p502
(dp503
g3
F0.017601199049203157
sba(innWeight
NNWeight
p504
(dp505
g3
F-0.0067508721138096065
sba(innWeight
NNWeight
p506
(dp507
g3
F0.06529236628375322
sba(innWeight
NNWeight
p508
(dp509
g3
F0.022784704593684507
sba(innWeight
NNWeight
p510
(dp511
g3
F-0.06055810846188264
sba(innWeight
NNWeight
p512
(dp513
g3
F0.032667523234945296
sba(innWeight
NNWeight
p514
(dp515
g3
F0.052612398677294496
sba(innWeight
NNWeight
p516
(dp517
g3
F-0.008175429893684817
sba(innWeight
NNWeight
p518
(dp519
g3
F0.012970306221575518
sba(innWeight
NNWeight
p520
(dp521
g3
F0.03673534283353908
sba(innWeight
NNWeight
p522
(dp523
g3
F-0.016566438304981147
sba(innWeight
NNWeight
p524
(dp525
g3
F0.06953556445892402
sba(innWeight
NNWeight
p526
(dp527
g3
F-0.006993142895231012
sba(innWeight
NNWeight
p528
(dp529
g3
F-0.012525787621215284
sba(innWeight
NNWeight
p530
(dp531
g3
F0.026704315589549867
sba(innWeight
NNWeight
p532
(dp533
g3
F-0.03774197206851381
sba(innWeight
NNWeight
p534
(dp535
g3
F-0.03605724678860165
sba(innWeight
NNWeight
p536
(dp537
g3
F0.025140314801136127
sba(innWeight
NNWeight
p538
(dp539
g3
F0.014710638632361876
sba(innWeight
NNWeight
p540
(dp541
g3
F0.07383089952244613
sba(innWeight
NNWeight
p542
(dp543
g3
F-0.012842253361271452
sba(innWeight
NNWeight
p544
(dp545
g3
F-0.01999187567328111
sba(innWeight
NNWeight
p546
(dp547
g3
F-0.020222950077384182
sba(innWeight
NNWeight
p548
(dp549
g3
F-0.020190531704244206
sba(innWeight
NNWeight
p550
(dp551
g3
F-0.030566172496599354
sba(innWeight
NNWeight
p552
(dp553
g3
F0.06525290775635258
sba(innWeight
NNWeight
p554
(dp555
g3
F-0.040715375732837365
sba(innWeight
NNWeight
p556
(dp557
g3
F-0.0005784538937360799
sba(innWeight
NNWeight
p558
(dp559
g3
F-0.0012284086296152788
sba(innWeight
NNWeight
p560
(dp561
g3
F-0.028809738367783295
sba(innWeight
NNWeight
p562
(dp563
g3
F0.06176384392103393
sba(innWeight
NNWeight
p564
(dp565
g3
F-0.0025283359713164943
sba(innWeight
NNWeight
p566
(dp567
g3
F-0.0038487463486905887
sba(innWeight
NNWeight
p568
(dp569
g3
F-0.01951754832166213
sba(innWeight
NNWeight
p570
(dp571
g3
F-0.01650239954323316
sba(innWeight
NNWeight
p572
(dp573
g3
F0.019050129489336508
sba(innWeight
NNWeight
p574
(dp575
g3
F0.041844054251134646
sba(innWeight
NNWeight
p576
(dp577
g3
F0.027352439146527654
sba(innWeight
NNWeight
p578
(dp579
g3
F0.04336544988617299
sba(innWeight
NNWeight
p580
(dp581
g3
F0.04468927789638874
sba(innWeight
NNWeight
p582
(dp583
g3
F-0.034078015880387946
sba(innWeight
NNWeight
p584
(dp585
g3
F-0.00318999463076355
sba(innWeight
NNWeight
p586
(dp587
g3
F-0.026977752007079477
sba(innWeight
NNWeight
p588
(dp589
g3
F-4.4555409071195e-05
sba(innWeight
NNWeight
p590
(dp591
g3
F-0.05493457267655672
sba(innWeight
NNWeight
p592
(dp593
g3
F0.03323668550787394
sba(innWeight
NNWeight
p594
(dp595
g3
F0.012256669130674476
sba(innWeight
NNWeight
p596
(dp597
g3
F-0.07591105647490468
sba(innWeight
NNWeight
p598
(dp599
g3
F-0.06894824877101596
sba(innWeight
NNWeight
p600
(dp601
g3
F0.05497735609877523
sba(innWeight
NNWeight
p602
(dp603
g3
F-0.01839537981564268
sba(innWeight
NNWeight
p604
(dp605
g3
F0.007727054312409163
sba(innWeight
NNWeight
p606
(dp607
g3
F0.029026076786699856
sba(innWeight
NNWeight
p608
(dp609
g3
F-0.06395566029576223
sba(innWeight
NNWeight
p610
(dp611
g3
F-0.008766456145560306
sba(innWeight
NNWeight
p612
(dp613
g3
F-0.03189416203187959
sba(innWeight
NNWeight
p614
(dp615
g3
F-0.060526450790895914
sba(innWeight
NNWeight
p616
(dp617
g3
F0.026000476992364175
sba(innWeight
NNWeight
p618
(dp619
g3
F0.007090402787916132
sba(innWeight
NNWeight
p620
(dp621
g3
F-0.03361303674309521
sba(innWeight
NNWeight
p622
(dp623
g3
F-0.022849273444289872
sba(innWeight
NNWeight
p624
(dp625
g3
F0.03703288910558421
sba(innWeight
NNWeight
p626
(dp627
g3
F0.05295630036478166
sba(innWeight
NNWeight
p628
(dp629
g3
F-0.045043906886956205
sba(innWeight
NNWeight
p630
(dp631
g3
F0.07193257459604172
sba(innWeight
NNWeight
p632
(dp633
g3
F-0.06364775007155414
sba(innWeight
NNWeight
p634
(dp635
g3
F-0.06048107697704176
sba(innWeight
NNWeight
p636
(dp637
g3
F0.008270962559267958
sba(innWeight
NNWeight
p638
(dp639
g3
F-0.036853149940075845
sba(innWeight
NNWeight
p640
(dp641
g3
F0.008498287333215691
sba(innWeight
NNWeight
p642
(dp643
g3
F-0.08237661568825386
sba(innWeight
NNWeight
p644
(dp645
g3
F0.015441238200752527
sba(innWeight
NNWeight
p646
(dp647
g3
F0.02925353482433776
sba(innWeight
NNWeight
p648
(dp649
g3
F0.02356144973731789
sba(innWeight
NNWeight
p650
(dp651
g3
F0.027070129642975775
sba(innWeight
NNWeight
p652
(dp653
g3
F-0.03335875046191518
sba(innWeight
NNWeight
p654
(dp655
g3
F-0.038646254094886916
sba(innWeight
NNWeight
p656
(dp657
g3
F-0.022428941858076906
sba(innWeight
NNWeight
p658
(dp659
g3
F0.0343497481639306
sba(innWeight
NNWeight
p660
(dp661
g3
F-0.04569427284451171
sba(innWeight
NNWeight
p662
(dp663
g3
F0.05351363159107643
sba(innWeight
NNWeight
p664
(dp665
g3
F-0.006388132975165881
sba(innWeight
NNWeight
p666
(dp667
g3
F-0.022834125935750526
sba(innWeight
NNWeight
p668
(dp669
g3
F0.022695980097819646
sba(innWeight
NNWeight
p670
(dp671
g3
F-0.05461155447788893
sba(innWeight
NNWeight
p672
(dp673
g3
F0.03886124042575303
sba(innWeight
NNWeight
p674
(dp675
g3
F-0.04881997706454147
sba(innWeight
NNWeight
p676
(dp677
g3
F-0.04385242628420342
sba(innWeight
NNWeight
p678
(dp679
g3
F-0.014277281054729963
sba(innWeight
NNWeight
p680
(dp681
g3
F-0.02944618130888865
sba(innWeight
NNWeight
p682
(dp683
g3
F-0.017208188282402236
sba(innWeight
NNWeight
p684
(dp685
g3
F0.004503210009374096
sba(innWeight
NNWeight
p686
(dp687
g3
F-0.021349165390386823
sba(innWeight
NNWeight
p688
(dp689
g3
F0.01348421915590037
sba(innWeight
NNWeight
p690
(dp691
g3
F-0.02374252103694384
sba(innWeight
NNWeight
p692
(dp693
g3
F0.05189441946953555
sba(innWeight
NNWeight
p694
(dp695
g3
F0.07448941195857975
sba(innWeight
NNWeight
p696
(dp697
g3
F-0.05331602340447761
sba(innWeight
NNWeight
p698
(dp699
g3
F-0.053823985343368075
sba(innWeight
NNWeight
p700
(dp701
g3
F-0.010810271560263408
sba(innWeight
NNWeight
p702
(dp703
g3
F0.022891354503991355
sba(innWeight
NNWeight
p704
(dp705
g3
F0.03248658817623795
sba(innWeight
NNWeight
p706
(dp707
g3
F0.037619200388760016
sba(innWeight
NNWeight
p708
(dp709
g3
F0.013786130229069883
sba(innWeight
NNWeight
p710
(dp711
g3
F-0.02812224572723068
sba(innWeight
NNWeight
p712
(dp713
g3
F0.007467475234319555
sba(innWeight
NNWeight
p714
(dp715
g3
F0.05774504889788131
sba(innWeight
NNWeight
p716
(dp717
g3
F0.024490226016779047
sba(innWeight
NNWeight
p718
(dp719
g3
F-0.026436570665226224
sba(innWeight
NNWeight
p720
(dp721
g3
F-0.0037199158439605493
sba(innWeight
NNWeight
p722
(dp723
g3
F0.047261128323232544
sba(innWeight
NNWeight
p724
(dp725
g3
F-0.009223581540934292
sba(innWeight
NNWeight
p726
(dp727
g3
F0.01805743795402784
sba(innWeight
NNWeight
p728
(dp729
g3
F-0.009318675218441657
sba(innWeight
NNWeight
p730
(dp731
g3
F0.04215140313422036
sba(innWeight
NNWeight
p732
(dp733
g3
F0.04430209866690295
sba(innWeight
NNWeight
p734
(dp735
g3
F0.03126591377185694
sba(innWeight
NNWeight
p736
(dp737
g3
F0.04216451017206086
sba(innWeight
NNWeight
p738
(dp739
g3
F0.028954945744921662
sba(innWeight
NNWeight
p740
(dp741
g3
F-0.05814653617432526
sba(innWeight
NNWeight
p742
(dp743
g3
F0.05241014168338507
sba(innWeight
NNWeight
p744
(dp745
g3
F0.021922664643502975
sba(innWeight
NNWeight
p746
(dp747
g3
F0.10404049561048632
sba(innWeight
NNWeight
p748
(dp749
g3
F0.06883621470073532
sba(innWeight
NNWeight
p750
(dp751
g3
F-0.01554722916654811
sba(innWeight
NNWeight
p752
(dp753
g3
F-0.04847779138957348
sba(innWeight
NNWeight
p754
(dp755
g3
F-0.023790627197338203
sba(innWeight
NNWeight
p756
(dp757
g3
F-0.05882886324151275
sba(innWeight
NNWeight
p758
(dp759
g3
F-0.03647712652701565
sba(innWeight
NNWeight
p760
(dp761
g3
F0.0033020169091484996
sba(innWeight
NNWeight
p762
(dp763
g3
F-0.019974389098373253
sba(innWeight
NNWeight
p764
(dp765
g3
F0.011016475870312724
sba(innWeight
NNWeight
p766
(dp767
g3
F0.02900933597712837
sba(innWeight
NNWeight
p768
(dp769
g3
F-0.0237458284959654
sba(innWeight
NNWeight
p770
(dp771
g3
F-0.027349911768739032
sba(innWeight
NNWeight
p772
(dp773
g3
F0.03916795230755893
sba(innWeight
NNWeight
p774
(dp775
g3
F-0.012036147408645425
sba(innWeight
NNWeight
p776
(dp777
g3
F0.051359597917611674
sba(innWeight
NNWeight
p778
(dp779
g3
F-0.0386785864945205
sba(innWeight
NNWeight
p780
(dp781
g3
F0.02864980529180788
sba(innWeight
NNWeight
p782
(dp783
g3
F0.014158676944833562
sba(innWeight
NNWeight
p784
(dp785
g3
F-0.008035861765540142
sba(innWeight
NNWeight
p786
(dp787
g3
F0.02224749034799306
sba(innWeight
NNWeight
p788
(dp789
g3
F-0.05140432018959402
sba(innWeight
NNWeight
p790
(dp791
g3
F0.01777394772168721
sba(innWeight
NNWeight
p792
(dp793
g3
F0.0004519266790560262
sba(innWeight
NNWeight
p794
(dp795
g3
F-0.021277086039426726
sba(innWeight
NNWeight
p796
(dp797
g3
F0.02012723729282054
sba(innWeight
NNWeight
p798
(dp799
g3
F0.003689106888876038
sba(innWeight
NNWeight
p800
(dp801
g3
F-0.013818957280192175
sba(innWeight
NNWeight
p802
(dp803
g3
F-0.033018814871098603
sba(innWeight
NNWeight
p804
(dp805
g3
F-0.00506569934545836
sba(innWeight
NNWeight
p806
(dp807
g3
F0.0011334357266897666
sba(innWeight
NNWeight
p808
(dp809
g3
F0.025204169351678074
sba(innWeight
NNWeight
p810
(dp811
g3
F-0.08028537820165838
sba(innWeight
NNWeight
p812
(dp813
g3
F0.0417064650094973
sba(innWeight
NNWeight
p814
(dp815
g3
F0.06191255890248371
sba(innWeight
NNWeight
p816
(dp817
g3
F-0.013342653771596184
sba(innWeight
NNWeight
p818
(dp819
g3
F0.008315509186814332
sba(innWeight
NNWeight
p820
(dp821
g3
F-0.02807311315764486
sba(innWeight
NNWeight
p822
(dp823
g3
F-0.014571031457652935
sba(innWeight
NNWeight
p824
(dp825
g3
F0.016225962022543776
sba(innWeight
NNWeight
p826
(dp827
g3
F-0.009065030574280698
sba(innWeight
NNWeight
p828
(dp829
g3
F-0.03301607065495097
sba(innWeight
NNWeight
p830
(dp831
g3
F0.029057473057609275
sba(innWeight
NNWeight
p832
(dp833
g3
F0.042276722749322634
sba(innWeight
NNWeight
p834
(dp835
g3
F-0.027310838067501987
sba(innWeight
NNWeight
p836
(dp837
g3
F0.02715531823580611
sba(innWeight
NNWeight
p838
(dp839
g3
F-0.018519548820663475
sba(innWeight
NNWeight
p840
(dp841
g3
F0.02960309788928416
sba(innWeight
NNWeight
p842
(dp843
g3
F-0.039747544092184096
sba(innWeight
NNWeight
p844
(dp845
g3
F-0.038658567377150385
sba(innWeight
NNWeight
p846
(dp847
g3
F-0.015583025349543906
sba(innWeight
NNWeight
p848
(dp849
g3
F0.015953574636916015
sba(innWeight
NNWeight
p850
(dp851
g3
F0.028109858644490428
sba(innWeight
NNWeight
p852
(dp853
g3
F-0.020975529781670735
sba(innWeight
NNWeight
p854
(dp855
g3
F-0.033056490043924414
sba(innWeight
NNWeight
p856
(dp857
g3
F0.09141809251243896
sba(innWeight
NNWeight
p858
(dp859
g3
F0.03232997117960766
sba(innWeight
NNWeight
p860
(dp861
g3
F0.021807342650401126
sba(innWeight
NNWeight
p862
(dp863
g3
F-0.04665122495788772
sba(innWeight
NNWeight
p864
(dp865
g3
F-0.037761132498931774
sba(innWeight
NNWeight
p866
(dp867
g3
F-0.004759670785247938
sba(innWeight
NNWeight
p868
(dp869
g3
F-0.015358878249179943
sba(innWeight
NNWeight
p870
(dp871
g3
F0.05686122182419416
sba(innWeight
NNWeight
p872
(dp873
g3
F0.03960686742063344
sba(innWeight
NNWeight
p874
(dp875
g3
F-0.0008358957606541036
sba(innWeight
NNWeight
p876
(dp877
g3
F0.017406734182373332
sba(innWeight
NNWeight
p878
(dp879
g3
F-0.030332538973660724
sba(innWeight
NNWeight
p880
(dp881
g3
F-0.046219374375031964
sba(innWeight
NNWeight
p882
(dp883
g3
F-0.08039681423662509
sba(innWeight
NNWeight
p884
(dp885
g3
F0.04668135274812975
sba(innWeight
NNWeight
p886
(dp887
g3
F-0.045022907859950494
sba(innWeight
NNWeight
p888
(dp889
g3
F-0.07519378207451359
sba(innWeight
NNWeight
p890
(dp891
g3
F0.0072991195498403934
sba(innWeight
NNWeight
p892
(dp893
g3
F-0.03615900206949272
sba(innWeight
NNWeight
p894
(dp895
g3
F0.01067432279884254
sba(innWeight
NNWeight
p896
(dp897
g3
F-0.03759885780722545
sba(innWeight
NNWeight
p898
(dp899
g3
F-0.01036239000784938
sba(innWeight
NNWeight
p900
(dp901
g3
F-0.0006271588346454654
sba(innWeight
NNWeight
p902
(dp903
g3
F0.0065950622346941205
sba(innWeight
NNWeight
p904
(dp905
g3
F-0.05853612357312159
sba(innWeight
NNWeight
p906
(dp907
g3
F0.02097502273428025
sba(innWeight
NNWeight
p908
(dp909
g3
F0.057441955685552104
sba(innWeight
NNWeight
p910
(dp911
g3
F0.04255661276309469
sba(innWeight
NNWeight
p912
(dp913
g3
F0.010675238048654315
sba(innWeight
NNWeight
p914
(dp915
g3
F-0.003636004439824722
sba(innWeight
NNWeight
p916
(dp917
g3
F0.02545728331837647
sba(innWeight
NNWeight
p918
(dp919
g3
F-0.0046661222878893035
sba(innWeight
NNWeight
p920
(dp921
g3
F-0.0070927673673665025
sba(innWeight
NNWeight
p922
(dp923
g3
F0.014179997941607698
sba(innWeight
NNWeight
p924
(dp925
g3
F0.07140327373088862
sba(innWeight
NNWeight
p926
(dp927
g3
F0.046128507158346016
sba(innWeight
NNWeight
p928
(dp929
g3
F-0.02060807598671056
sba(innWeight
NNWeight
p930
(dp931
g3
F-0.0021367368698056127
sba(innWeight
NNWeight
p932
(dp933
g3
F-0.04577273458818174
sba(innWeight
NNWeight
p934
(dp935
g3
F0.030296174337592872
sba(innWeight
NNWeight
p936
(dp937
g3
F-0.004969197546278838
sba(innWeight
NNWeight
p938
(dp939
g3
F-0.04557168486245685
sba(innWeight
NNWeight
p940
(dp941
g3
F-0.0284833784987623
sba(innWeight
NNWeight
p942
(dp943
g3
F-0.013470971830552967
sba(innWeight
NNWeight
p944
(dp945
g3
F-0.017971983209482855
sba(innWeight
NNWeight
p946
(dp947
g3
F-0.02579647640234628
sba(innWeight
NNWeight
p948
(dp949
g3
F-0.0229504402424549
sba(innWeight
NNWeight
p950
(dp951
g3
F0.06017730548959212
sba(innWeight
NNWeight
p952
(dp953
g3
F0.003497833280260376
sba(innWeight
NNWeight
p954
(dp955
g3
F0.06837963188848167
sba(innWeight
NNWeight
p956
(dp957
g3
F0.008320374811560644
sba(innWeight
NNWeight
p958
(dp959
g3
F0.027152322019232844
sba(innWeight
NNWeight
p960
(dp961
g3
F-0.0014821922469734966
sba(innWeight
NNWeight
p962
(dp963
g3
F-0.06963993507066873
sba(innWeight
NNWeight
p964
(dp965
g3
F-0.022701232709283252
sba(innWeight
NNWeight
p966
(dp967
g3
F0.011956398457518436
sba(innWeight
NNWeight
p968
(dp969
g3
F0.019385185814399603
sba(innWeight
NNWeight
p970
(dp971
g3
F0.05264708764865997
sba(innWeight
NNWeight
p972
(dp973
g3
F-0.10427008466884435
sba(innWeight
NNWeight
p974
(dp975
g3
F-0.005790051745511592
sba(innWeight
NNWeight
p976
(dp977
g3
F-0.0005997005605127255
sba(innWeight
NNWeight
p978
(dp979
g3
F0.026743919762809345
sba(innWeight
NNWeight
p980
(dp981
g3
F-0.044817077617676025
sba(innWeight
NNWeight
p982
(dp983
g3
F0.008814820933955612
sba(innWeight
NNWeight
p984
(dp985
g3
F0.0022064534110494537
sba(innWeight
NNWeight
p986
(dp987
g3
F0.02982883968659648
sba(innWeight
NNWeight
p988
(dp989
g3
F-0.005244826358808279
sba(innWeight
NNWeight
p990
(dp991
g3
F0.029558604694678185
sba(innWeight
NNWeight
p992
(dp993
g3
F0.023478875720877545
sba(innWeight
NNWeight
p994
(dp995
g3
F0.03537081765908236
sba(innWeight
NNWeight
p996
(dp997
g3
F-0.015103088406737915
sba(innWeight
NNWeight
p998
(dp999
g3
F0.03539452214840092
sba(innWeight
NNWeight
p1000
(dp1001
g3
F-0.00983041354740622
sba(innWeight
NNWeight
p1002
(dp1003
g3
F-0.020921256385123686
sba(innWeight
NNWeight
p1004
(dp1005
g3
F-0.013827668513025252
sba(innWeight
NNWeight
p1006
(dp1007
g3
F-0.008964244999570594
sba(innWeight
NNWeight
p1008
(dp1009
g3
F0.009143404831828796
sba(innWeight
NNWeight
p1010
(dp1011
g3
F0.06041445365013164
sba(innWeight
NNWeight
p1012
(dp1013
g3
F-0.059009732612222233
sba(innWeight
NNWeight
p1014
(dp1015
g3
F-0.004603067675702966
sba(innWeight
NNWeight
p1016
(dp1017
g3
F-0.004368528412639945
sba(innWeight
NNWeight
p1018
(dp1019
g3
F-0.00017033939764951524
sba(innWeight
NNWeight
p1020
(dp1021
g3
F0.02624159092069756
sba(innWeight
NNWeight
p1022
(dp1023
g3
F-0.036781803905253166
sba(innWeight
NNWeight
p1024
(dp1025
g3
F0.04295310551560477
sba(innWeight
NNWeight
p1026
(dp1027
g3
F0.03323869675500058
sba(innWeight
NNWeight
p1028
(dp1029
g3
F-0.018378630562894627
sba(innWeight
NNWeight
p1030
(dp1031
g3
F0.04194068871678862
sba(innWeight
NNWeight
p1032
(dp1033
g3
F-0.05313756554188617
sba(innWeight
NNWeight
p1034
(dp1035
g3
F0.012654386062009424
sba(innWeight
NNWeight
p1036
(dp1037
g3
F-0.04953621889282194
sba(innWeight
NNWeight
p1038
(dp1039
g3
F-0.007122586878795207
sba(innWeight
NNWeight
p1040
(dp1041
g3
F0.05393347236657863
sba(innWeight
NNWeight
p1042
(dp1043
g3
F-0.002392200270696131
sba(innWeight
NNWeight
p1044
(dp1045
g3
F0.021325813251871883
sba(innWeight
NNWeight
p1046
(dp1047
g3
F-0.07308370841060488
sba(innWeight
NNWeight
p1048
(dp1049
g3
F0.06306941593675724
sba(innWeight
NNWeight
p1050
(dp1051
g3
F-0.06405121735258561
sba(innWeight
NNWeight
p1052
(dp1053
g3
F0.049963885481598996
sba(innWeight
NNWeight
p1054
(dp1055
g3
F-0.008367857334603565
sba(innWeight
NNWeight
p1056
(dp1057
g3
F-0.03359504652984463
sba(innWeight
NNWeight
p1058
(dp1059
g3
F-0.017341074509703753
sba(innWeight
NNWeight
p1060
(dp1061
g3
F-0.027537163905270556
sba(innWeight
NNWeight
p1062
(dp1063
g3
F0.03730686809159326
sba(innWeight
NNWeight
p1064
(dp1065
g3
F0.06368933941208717
sba(innWeight
NNWeight
p1066
(dp1067
g3
F0.019584347229637464
sba(innWeight
NNWeight
p1068
(dp1069
g3
F0.002964177003376152
sba(innWeight
NNWeight
p1070
(dp1071
g3
F-0.032850247381759186
sba(innWeight
NNWeight
p1072
(dp1073
g3
F-0.031606059833194894
sba(innWeight
NNWeight
p1074
(dp1075
g3
F0.007548726652265938
sba(innWeight
NNWeight
p1076
(dp1077
g3
F0.01589425600406558
sba(innWeight
NNWeight
p1078
(dp1079
g3
F-0.012006386574907438
sba(innWeight
NNWeight
p1080
(dp1081
g3
F-0.012752160463144686
sba(innWeight
NNWeight
p1082
(dp1083
g3
F-0.017217867633210683
sba(innWeight
NNWeight
p1084
(dp1085
g3
F-0.04600520935454047
sba(innWeight
NNWeight
p1086
(dp1087
g3
F0.0226572514616655
sba(innWeight
NNWeight
p1088
(dp1089
g3
F-0.02594969128251319
sba(innWeight
NNWeight
p1090
(dp1091
g3
F-0.032763535923681135
sba(innWeight
NNWeight
p1092
(dp1093
g3
F0.07079321145941189
sba(innWeight
NNWeight
p1094
(dp1095
g3
F-0.04276918191230301
sba(innWeight
NNWeight
p1096
(dp1097
g3
F-0.013835184259866025
sba(innWeight
NNWeight
p1098
(dp1099
g3
F-0.04398406622606185
sba(innWeight
NNWeight
p1100
(dp1101
g3
F-0.009851240790305936
sba(innWeight
NNWeight
p1102
(dp1103
g3
F-0.011669894499389594
sba(innWeight
NNWeight
p1104
(dp1105
g3
F-0.005984362083213406
sba(innWeight
NNWeight
p1106
(dp1107
g3
F0.051724240154625185
sba(innWeight
NNWeight
p1108
(dp1109
g3
F0.06026374499594212
sba(innWeight
NNWeight
p1110
(dp1111
g3
F0.03966095221721861
sba(innWeight
NNWeight
p1112
(dp1113
g3
F0.004365255362294144
sba(innWeight
NNWeight
p1114
(dp1115
g3
F0.047388090277460375
sba(innWeight
NNWeight
p1116
(dp1117
g3
F0.0038394047712295115
sba(innWeight
NNWeight
p1118
(dp1119
g3
F-0.0475859600177148
sba(innWeight
NNWeight
p1120
(dp1121
g3
F-0.02571388850131693
sba(innWeight
NNWeight
p1122
(dp1123
g3
F0.007270955941634615
sba(innWeight
NNWeight
p1124
(dp1125
g3
F-0.071594054428178
sba(innWeight
NNWeight
p1126
(dp1127
g3
F-0.0419026445770641
sba(innWeight
NNWeight
p1128
(dp1129
g3
F0.04049782551514516
sba(innWeight
NNWeight
p1130
(dp1131
g3
F-0.02599640336677446
sba(innWeight
NNWeight
p1132
(dp1133
g3
F0.013351252760140143
sba(innWeight
NNWeight
p1134
(dp1135
g3
F0.005220621956085087
sba(innWeight
NNWeight
p1136
(dp1137
g3
F0.027580962053918273
sba(innWeight
NNWeight
p1138
(dp1139
g3
F0.05587012587909282
sba(innWeight
NNWeight
p1140
(dp1141
g3
F-0.01879101648007203
sba(innWeight
NNWeight
p1142
(dp1143
g3
F0.04050505799652538
sba(innWeight
NNWeight
p1144
(dp1145
g3
F-0.02540264474674995
sba(innWeight
NNWeight
p1146
(dp1147
g3
F-0.02097532465991626
sba(innWeight
NNWeight
p1148
(dp1149
g3
F0.022535371471314968
sba(innWeight
NNWeight
p1150
(dp1151
g3
F0.015702927992398915
sba(innWeight
NNWeight
p1152
(dp1153
g3
F0.0530541345782689
sba(innWeight
NNWeight
p1154
(dp1155
g3
F-0.08931584774792303
sba(innWeight
NNWeight
p1156
(dp1157
g3
F-0.004682806677591455
sba(innWeight
NNWeight
p1158
(dp1159
g3
F-0.043742025287385786
sba(innWeight
NNWeight
p1160
(dp1161
g3
F-0.01624648960959507
sba(innWeight
NNWeight
p1162
(dp1163
g3
F0.02864449625443827
sba(innWeight
NNWeight
p1164
(dp1165
g3
F0.010381113671466519
sba(innWeight
NNWeight
p1166
(dp1167
g3
F-0.03699085182954651
sba(innWeight
NNWeight
p1168
(dp1169
g3
F0.03825448538709441
sba(innWeight
NNWeight
p1170
(dp1171
g3
F0.010268439250037247
sba(innWeight
NNWeight
p1172
(dp1173
g3
F-0.02526489336429581
sba(innWeight
NNWeight
p1174
(dp1175
g3
F-0.04343328152527894
sba(innWeight
NNWeight
p1176
(dp1177
g3
F0.05575287300320308
sba(innWeight
NNWeight
p1178
(dp1179
g3
F-0.009168969179457677
sba(innWeight
NNWeight
p1180
(dp1181
g3
F0.0598417308143583
sba(innWeight
NNWeight
p1182
(dp1183
g3
F0.04341978680984675
sba(innWeight
NNWeight
p1184
(dp1185
g3
F0.021044612939092378
sba(innWeight
NNWeight
p1186
(dp1187
g3
F-0.0016723713281567676
sba(innWeight
NNWeight
p1188
(dp1189
g3
F-0.047915165005176584
sba(innWeight
NNWeight
p1190
(dp1191
g3
F-0.0066948245408587495
sba(innWeight
NNWeight
p1192
(dp1193
g3
F0.04707518545111762
sba(innWeight
NNWeight
p1194
(dp1195
g3
F-0.01136303926422058
sba(innWeight
NNWeight
p1196
(dp1197
g3
F-0.01666064671756776
sba(innWeight
NNWeight
p1198
(dp1199
g3
F0.012538740854462483
sba(innWeight
NNWeight
p1200
(dp1201
g3
F0.010058720482050488
sba(innWeight
NNWeight
p1202
(dp1203
g3
F-0.018108990948429028
sba(innWeight
NNWeight
p1204
(dp1205
g3
F0.0077548702982580976
sba(innWeight
NNWeight
p1206
(dp1207
g3
F0.03389125690913949
sba(innWeight
NNWeight
p1208
(dp1209
g3
F0.007475762920406565
sba(innWeight
NNWeight
p1210
(dp1211
g3
F-0.053474122173009536
sba(innWeight
NNWeight
p1212
(dp1213
g3
F-0.05159887569778193
sba(innWeight
NNWeight
p1214
(dp1215
g3
F-0.05274789159038466
sba(innWeight
NNWeight
p1216
(dp1217
g3
F-0.07369494030879144
sba(innWeight
NNWeight
p1218
(dp1219
g3
F-0.058587816281590044
sba(innWeight
NNWeight
p1220
(dp1221
g3
F-0.05214270838534589
sba(innWeight
NNWeight
p1222
(dp1223
g3
F0.03740358786915538
sba(innWeight
NNWeight
p1224
(dp1225
g3
F0.033827969131281686
sba(innWeight
NNWeight
p1226
(dp1227
g3
F-0.005008673660877856
sba(innWeight
NNWeight
p1228
(dp1229
g3
F-0.060647131432448036
sba(innWeight
NNWeight
p1230
(dp1231
g3
F-0.07073288051849302
sba(innWeight
NNWeight
p1232
(dp1233
g3
F-0.04292754936886579
sba(innWeight
NNWeight
p1234
(dp1235
g3
F-0.012989479046875184
sba(innWeight
NNWeight
p1236
(dp1237
g3
F-0.007578495264776148
sba(innWeight
NNWeight
p1238
(dp1239
g3
F-0.014752732468799597
sba(innWeight
NNWeight
p1240
(dp1241
g3
F0.027830214605194102
sba(innWeight
NNWeight
p1242
(dp1243
g3
F-0.03502651324759571
sba(innWeight
NNWeight
p1244
(dp1245
g3
F-0.02729152985116352
sba(innWeight
NNWeight
p1246
(dp1247
g3
F-0.06692302885871437
sba(innWeight
NNWeight
p1248
(dp1249
g3
F0.014198322121617408
sba(innWeight
NNWeight
p1250
(dp1251
g3
F0.06013639295276864
sba(innWeight
NNWeight
p1252
(dp1253
g3
F0.03717343462554244
sba(innWeight
NNWeight
p1254
(dp1255
g3
F0.05706185781751463
sba(innWeight
NNWeight
p1256
(dp1257
g3
F0.046977450202085935
sba(innWeight
NNWeight
p1258
(dp1259
g3
F0.0374081670956858
sba(innWeight
NNWeight
p1260
(dp1261
g3
F0.0040231431871125874
sba(innWeight
NNWeight
p1262
(dp1263
g3
F-0.05050148603250649
sba(innWeight
NNWeight
p1264
(dp1265
g3
F0.0033367168164425694
sba(innWeight
NNWeight
p1266
(dp1267
g3
F-0.038481439910617664
sba(innWeight
NNWeight
p1268
(dp1269
g3
F-0.07893230810998768
sba(innWeight
NNWeight
p1270
(dp1271
g3
F0.010585395444136341
sba(innWeight
NNWeight
p1272
(dp1273
g3
F-0.025389170739162848
sba(innWeight
NNWeight
p1274
(dp1275
g3
F0.05282175020037943
sba(innWeight
NNWeight
p1276
(dp1277
g3
F-0.016485675459106706
sba(innWeight
NNWeight
p1278
(dp1279
g3
F0.04423460484812877
sba(innWeight
NNWeight
p1280
(dp1281
g3
F0.0064240406315243005
sba(innWeight
NNWeight
p1282
(dp1283
g3
F0.03286185998073212
sba(innWeight
NNWeight
p1284
(dp1285
g3
F0.04339830450031911
sba(innWeight
NNWeight
p1286
(dp1287
g3
F-0.011844061367242871
sba(innWeight
NNWeight
p1288
(dp1289
g3
F0.013319528652509436
sba(innWeight
NNWeight
p1290
(dp1291
g3
F-0.010258754486510197
sba(innWeight
NNWeight
p1292
(dp1293
g3
F-0.09001770113106537
sba(innWeight
NNWeight
p1294
(dp1295
g3
F0.05582359842484323
sba(innWeight
NNWeight
p1296
(dp1297
g3
F0.017146848146895943
sba(innWeight
NNWeight
p1298
(dp1299
g3
F-0.039415021036857865
sba(innWeight
NNWeight
p1300
(dp1301
g3
F0.016898347467688802
sba(innWeight
NNWeight
p1302
(dp1303
g3
F0.0836460161746447
sba(innWeight
NNWeight
p1304
(dp1305
g3
F0.014719877822336273
sba(innWeight
NNWeight
p1306
(dp1307
g3
F0.05863967551911284
sba(innWeight
NNWeight
p1308
(dp1309
g3
F-0.06145569818319686
sba(innWeight
NNWeight
p1310
(dp1311
g3
F0.01656347175326099
sba(innWeight
NNWeight
p1312
(dp1313
g3
F-0.03764119267739822
sba(innWeight
NNWeight
p1314
(dp1315
g3
F0.013332715424894155
sba(innWeight
NNWeight
p1316
(dp1317
g3
F0.06577089736566866
sba(innWeight
NNWeight
p1318
(dp1319
g3
F-0.0390984384653578
sba(innWeight
NNWeight
p1320
(dp1321
g3
F-0.04120223579603442
sba(innWeight
NNWeight
p1322
(dp1323
g3
F0.018464819290181383
sba(innWeight
NNWeight
p1324
(dp1325
g3
F0.005801118474674265
sba(innWeight
NNWeight
p1326
(dp1327
g3
F-0.0022539962740481534
sba(innWeight
NNWeight
p1328
(dp1329
g3
F0.0014848727463099764
sba(innWeight
NNWeight
p1330
(dp1331
g3
F0.030247350124437307
sba(innWeight
NNWeight
p1332
(dp1333
g3
F0.043032997007511065
sba(innWeight
NNWeight
p1334
(dp1335
g3
F-0.039859386175460705
sba(innWeight
NNWeight
p1336
(dp1337
g3
F-0.05844827733704245
sba(innWeight
NNWeight
p1338
(dp1339
g3
F0.012106128583812745
sba(innWeight
NNWeight
p1340
(dp1341
g3
F0.07097294579154614
sba(innWeight
NNWeight
p1342
(dp1343
g3
F0.025686672672532607
sba(innWeight
NNWeight
p1344
(dp1345
g3
F-0.04534448079003234
sba(innWeight
NNWeight
p1346
(dp1347
g3
F-0.009416115197406316
sba(innWeight
NNWeight
p1348
(dp1349
g3
F0.04202283155186792
sba(innWeight
NNWeight
p1350
(dp1351
g3
F0.036122718248728876
sba(innWeight
NNWeight
p1352
(dp1353
g3
F-0.01515476842591157
sba(innWeight
NNWeight
p1354
(dp1355
g3
F0.02489242622881611
sba(innWeight
NNWeight
p1356
(dp1357
g3
F-0.020008801391404738
sba(innWeight
NNWeight
p1358
(dp1359
g3
F0.008600336364900096
sba(innWeight
NNWeight
p1360
(dp1361
g3
F-0.03315510709120121
sba(innWeight
NNWeight
p1362
(dp1363
g3
F0.000544249646450353
sba(innWeight
NNWeight
p1364
(dp1365
g3
F0.005155050981471986
sba(innWeight
NNWeight
p1366
(dp1367
g3
F0.04963488998993397
sba(innWeight
NNWeight
p1368
(dp1369
g3
F0.011081562915835395
sba(innWeight
NNWeight
p1370
(dp1371
g3
F0.006090726985670103
sba(innWeight
NNWeight
p1372
(dp1373
g3
F-0.022914492567938042
sba(innWeight
NNWeight
p1374
(dp1375
g3
F-0.00171198234051776
sba(innWeight
NNWeight
p1376
(dp1377
g3
F0.0014818655899500014
sba(innWeight
NNWeight
p1378
(dp1379
g3
F0.010640590279006705
sba(innWeight
NNWeight
p1380
(dp1381
g3
F0.001178195987318097
sba(innWeight
NNWeight
p1382
(dp1383
g3
F0.006643877693624565
sba(innWeight
NNWeight
p1384
(dp1385
g3
F0.020417293042513666
sba(innWeight
NNWeight
p1386
(dp1387
g3
F0.020430915684514456
sba(innWeight
NNWeight
p1388
(dp1389
g3
F0.07275819398831103
sba(innWeight
NNWeight
p1390
(dp1391
g3
F-0.005908636812302113
sba(innWeight
NNWeight
p1392
(dp1393
g3
F0.03918635152657706
sba(innWeight
NNWeight
p1394
(dp1395
g3
F0.05000491594303001
sba(innWeight
NNWeight
p1396
(dp1397
g3
F-0.02785503149781724
sba(innWeight
NNWeight
p1398
(dp1399
g3
F-0.0356597198470163
sba(innWeight
NNWeight
p1400
(dp1401
g3
F-0.025302986900175493
sba(innWeight
NNWeight
p1402
(dp1403
g3
F-0.04021626579280838
sba(innWeight
NNWeight
p1404
(dp1405
g3
F-0.07592050724505431
sba(innWeight
NNWeight
p1406
(dp1407
g3
F-0.00230935262545544
sba(innWeight
NNWeight
p1408
(dp1409
g3
F-0.007918186497674258
sba(innWeight
NNWeight
p1410
(dp1411
g3
F0.033747403987300105
sba(innWeight
NNWeight
p1412
(dp1413
g3
F-0.024757763616977214
sba(innWeight
NNWeight
p1414
(dp1415
g3
F0.04055098375659298
sba(innWeight
NNWeight
p1416
(dp1417
g3
F-0.0479766707191199
sba(innWeight
NNWeight
p1418
(dp1419
g3
F0.042142978076041254
sba(innWeight
NNWeight
p1420
(dp1421
g3
F-0.05849280838555541
sba(innWeight
NNWeight
p1422
(dp1423
g3
F0.02099487455375153
sba(innWeight
NNWeight
p1424
(dp1425
g3
F-0.027488913941235538
sba(innWeight
NNWeight
p1426
(dp1427
g3
F0.02820115835728536
sba(innWeight
NNWeight
p1428
(dp1429
g3
F-0.011026727459473756
sba(innWeight
NNWeight
p1430
(dp1431
g3
F0.00040416387520815934
sba(innWeight
NNWeight
p1432
(dp1433
g3
F0.012747548110082664
sba(innWeight
NNWeight
p1434
(dp1435
g3
F0.021944308078154992
sba(innWeight
NNWeight
p1436
(dp1437
g3
F-0.03978220215698712
sba(innWeight
NNWeight
p1438
(dp1439
g3
F0.051730394556338724
sba(innWeight
NNWeight
p1440
(dp1441
g3
F-0.005879520582781585
sba(innWeight
NNWeight
p1442
(dp1443
g3
F-0.048930921391696434
sba(innWeight
NNWeight
p1444
(dp1445
g3
F0.025236525113887475
sba(innWeight
NNWeight
p1446
(dp1447
g3
F0.02634166981384944
sba(innWeight
NNWeight
p1448
(dp1449
g3
F0.0036756316904976824
sba(innWeight
NNWeight
p1450
(dp1451
g3
F0.041800153988342255
sba(innWeight
NNWeight
p1452
(dp1453
g3
F0.01651389504156387
sba(innWeight
NNWeight
p1454
(dp1455
g3
F0.0031992454132415546
sba(innWeight
NNWeight
p1456
(dp1457
g3
F-0.0759866007997049
sba(innWeight
NNWeight
p1458
(dp1459
g3
F-0.003192790884708083
sba(innWeight
NNWeight
p1460
(dp1461
g3
F-0.017140464494499744
sba(innWeight
NNWeight
p1462
(dp1463
g3
F0.02729674162262759
sba(innWeight
NNWeight
p1464
(dp1465
g3
F-0.021373307100024344
sba(innWeight
NNWeight
p1466
(dp1467
g3
F-0.004776544444422136
sba(innWeight
NNWeight
p1468
(dp1469
g3
F0.049839227965698056
sba(innWeight
NNWeight
p1470
(dp1471
g3
F0.0054751667291473615
sba(innWeight
NNWeight
p1472
(dp1473
g3
F0.0035005896227999233
sba(innWeight
NNWeight
p1474
(dp1475
g3
F-0.03185916500500088
sba(innWeight
NNWeight
p1476
(dp1477
g3
F0.01943500326753923
sba(innWeight
NNWeight
p1478
(dp1479
g3
F-0.013571030178459776
sba(innWeight
NNWeight
p1480
(dp1481
g3
F-0.028702738874056413
sba(innWeight
NNWeight
p1482
(dp1483
g3
F-0.07365941554443224
sba(innWeight
NNWeight
p1484
(dp1485
g3
F-0.04684970371844245
sba(innWeight
NNWeight
p1486
(dp1487
g3
F0.04090854573935726
sba(innWeight
NNWeight
p1488
(dp1489
g3
F0.03360115253728358
sba(innWeight
NNWeight
p1490
(dp1491
g3
F-0.0077839387959408885
sba(innWeight
NNWeight
p1492
(dp1493
g3
F-0.027279445767363707
sba(innWeight
NNWeight
p1494
(dp1495
g3
F0.017278568625281546
sba(innWeight
NNWeight
p1496
(dp1497
g3
F-0.010158623969589024
sba(innWeight
NNWeight
p1498
(dp1499
g3
F0.014190228551004372
sba(innWeight
NNWeight
p1500
(dp1501
g3
F-0.000545383445503489
sba(innWeight
NNWeight
p1502
(dp1503
g3
F-0.00043151777170668377
sba(innWeight
NNWeight
p1504
(dp1505
g3
F0.0016270198182962421
sba(innWeight
NNWeight
p1506
(dp1507
g3
F0.002217656674801697
sba(innWeight
NNWeight
p1508
(dp1509
g3
F-0.030811734187551714
sba(innWeight
NNWeight
p1510
(dp1511
g3
F-0.013063780651339407
sba(innWeight
NNWeight
p1512
(dp1513
g3
F0.050129337535985724
sba(innWeight
NNWeight
p1514
(dp1515
g3
F-0.045677242491880994
sba(innWeight
NNWeight
p1516
(dp1517
g3
F0.05669563268304484
sba(innWeight
NNWeight
p1518
(dp1519
g3
F-0.009502330471305208
sba(innWeight
NNWeight
p1520
(dp1521
g3
F0.013914153195521214
sba(innWeight
NNWeight
p1522
(dp1523
g3
F-0.10296127914447846
sba(innWeight
NNWeight
p1524
(dp1525
g3
F-0.09444242588611923
sba(innWeight
NNWeight
p1526
(dp1527
g3
F-0.0007664832726043193
sba(innWeight
NNWeight
p1528
(dp1529
g3
F-0.002642756836347351
sba(innWeight
NNWeight
p1530
(dp1531
g3
F-0.006950058713408771
sba(innWeight
NNWeight
p1532
(dp1533
g3
F0.0010465219689198718
sba(innWeight
NNWeight
p1534
(dp1535
g3
F0.01109366484196509
sba(innWeight
NNWeight
p1536
(dp1537
g3
F-0.05347507671775328
sba(innWeight
NNWeight
p1538
(dp1539
g3
F-0.04856722591922875
sba(innWeight
NNWeight
p1540
(dp1541
g3
F0.05817087796037117
sba(innWeight
NNWeight
p1542
(dp1543
g3
F-0.03973869582351663
sba(innWeight
NNWeight
p1544
(dp1545
g3
F-0.003979249160701891
sba(innWeight
NNWeight
p1546
(dp1547
g3
F-0.041335860589466755
sba(innWeight
NNWeight
p1548
(dp1549
g3
F0.0024682902530071883
sba(innWeight
NNWeight
p1550
(dp1551
g3
F0.015215381624740476
sba(innWeight
NNWeight
p1552
(dp1553
g3
F-0.02329546149268123
sba(innWeight
NNWeight
p1554
(dp1555
g3
F0.06328099958899858
sba(innWeight
NNWeight
p1556
(dp1557
g3
F0.042423538971377045
sba(innWeight
NNWeight
p1558
(dp1559
g3
F-0.03474696703802491
sba(innWeight
NNWeight
p1560
(dp1561
g3
F0.061235774521787016
sba(innWeight
NNWeight
p1562
(dp1563
g3
F0.008278552581890256
sba(innWeight
NNWeight
p1564
(dp1565
g3
F0.06250570747232956
sba(innWeight
NNWeight
p1566
(dp1567
g3
F0.03866935573036079
sba(innWeight
NNWeight
p1568
(dp1569
g3
F0.0266658916985052
sba(innWeight
NNWeight
p1570
(dp1571
g3
F-0.07090452109543594
sba(innWeight
NNWeight
p1572
(dp1573
g3
F0.02820870592850694
sba(innWeight
NNWeight
p1574
(dp1575
g3
F0.054890373052991756
sba(innWeight
NNWeight
p1576
(dp1577
g3
F-0.016634701602072803
sba(innWeight
NNWeight
p1578
(dp1579
g3
F0.007294319254611865
sba(innWeight
NNWeight
p1580
(dp1581
g3
F0.028243906993264182
sba(innWeight
NNWeight
p1582
(dp1583
g3
F-0.03516630566708263
sba(innWeight
NNWeight
p1584
(dp1585
g3
F0.017365977854333404
sba(innWeight
NNWeight
p1586
(dp1587
g3
F-0.013824564780534518
sba(innWeight
NNWeight
p1588
(dp1589
g3
F-0.023648866784696642
sba(innWeight
NNWeight
p1590
(dp1591
g3
F-0.02188868410895815
sba(innWeight
NNWeight
p1592
(dp1593
g3
F0.03107595827498818
sba(innWeight
NNWeight
p1594
(dp1595
g3
F0.06666390049811345
sba(innWeight
NNWeight
p1596
(dp1597
g3
F-0.03507194509113508
sba(innWeight
NNWeight
p1598
(dp1599
g3
F-0.0473268055907648
sba(innWeight
NNWeight
p1600
(dp1601
g3
F-0.026124218011425112
sba(innWeight
NNWeight
p1602
(dp1603
g3
F0.040875547107885817
sba(innWeight
NNWeight
p1604
(dp1605
g3
F0.023033766880974225
sba(innWeight
NNWeight
p1606
(dp1607
g3
F-0.0015531409396844862
sba(innWeight
NNWeight
p1608
(dp1609
g3
F-0.06536885540479787
sba(innWeight
NNWeight
p1610
(dp1611
g3
F-0.0034134878216010656
sba(innWeight
NNWeight
p1612
(dp1613
g3
F-0.03771510871908264
sba(innWeight
NNWeight
p1614
(dp1615
g3
F-0.00735288463344067
sba(innWeight
NNWeight
p1616
(dp1617
g3
F0.044169341084369936
sba(innWeight
NNWeight
p1618
(dp1619
g3
F-0.07731827385124847
sba(innWeight
NNWeight
p1620
(dp1621
g3
F-0.05453609304268941
sba(innWeight
NNWeight
p1622
(dp1623
g3
F-0.016367645562009866
sba(innWeight
NNWeight
p1624
(dp1625
g3
F-0.05340004687370193
sba(innWeight
NNWeight
p1626
(dp1627
g3
F0.03112647369148953
sba(innWeight
NNWeight
p1628
(dp1629
g3
F0.03677763196117944
sba(innWeight
NNWeight
p1630
(dp1631
g3
F0.012487531195849092
sba(innWeight
NNWeight
p1632
(dp1633
g3
F0.03386040772266283
sba(innWeight
NNWeight
p1634
(dp1635
g3
F-0.0403765909753663
sba(innWeight
NNWeight
p1636
(dp1637
g3
F0.07276198186014762
sba(innWeight
NNWeight
p1638
(dp1639
g3
F-0.045383939605257814
sba(innWeight
NNWeight
p1640
(dp1641
g3
F0.015826057105423265
sba(innWeight
NNWeight
p1642
(dp1643
g3
F-0.05591856576813675
sba(innWeight
NNWeight
p1644
(dp1645
g3
F0.024027120720503465
sba(innWeight
NNWeight
p1646
(dp1647
g3
F0.04365742674696733
sba(innWeight
NNWeight
p1648
(dp1649
g3
F-0.07613709718233998
sba(innWeight
NNWeight
p1650
(dp1651
g3
F0.004794541904115298
sba(innWeight
NNWeight
p1652
(dp1653
g3
F0.06298618116039845
sba(innWeight
NNWeight
p1654
(dp1655
g3
F0.05203754705950877
sba(innWeight
NNWeight
p1656
(dp1657
g3
F-0.03472800459379599
sba(innWeight
NNWeight
p1658
(dp1659
g3
F-0.014266607295413548
sba(innWeight
NNWeight
p1660
(dp1661
g3
F-0.09132293250960216
sba(innWeight
NNWeight
p1662
(dp1663
g3
F0.0207739523138212
sba(innWeight
NNWeight
p1664
(dp1665
g3
F-0.008173691415281884
sba(innWeight
NNWeight
p1666
(dp1667
g3
F0.0032228519445978605
sba(innWeight
NNWeight
p1668
(dp1669
g3
F0.026611536994492358
sba(innWeight
NNWeight
p1670
(dp1671
g3
F-0.061079842700362166
sba(innWeight
NNWeight
p1672
(dp1673
g3
F-0.025070102803536623
sba(innWeight
NNWeight
p1674
(dp1675
g3
F0.03192172559583453
sba(innWeight
NNWeight
p1676
(dp1677
g3
F-0.012683101055777841
sba(innWeight
NNWeight
p1678
(dp1679
g3
F0.01130749662276428
sba(innWeight
NNWeight
p1680
(dp1681
g3
F0.005077879429519735
sba(innWeight
NNWeight
p1682
(dp1683
g3
F-0.015030592946836922
sba(innWeight
NNWeight
p1684
(dp1685
g3
F0.0062411818264851435
sba(innWeight
NNWeight
p1686
(dp1687
g3
F-0.053461267307266386
sba(innWeight
NNWeight
p1688
(dp1689
g3
F-0.013168791283243428
sba(innWeight
NNWeight
p1690
(dp1691
g3
F-0.02816440983427658
sba(innWeight
NNWeight
p1692
(dp1693
g3
F-0.02841428712549645
sba(innWeight
NNWeight
p1694
(dp1695
g3
F0.04266165121551997
sba(innWeight
NNWeight
p1696
(dp1697
g3
F-0.005339397357600725
sba(innWeight
NNWeight
p1698
(dp1699
g3
F0.04279877201894588
sba(innWeight
NNWeight
p1700
(dp1701
g3
F-0.03363576271999486
sba(innWeight
NNWeight
p1702
(dp1703
g3
F-0.03349639666361439
sba(innWeight
NNWeight
p1704
(dp1705
g3
F-0.02747406901990926
sba(innWeight
NNWeight
p1706
(dp1707
g3
F-0.015639063223663284
sba(innWeight
NNWeight
p1708
(dp1709
g3
F0.0010793499919257727
sba(innWeight
NNWeight
p1710
(dp1711
g3
F0.04417366767827098
sba(innWeight
NNWeight
p1712
(dp1713
g3
F0.014073731959247228
sba(innWeight
NNWeight
p1714
(dp1715
g3
F0.013925540917324937
sba(innWeight
NNWeight
p1716
(dp1717
g3
F0.007914679347815935
sba(innWeight
NNWeight
p1718
(dp1719
g3
F-0.02030551727978628
sba(innWeight
NNWeight
p1720
(dp1721
g3
F-0.008504268120723944
sba(innWeight
NNWeight
p1722
(dp1723
g3
F-0.021078450459592536
sba(innWeight
NNWeight
p1724
(dp1725
g3
F-0.010704466821495803
sba(innWeight
NNWeight
p1726
(dp1727
g3
F0.05362288021829336
sba(innWeight
NNWeight
p1728
(dp1729
g3
F-0.02706117415868368
sba(innWeight
NNWeight
p1730
(dp1731
g3
F-0.04287365698740029
sba(innWeight
NNWeight
p1732
(dp1733
g3
F-0.061861369763761616
sba(innWeight
NNWeight
p1734
(dp1735
g3
F-0.005116346109154899
sba(innWeight
NNWeight
p1736
(dp1737
g3
F0.014486080855604405
sba(innWeight
NNWeight
p1738
(dp1739
g3
F0.031050920322236778
sba(innWeight
NNWeight
p1740
(dp1741
g3
F-0.04964422145987337
sba(innWeight
NNWeight
p1742
(dp1743
g3
F-0.05203728510748286
sba(innWeight
NNWeight
p1744
(dp1745
g3
F0.012647758854468524
sba(innWeight
NNWeight
p1746
(dp1747
g3
F-0.00816491048209202
sba(innWeight
NNWeight
p1748
(dp1749
g3
F0.051289631906059924
sba(innWeight
NNWeight
p1750
(dp1751
g3
F-0.04184380658159621
sba(innWeight
NNWeight
p1752
(dp1753
g3
F-0.008341560415371894
sba(innWeight
NNWeight
p1754
(dp1755
g3
F0.04572065989300121
sba(innWeight
NNWeight
p1756
(dp1757
g3
F-0.005194010777647831
sba(innWeight
NNWeight
p1758
(dp1759
g3
F0.049190283053670354
sba(innWeight
NNWeight
p1760
(dp1761
g3
F-0.031144608082774847
sba(innWeight
NNWeight
p1762
(dp1763
g3
F-0.006335103214268245
sba(innWeight
NNWeight
p1764
(dp1765
g3
F0.0026051640930462474
sba(innWeight
NNWeight
p1766
(dp1767
g3
F0.026936605624411712
sba(innWeight
NNWeight
p1768
(dp1769
g3
F-0.013755546799656227
sba(innWeight
NNWeight
p1770
(dp1771
g3
F-0.03527375686629573
sba(innWeight
NNWeight
p1772
(dp1773
g3
F-0.02759387159924785
sba(innWeight
NNWeight
p1774
(dp1775
g3
F-0.0040803133630481795
sba(innWeight
NNWeight
p1776
(dp1777
g3
F0.027719573178170875
sba(innWeight
NNWeight
p1778
(dp1779
g3
F0.003181258505808592
sba(innWeight
NNWeight
p1780
(dp1781
g3
F-0.016500932765859212
sba(innWeight
NNWeight
p1782
(dp1783
g3
F0.02072278879981417
sba(innWeight
NNWeight
p1784
(dp1785
g3
F-0.0692668893422423
sba(innWeight
NNWeight
p1786
(dp1787
g3
F0.06298902753392023
sba(innWeight
NNWeight
p1788
(dp1789
g3
F-0.023256852582276628
sba(innWeight
NNWeight
p1790
(dp1791
g3
F-0.07769482524108164
sba(innWeight
NNWeight
p1792
(dp1793
g3
F0.008761661032464518
sba(innWeight
NNWeight
p1794
(dp1795
g3
F0.04048482983367297
sba(innWeight
NNWeight
p1796
(dp1797
g3
F-0.021436459305836958
sba(innWeight
NNWeight
p1798
(dp1799
g3
F-0.02160725952391658
sba(innWeight
NNWeight
p1800
(dp1801
g3
F0.030482204092990208
sba(innWeight
NNWeight
p1802
(dp1803
g3
F-0.07151685706847818
sba(innWeight
NNWeight
p1804
(dp1805
g3
F-0.029884949308196143
sba(innWeight
NNWeight
p1806
(dp1807
g3
F-0.023947813600111778
sba(innWeight
NNWeight
p1808
(dp1809
g3
F-0.0557104291022637
sba(innWeight
NNWeight
p1810
(dp1811
g3
F-0.06274048910073037
sba(innWeight
NNWeight
p1812
(dp1813
g3
F0.03747593741837831
sba(innWeight
NNWeight
p1814
(dp1815
g3
F-0.026966500911441375
sba(innWeight
NNWeight
p1816
(dp1817
g3
F0.043447846122258146
sba(innWeight
NNWeight
p1818
(dp1819
g3
F-0.007493682551647917
sba(innWeight
NNWeight
p1820
(dp1821
g3
F-0.03317084576756252
sba(innWeight
NNWeight
p1822
(dp1823
g3
F0.04765268314307177
sba(innWeight
NNWeight
p1824
(dp1825
g3
F0.025446482260317503
sba(innWeight
NNWeight
p1826
(dp1827
g3
F-0.046221471546079286
sba(innWeight
NNWeight
p1828
(dp1829
g3
F0.049309994754886455
sba(innWeight
NNWeight
p1830
(dp1831
g3
F0.02239642354638692
sba(innWeight
NNWeight
p1832
(dp1833
g3
F-0.054205565421064035
sba(innWeight
NNWeight
p1834
(dp1835
g3
F-0.017324876600720313
sba(innWeight
NNWeight
p1836
(dp1837
g3
F-0.04962613007594395
sba(innWeight
NNWeight
p1838
(dp1839
g3
F0.03759955204839363
sba(innWeight
NNWeight
p1840
(dp1841
g3
F0.03517864312378412
sba(innWeight
NNWeight
p1842
(dp1843
g3
F-0.00813472935336901
sba(innWeight
NNWeight
p1844
(dp1845
g3
F-0.010427034922051772
sba(innWeight
NNWeight
p1846
(dp1847
g3
F-0.01171727242271218
sba(innWeight
NNWeight
p1848
(dp1849
g3
F0.04902630091807663
sba(innWeight
NNWeight
p1850
(dp1851
g3
F0.01934182608339776
sba(innWeight
NNWeight
p1852
(dp1853
g3
F-0.0655771259419798
sba(innWeight
NNWeight
p1854
(dp1855
g3
F-0.00017101687830050217
sba(innWeight
NNWeight
p1856
(dp1857
g3
F0.002036513423496908
sba(innWeight
NNWeight
p1858
(dp1859
g3
F-0.05269693543443072
sba(innWeight
NNWeight
p1860
(dp1861
g3
F-0.02706658410245372
sba(innWeight
NNWeight
p1862
(dp1863
g3
F-0.026500967526443566
sba(innWeight
NNWeight
p1864
(dp1865
g3
F-0.01127571733034042
sba(innWeight
NNWeight
p1866
(dp1867
g3
F0.014688435763758483
sba(innWeight
NNWeight
p1868
(dp1869
g3
F0.048089751076561355
sba(innWeight
NNWeight
p1870
(dp1871
g3
F-0.012798272560217396
sba(innWeight
NNWeight
p1872
(dp1873
g3
F0.017892346228561614
sba(innWeight
NNWeight
p1874
(dp1875
g3
F-0.03644821709377581
sba(innWeight
NNWeight
p1876
(dp1877
g3
F0.0066006278046683645
sba(innWeight
NNWeight
p1878
(dp1879
g3
F-0.03622799277546479
sba(innWeight
NNWeight
p1880
(dp1881
g3
F-0.017844557514404016
sba(innWeight
NNWeight
p1882
(dp1883
g3
F-0.03601047338452046
sba(innWeight
NNWeight
p1884
(dp1885
g3
F0.06299932919741077
sba(innWeight
NNWeight
p1886
(dp1887
g3
F-0.023481673853735955
sba(innWeight
NNWeight
p1888
(dp1889
g3
F-0.03788218515881727
sba(innWeight
NNWeight
p1890
(dp1891
g3
F-0.004451111520458272
sba(innWeight
NNWeight
p1892
(dp1893
g3
F-0.0703643555357221
sba(innWeight
NNWeight
p1894
(dp1895
g3
F0.005556138604051012
sba(innWeight
NNWeight
p1896
(dp1897
g3
F0.01433822735249931
sba(innWeight
NNWeight
p1898
(dp1899
g3
F-0.060451132249600956
sba(innWeight
NNWeight
p1900
(dp1901
g3
F0.019544959416417793
sba(innWeight
NNWeight
p1902
(dp1903
g3
F-0.04633020904104794
sba(innWeight
NNWeight
p1904
(dp1905
g3
F-0.02280506910840008
sba(innWeight
NNWeight
p1906
(dp1907
g3
F-0.05486499875798392
sba(innWeight
NNWeight
p1908
(dp1909
g3
F0.012018653349663318
sba(innWeight
NNWeight
p1910
(dp1911
g3
F0.013977258217582242
sba(innWeight
NNWeight
p1912
(dp1913
g3
F0.03623893070293578
sba(innWeight
NNWeight
p1914
(dp1915
g3
F0.05054743076736315
sba(innWeight
NNWeight
p1916
(dp1917
g3
F-0.016591180075796158
sba(innWeight
NNWeight
p1918
(dp1919
g3
F0.04474449237036521
sba(innWeight
NNWeight
p1920
(dp1921
g3
F0.0238376118242908
sba(innWeight
NNWeight
p1922
(dp1923
g3
F0.004423429333788963
sba(innWeight
NNWeight
p1924
(dp1925
g3
F0.03744516412241416
sba(innWeight
NNWeight
p1926
(dp1927
g3
F-0.06559830212900353
sba(innWeight
NNWeight
p1928
(dp1929
g3
F0.020475706888457856
sba(innWeight
NNWeight
p1930
(dp1931
g3
F0.03183105531571496
sba(innWeight
NNWeight
p1932
(dp1933
g3
F0.043673675805307635
sba(innWeight
NNWeight
p1934
(dp1935
g3
F-0.009466239795707465
sba(innWeight
NNWeight
p1936
(dp1937
g3
F-0.01804059720527497
sba(innWeight
NNWeight
p1938
(dp1939
g3
F0.02090082338054348
sba(innWeight
NNWeight
p1940
(dp1941
g3
F-0.058322871393289136
sba(innWeight
NNWeight
p1942
(dp1943
g3
F-0.024244274655129
sba(innWeight
NNWeight
p1944
(dp1945
g3
F0.03597646663938232
sba(innWeight
NNWeight
p1946
(dp1947
g3
F0.005964117197303178
sba(innWeight
NNWeight
p1948
(dp1949
g3
F-0.042308739772955135
sba(innWeight
NNWeight
p1950
(dp1951
g3
F-0.008812844648110043
sba(innWeight
NNWeight
p1952
(dp1953
g3
F-0.04215054350553557
sba(innWeight
NNWeight
p1954
(dp1955
g3
F-0.00802858227158497
sba(innWeight
NNWeight
p1956
(dp1957
g3
F0.06249239871595471
sba(innWeight
NNWeight
p1958
(dp1959
g3
F-0.010080123235058398
sba(innWeight
NNWeight
p1960
(dp1961
g3
F0.07223078552563414
sba(innWeight
NNWeight
p1962
(dp1963
g3
F-0.02069385654526385
sba(innWeight
NNWeight
p1964
(dp1965
g3
F-0.061856977930688034
sba(innWeight
NNWeight
p1966
(dp1967
g3
F-0.040344571680719164
sba(innWeight
NNWeight
p1968
(dp1969
g3
F0.022459908565146524
sba(innWeight
NNWeight
p1970
(dp1971
g3
F0.03719589137681487
sba(innWeight
NNWeight
p1972
(dp1973
g3
F-0.01191719536177506
sba(innWeight
NNWeight
p1974
(dp1975
g3
F-0.0308092737105687
sba(innWeight
NNWeight
p1976
(dp1977
g3
F-0.014021080957971924
sba(innWeight
NNWeight
p1978
(dp1979
g3
F-0.013431884725354495
sba(innWeight
NNWeight
p1980
(dp1981
g3
F-0.010677461857570564
sba(innWeight
NNWeight
p1982
(dp1983
g3
F-0.051302467911626404
sba(innWeight
NNWeight
p1984
(dp1985
g3
F-0.0552304165437354
sba(innWeight
NNWeight
p1986
(dp1987
g3
F-0.014765166176389342
sba(innWeight
NNWeight
p1988
(dp1989
g3
F0.01795890663955925
sba(innWeight
NNWeight
p1990
(dp1991
g3
F-0.03543420290927468
sba(innWeight
NNWeight
p1992
(dp1993
g3
F0.0047925814745133554
sba(innWeight
NNWeight
p1994
(dp1995
g3
F0.018923590520111076
sba(innWeight
NNWeight
p1996
(dp1997
g3
F0.007426416419797101
sba(innWeight
NNWeight
p1998
(dp1999
g3
F0.017624293366193255
sba(innWeight
NNWeight
p2000
(dp2001
g3
F0.028918729662458
sba(innWeight
NNWeight
p2002
(dp2003
g3
F-0.020847617413921188
sba(innWeight
NNWeight
p2004
(dp2005
g3
F-0.03227395842507582
sba(innWeight
NNWeight
p2006
(dp2007
g3
F0.05546996712412886
sba(innWeight
NNWeight
p2008
(dp2009
g3
F0.031989884918217415
sba(innWeight
NNWeight
p2010
(dp2011
g3
F0.006958851425415693
sba(innWeight
NNWeight
p2012
(dp2013
g3
F-0.03321884681545083
sba(innWeight
NNWeight
p2014
(dp2015
g3
F0.0010511797700055105
sba(innWeight
NNWeight
p2016
(dp2017
g3
F-0.005304042009721895
sba(innWeight
NNWeight
p2018
(dp2019
g3
F0.008927871474711515
sba(innWeight
NNWeight
p2020
(dp2021
g3
F0.0014019324180529038
sba.