(lp0
(innWeight
NNWeight
p1
(dp2
S'val'
p3
F-0.0449912488679867
sba(innWeight
NNWeight
p4
(dp5
g3
F0.010381004280388618
sba(innWeight
NNWeight
p6
(dp7
g3
F0.005979681824796546
sba(innWeight
NNWeight
p8
(dp9
g3
F-0.03205723616170175
sba(innWeight
NNWeight
p10
(dp11
g3
F-0.003992152532314908
sba(innWeight
NNWeight
p12
(dp13
g3
F-0.025795099244540567
sba(innWeight
NNWeight
p14
(dp15
g3
F0.029012937321674093
sba(innWeight
NNWeight
p16
(dp17
g3
F-0.046171094005635196
sba(innWeight
NNWeight
p18
(dp19
g3
F0.039768706770453334
sba(innWeight
NNWeight
p20
(dp21
g3
F0.013390497705845272
sba(innWeight
NNWeight
p22
(dp23
g3
F-0.045380854843050725
sba(innWeight
NNWeight
p24
(dp25
g3
F-0.01893193153810692
sba(innWeight
NNWeight
p26
(dp27
g3
F0.02934617785252939
sba(innWeight
NNWeight
p28
(dp29
g3
F0.028239888832662343
sba(innWeight
NNWeight
p30
(dp31
g3
F-0.01162957941044639
sba(innWeight
NNWeight
p32
(dp33
g3
F-0.015008420439832982
sba(innWeight
NNWeight
p34
(dp35
g3
F-0.01847773214051276
sba(innWeight
NNWeight
p36
(dp37
g3
F0.04541205885133859
sba(innWeight
NNWeight
p38
(dp39
g3
F-0.014350913376991514
sba(innWeight
NNWeight
p40
(dp41
g3
F0.001591042924614039
sba(innWeight
NNWeight
p42
(dp43
g3
F0.023539786935784224
sba(innWeight
NNWeight
p44
(dp45
g3
F0.03036513396134584
sba(innWeight
NNWeight
p46
(dp47
g3
F-0.03658604205751458
sba(innWeight
NNWeight
p48
(dp49
g3
F0.01781069146949431
sba(innWeight
NNWeight
p50
(dp51
g3
F-0.03199128795220615
sba(innWeight
NNWeight
p52
(dp53
g3
F0.009073770126700553
sba(innWeight
NNWeight
p54
(dp55
g3
F0.037035375280836495
sba(innWeight
NNWeight
p56
(dp57
g3
F0.04069079951973185
sba(innWeight
NNWeight
p58
(dp59
g3
F-0.001255626383816555
sba(innWeight
NNWeight
p60
(dp61
g3
F0.03655205448814537
sba(innWeight
NNWeight
p62
(dp63
g3
F0.004564743304283758
sba(innWeight
NNWeight
p64
(dp65
g3
F0.003293480939028426
sba(innWeight
NNWeight
p66
(dp67
g3
F0.035083931838805586
sba(innWeight
NNWeight
p68
(dp69
g3
F-0.008407530416707753
sba(innWeight
NNWeight
p70
(dp71
g3
F-0.02172191245379931
sba(innWeight
NNWeight
p72
(dp73
g3
F0.04168767922529279
sba(innWeight
NNWeight
p74
(dp75
g3
F-0.03554661034796454
sba(innWeight
NNWeight
p76
(dp77
g3
F0.03629411839924528
sba(innWeight
NNWeight
p78
(dp79
g3
F0.010890477923610309
sba(innWeight
NNWeight
p80
(dp81
g3
F-0.042651196339861655
sba(innWeight
NNWeight
p82
(dp83
g3
F0.005835125512852136
sba(innWeight
NNWeight
p84
(dp85
g3
F-0.03993593768458849
sba(innWeight
NNWeight
p86
(dp87
g3
F0.03210812940790749
sba(innWeight
NNWeight
p88
(dp89
g3
F-0.011314622764383898
sba(innWeight
NNWeight
p90
(dp91
g3
F0.039767372217292166
sba(innWeight
NNWeight
p92
(dp93
g3
F0.015921445245734456
sba(innWeight
NNWeight
p94
(dp95
g3
F0.025633704508603906
sba(innWeight
NNWeight
p96
(dp97
g3
F-0.035707208258615945
sba(innWeight
NNWeight
p98
(dp99
g3
F-0.04295246700158996
sba(innWeight
NNWeight
p100
(dp101
g3
F-0.049612664415031975
sba(innWeight
NNWeight
p102
(dp103
g3
F0.043925901503775316
sba(innWeight
NNWeight
p104
(dp105
g3
F-0.0009307280149929431
sba(innWeight
NNWeight
p106
(dp107
g3
F-0.00010495571705998463
sba(innWeight
NNWeight
p108
(dp109
g3
F0.03907062027470259
sba(innWeight
NNWeight
p110
(dp111
g3
F0.035086779089740665
sba(innWeight
NNWeight
p112
(dp113
g3
F-0.013779452756644628
sba(innWeight
NNWeight
p114
(dp115
g3
F0.014613171385577295
sba(innWeight
NNWeight
p116
(dp117
g3
F0.004454681915946101
sba(innWeight
NNWeight
p118
(dp119
g3
F-0.004730464666674073
sba(innWeight
NNWeight
p120
(dp121
g3
F-0.021758081348758663
sba(innWeight
NNWeight
p122
(dp123
g3
F0.025150294964568623
sba(innWeight
NNWeight
p124
(dp125
g3
F-0.030408931324769774
sba(innWeight
NNWeight
p126
(dp127
g3
F0.016658982041401028
sba(innWeight
NNWeight
p128
(dp129
g3
F0.009092126299774262
sba(innWeight
NNWeight
p130
(dp131
g3
F-0.03960005476558345
sba(innWeight
NNWeight
p132
(dp133
g3
F0.011794483216196161
sba(innWeight
NNWeight
p134
(dp135
g3
F-0.04215757694313176
sba(innWeight
NNWeight
p136
(dp137
g3
F-0.04796080369403493
sba(innWeight
NNWeight
p138
(dp139
g3
F0.0030052211184379953
sba(innWeight
NNWeight
p140
(dp141
g3
F0.01633791716947447
sba(innWeight
NNWeight
p142
(dp143
g3
F0.021208741173520396
sba(innWeight
NNWeight
p144
(dp145
g3
F-0.02410474130161652
sba(innWeight
NNWeight
p146
(dp147
g3
F-0.029446722570092777
sba(innWeight
NNWeight
p148
(dp149
g3
F-0.023808577127891164
sba(innWeight
NNWeight
p150
(dp151
g3
F0.0021350610432043448
sba(innWeight
NNWeight
p152
(dp153
g3
F-0.029046374144265665
sba(innWeight
NNWeight
p154
(dp155
g3
F-0.017515116499852035
sba(innWeight
NNWeight
p156
(dp157
g3
F0.021401524178773113
sba(innWeight
NNWeight
p158
(dp159
g3
F-0.014388187215978954
sba(innWeight
NNWeight
p160
(dp161
g3
F0.009487121655589226
sba(innWeight
NNWeight
p162
(dp163
g3
F-0.03776519985584114
sba(innWeight
NNWeight
p164
(dp165
g3
F0.016840042414916722
sba(innWeight
NNWeight
p166
(dp167
g3
F0.011309241621191901
sba(innWeight
NNWeight
p168
(dp169
g3
F0.039838701660399815
sba(innWeight
NNWeight
p170
(dp171
g3
F0.007659652466386902
sba(innWeight
NNWeight
p172
(dp173
g3
F0.008002219883403749
sba(innWeight
NNWeight
p174
(dp175
g3
F-0.033519133935614086
sba(innWeight
NNWeight
p176
(dp177
g3
F0.046520479576368595
sba(innWeight
NNWeight
p178
(dp179
g3
F-0.022786049045738478
sba(innWeight
NNWeight
p180
(dp181
g3
F-0.009057108907132771
sba(innWeight
NNWeight
p182
(dp183
g3
F0.02184150314775525
sba(innWeight
NNWeight
p184
(dp185
g3
F0.005461495808055639
sba(innWeight
NNWeight
p186
(dp187
g3
F0.007092678932969177
sba(innWeight
NNWeight
p188
(dp189
g3
F-0.041726762523038245
sba(innWeight
NNWeight
p190
(dp191
g3
F-0.04323914331774145
sba(innWeight
NNWeight
p192
(dp193
g3
F-0.029709142021443993
sba(innWeight
NNWeight
p194
(dp195
g3
F0.005192957474924676
sba(innWeight
NNWeight
p196
(dp197
g3
F-0.02229383712317308
sba(innWeight
NNWeight
p198
(dp199
g3
F0.043277758745615603
sba(innWeight
NNWeight
p200
(dp201
g3
F-0.03615799362155447
sba(innWeight
NNWeight
p202
(dp203
g3
F-0.003927800528892034
sba(innWeight
NNWeight
p204
(dp205
g3
F0.026163301175977306
sba(innWeight
NNWeight
p206
(dp207
g3
F-0.048580237293554
sba(innWeight
NNWeight
p208
(dp209
g3
F-0.049067024632574244
sba(innWeight
NNWeight
p210
(dp211
g3
F-0.006223393957249846
sba(innWeight
NNWeight
p212
(dp213
g3
F0.03665112006062992
sba(innWeight
NNWeight
p214
(dp215
g3
F-0.024659569974173613
sba(innWeight
NNWeight
p216
(dp217
g3
F-0.016589220456564645
sba(innWeight
NNWeight
p218
(dp219
g3
F-0.018111849031171946
sba(innWeight
NNWeight
p220
(dp221
g3
F-0.02995036348992223
sba(innWeight
NNWeight
p222
(dp223
g3
F-0.04805735179307244
sba(innWeight
NNWeight
p224
(dp225
g3
F-0.0004667972900442519
sba(innWeight
NNWeight
p226
(dp227
g3
F-0.03754787835149235
sba(innWeight
NNWeight
p228
(dp229
g3
F0.03429835291890556
sba(innWeight
NNWeight
p230
(dp231
g3
F0.045078476415221835
sba(innWeight
NNWeight
p232
(dp233
g3
F-0.01857619439160423
sba(innWeight
NNWeight
p234
(dp235
g3
F0.02093562368175137
sba(innWeight
NNWeight
p236
(dp237
g3
F0.002571508857855032
sba(innWeight
NNWeight
p238
(dp239
g3
F-0.008878484720613245
sba(innWeight
NNWeight
p240
(dp241
g3
F-0.04500171344856795
sba(innWeight
NNWeight
p242
(dp243
g3
F-0.026497216013403015
sba(innWeight
NNWeight
p244
(dp245
g3
F0.019546235932446965
sba(innWeight
NNWeight
p246
(dp247
g3
F0.03147757928088767
sba(innWeight
NNWeight
p248
(dp249
g3
F-0.0163167726172749
sba(innWeight
NNWeight
p250
(dp251
g3
F-0.04215759984420567
sba(innWeight
NNWeight
p252
(dp253
g3
F-0.049044938822174027
sba(innWeight
NNWeight
p254
(dp255
g3
F0.035349888823662114
sba(innWeight
NNWeight
p256
(dp257
g3
F-0.03035755076084794
sba(innWeight
NNWeight
p258
(dp259
g3
F-0.02374574025952383
sba(innWeight
NNWeight
p260
(dp261
g3
F-0.042433457198327355
sba(innWeight
NNWeight
p262
(dp263
g3
F-0.032426703352238205
sba(innWeight
NNWeight
p264
(dp265
g3
F-0.00897353501012671
sba(innWeight
NNWeight
p266
(dp267
g3
F-0.021682778184098972
sba(innWeight
NNWeight
p268
(dp269
g3
F-0.019065288432040608
sba(innWeight
NNWeight
p270
(dp271
g3
F-0.033479412903263985
sba(innWeight
NNWeight
p272
(dp273
g3
F-0.04699155070254877
sba(innWeight
NNWeight
p274
(dp275
g3
F-0.045212196085678794
sba(innWeight
NNWeight
p276
(dp277
g3
F-0.0013184706797002234
sba(innWeight
NNWeight
p278
(dp279
g3
F0.020759796036183123
sba(innWeight
NNWeight
p280
(dp281
g3
F-0.029099887658917047
sba(innWeight
NNWeight
p282
(dp283
g3
F0.0024685729018148698
sba(innWeight
NNWeight
p284
(dp285
g3
F-0.04598598786905761
sba(innWeight
NNWeight
p286
(dp287
g3
F-0.04853727545684952
sba(innWeight
NNWeight
p288
(dp289
g3
F0.02229999036982352
sba(innWeight
NNWeight
p290
(dp291
g3
F0.03555986333210346
sba(innWeight
NNWeight
p292
(dp293
g3
F-0.04813893640971012
sba(innWeight
NNWeight
p294
(dp295
g3
F0.04366304287843248
sba(innWeight
NNWeight
p296
(dp297
g3
F0.005612315180764271
sba(innWeight
NNWeight
p298
(dp299
g3
F-0.030904400101335817
sba(innWeight
NNWeight
p300
(dp301
g3
F-0.019904477363779538
sba(innWeight
NNWeight
p302
(dp303
g3
F0.013811243496310988
sba(innWeight
NNWeight
p304
(dp305
g3
F0.04124027129870542
sba(innWeight
NNWeight
p306
(dp307
g3
F0.017827094801631062
sba(innWeight
NNWeight
p308
(dp309
g3
F0.0220186072977986
sba(innWeight
NNWeight
p310
(dp311
g3
F0.0017233037360519067
sba(innWeight
NNWeight
p312
(dp313
g3
F-0.04751824506930019
sba.