(lp0
(innWeight
NNWeight
p1
(dp2
S'val'
p3
F0.02169304337411722
sba(innWeight
NNWeight
p4
(dp5
g3
F-0.015523468966320854
sba(innWeight
NNWeight
p6
(dp7
g3
F-0.0017146205245432422
sba(innWeight
NNWeight
p8
(dp9
g3
F0.024855092177667328
sba(innWeight
NNWeight
p10
(dp11
g3
F0.041904127937796076
sba(innWeight
NNWeight
p12
(dp13
g3
F0.01296866016446906
sba(innWeight
NNWeight
p14
(dp15
g3
F-0.039939500720666855
sba(innWeight
NNWeight
p16
(dp17
g3
F-0.04488340793036865
sba(innWeight
NNWeight
p18
(dp19
g3
F-0.012181204966744942
sba(innWeight
NNWeight
p20
(dp21
g3
F-0.022959071740893358
sba(innWeight
NNWeight
p22
(dp23
g3
F-0.03440418457031135
sba(innWeight
NNWeight
p24
(dp25
g3
F0.03784568253003391
sba(innWeight
NNWeight
p26
(dp27
g3
F-0.0446265540572188
sba(innWeight
NNWeight
p28
(dp29
g3
F0.017291850927395016
sba(innWeight
NNWeight
p30
(dp31
g3
F-0.0037776884962356094
sba(innWeight
NNWeight
p32
(dp33
g3
F-0.010203864613883862
sba(innWeight
NNWeight
p34
(dp35
g3
F-0.027837174728000947
sba(innWeight
NNWeight
p36
(dp37
g3
F0.04972511455662081
sba(innWeight
NNWeight
p38
(dp39
g3
F0.038297808634287514
sba(innWeight
NNWeight
p40
(dp41
g3
F0.03127381506278757
sba(innWeight
NNWeight
p42
(dp43
g3
F0.04739642206223782
sba(innWeight
NNWeight
p44
(dp45
g3
F0.02502540841961587
sba(innWeight
NNWeight
p46
(dp47
g3
F0.028652281101522847
sba(innWeight
NNWeight
p48
(dp49
g3
F0.0359001079992471
sba(innWeight
NNWeight
p50
(dp51
g3
F0.018282586429218317
sba(innWeight
NNWeight
p52
(dp53
g3
F-0.015468015976814176
sba(innWeight
NNWeight
p54
(dp55
g3
F-0.014763461007570311
sba(innWeight
NNWeight
p56
(dp57
g3
F0.0019985818161918803
sba(innWeight
NNWeight
p58
(dp59
g3
F0.010720186499158946
sba(innWeight
NNWeight
p60
(dp61
g3
F0.031496242631590586
sba(innWeight
NNWeight
p62
(dp63
g3
F-0.02305235475200721
sba(innWeight
NNWeight
p64
(dp65
g3
F0.022862900403340648
sba(innWeight
NNWeight
p66
(dp67
g3
F-0.04613783887893898
sba(innWeight
NNWeight
p68
(dp69
g3
F0.024083601003218914
sba(innWeight
NNWeight
p70
(dp71
g3
F-0.04423655749266721
sba(innWeight
NNWeight
p72
(dp73
g3
F-0.047633724685135694
sba(innWeight
NNWeight
p74
(dp75
g3
F0.04499420257331885
sba(innWeight
NNWeight
p76
(dp77
g3
F-0.02402650713938084
sba(innWeight
NNWeight
p78
(dp79
g3
F0.03208299493628286
sba(innWeight
NNWeight
p80
(dp81
g3
F0.013536891386173755
sba(innWeight
NNWeight
p82
(dp83
g3
F0.04453140878457399
sba(innWeight
NNWeight
p84
(dp85
g3
F0.034134287436247156
sba(innWeight
NNWeight
p86
(dp87
g3
F-0.0013713258248739036
sba(innWeight
NNWeight
p88
(dp89
g3
F-0.002366651283694843
sba(innWeight
NNWeight
p90
(dp91
g3
F0.04277589956119426
sba(innWeight
NNWeight
p92
(dp93
g3
F0.0006297409959423961
sba(innWeight
NNWeight
p94
(dp95
g3
F0.03390684001779445
sba(innWeight
NNWeight
p96
(dp97
g3
F-0.036208505721977195
sba(innWeight
NNWeight
p98
(dp99
g3
F0.011294211052921534
sba(innWeight
NNWeight
p100
(dp101
g3
F0.03736051462746744
sba(innWeight
NNWeight
p102
(dp103
g3
F0.02800644179430253
sba(innWeight
NNWeight
p104
(dp105
g3
F0.041711642030595276
sba(innWeight
NNWeight
p106
(dp107
g3
F0.041211941449820925
sba(innWeight
NNWeight
p108
(dp109
g3
F0.042167329924325425
sba(innWeight
NNWeight
p110
(dp111
g3
F-0.019836083269224505
sba(innWeight
NNWeight
p112
(dp113
g3
F0.0038007731336126673
sba(innWeight
NNWeight
p114
(dp115
g3
F-0.0493248584842568
sba(innWeight
NNWeight
p116
(dp117
g3
F-0.002746051403016914
sba(innWeight
NNWeight
p118
(dp119
g3
F-0.006442296356254407
sba(innWeight
NNWeight
p120
(dp121
g3
F0.037581983827335554
sba(innWeight
NNWeight
p122
(dp123
g3
F-0.044447695391815215
sba(innWeight
NNWeight
p124
(dp125
g3
F0.04506493910141745
sba(innWeight
NNWeight
p126
(dp127
g3
F-0.0461778699729304
sba(innWeight
NNWeight
p128
(dp129
g3
F-0.04091611426005583
sba(innWeight
NNWeight
p130
(dp131
g3
F-0.008712652683007461
sba(innWeight
NNWeight
p132
(dp133
g3
F0.00399233860726621
sba(innWeight
NNWeight
p134
(dp135
g3
F-0.029804646080488262
sba(innWeight
NNWeight
p136
(dp137
g3
F0.0417465140174237
sba(innWeight
NNWeight
p138
(dp139
g3
F-0.03413570793065205
sba(innWeight
NNWeight
p140
(dp141
g3
F0.03978630066938234
sba(innWeight
NNWeight
p142
(dp143
g3
F0.03163154240751475
sba(innWeight
NNWeight
p144
(dp145
g3
F-0.017082180492859058
sba(innWeight
NNWeight
p146
(dp147
g3
F0.03631209815606543
sba(innWeight
NNWeight
p148
(dp149
g3
F0.009334567398134153
sba(innWeight
NNWeight
p150
(dp151
g3
F0.010929008021669873
sba(innWeight
NNWeight
p152
(dp153
g3
F-0.009096960639196705
sba(innWeight
NNWeight
p154
(dp155
g3
F-0.027002342801030633
sba(innWeight
NNWeight
p156
(dp157
g3
F-0.016369592654818643
sba(innWeight
NNWeight
p158
(dp159
g3
F0.04259993475289763
sba(innWeight
NNWeight
p160
(dp161
g3
F-0.00104525666854417
sba(innWeight
NNWeight
p162
(dp163
g3
F0.04521713923646628
sba(innWeight
NNWeight
p164
(dp165
g3
F-0.004188895468633514
sba(innWeight
NNWeight
p166
(dp167
g3
F-0.03854436510312355
sba(innWeight
NNWeight
p168
(dp169
g3
F0.0022205062265650112
sba(innWeight
NNWeight
p170
(dp171
g3
F-0.010583149232923651
sba(innWeight
NNWeight
p172
(dp173
g3
F0.01803497422439444
sba(innWeight
NNWeight
p174
(dp175
g3
F-0.03339032806458343
sba(innWeight
NNWeight
p176
(dp177
g3
F-0.014246247056419959
sba(innWeight
NNWeight
p178
(dp179
g3
F-0.029114466607336378
sba(innWeight
NNWeight
p180
(dp181
g3
F0.005949474551585243
sba(innWeight
NNWeight
p182
(dp183
g3
F0.010037123206042298
sba(innWeight
NNWeight
p184
(dp185
g3
F0.04861824282693851
sba(innWeight
NNWeight
p186
(dp187
g3
F0.04636374877173345
sba(innWeight
NNWeight
p188
(dp189
g3
F-0.03539609917295169
sba(innWeight
NNWeight
p190
(dp191
g3
F0.009026557206257991
sba(innWeight
NNWeight
p192
(dp193
g3
F-0.008958276814834276
sba(innWeight
NNWeight
p194
(dp195
g3
F0.04426008019010699
sba(innWeight
NNWeight
p196
(dp197
g3
F0.010069775444586449
sba(innWeight
NNWeight
p198
(dp199
g3
F-0.004166558650553431
sba(innWeight
NNWeight
p200
(dp201
g3
F-0.03246978196617963
sba(innWeight
NNWeight
p202
(dp203
g3
F0.039083641372227744
sba(innWeight
NNWeight
p204
(dp205
g3
F-0.04911311731821603
sba(innWeight
NNWeight
p206
(dp207
g3
F0.03691230610524963
sba(innWeight
NNWeight
p208
(dp209
g3
F0.024322750383940918
sba(innWeight
NNWeight
p210
(dp211
g3
F0.009686958516286405
sba(innWeight
NNWeight
p212
(dp213
g3
F-0.01783562890305862
sba(innWeight
NNWeight
p214
(dp215
g3
F-0.024436619400373283
sba(innWeight
NNWeight
p216
(dp217
g3
F0.03261834869755691
sba(innWeight
NNWeight
p218
(dp219
g3
F-0.049851604420213115
sba(innWeight
NNWeight
p220
(dp221
g3
F-0.03831691962722185
sba(innWeight
NNWeight
p222
(dp223
g3
F-0.02238543289495172
sba(innWeight
NNWeight
p224
(dp225
g3
F-0.04598515522822533
sba(innWeight
NNWeight
p226
(dp227
g3
F-0.04831347583430976
sba(innWeight
NNWeight
p228
(dp229
g3
F-0.009204242539405272
sba(innWeight
NNWeight
p230
(dp231
g3
F-0.008104393001166776
sba(innWeight
NNWeight
p232
(dp233
g3
F0.034393860743850944
sba(innWeight
NNWeight
p234
(dp235
g3
F0.043898751233690206
sba(innWeight
NNWeight
p236
(dp237
g3
F-0.015033077959815245
sba(innWeight
NNWeight
p238
(dp239
g3
F0.04844589951016929
sba(innWeight
NNWeight
p240
(dp241
g3
F0.04097936633331937
sba(innWeight
NNWeight
p242
(dp243
g3
F0.009677182684002717
sba(innWeight
NNWeight
p244
(dp245
g3
F-0.02694008888740487
sba(innWeight
NNWeight
p246
(dp247
g3
F0.032912980054823404
sba(innWeight
NNWeight
p248
(dp249
g3
F-0.003615401590822376
sba(innWeight
NNWeight
p250
(dp251
g3
F0.042718033493036094
sba(innWeight
NNWeight
p252
(dp253
g3
F-0.012471933655478174
sba(innWeight
NNWeight
p254
(dp255
g3
F0.037853238083668084
sba(innWeight
NNWeight
p256
(dp257
g3
F-0.03793214349111088
sba(innWeight
NNWeight
p258
(dp259
g3
F0.031098080993171476
sba(innWeight
NNWeight
p260
(dp261
g3
F0.0023568358813055527
sba(innWeight
NNWeight
p262
(dp263
g3
F-0.030786424032017645
sba(innWeight
NNWeight
p264
(dp265
g3
F-0.02336088053280906
sba(innWeight
NNWeight
p266
(dp267
g3
F0.04986017931340114
sba(innWeight
NNWeight
p268
(dp269
g3
F-0.0020049508402438356
sba(innWeight
NNWeight
p270
(dp271
g3
F0.014742839301417
sba(innWeight
NNWeight
p272
(dp273
g3
F-0.041142999284541994
sba(innWeight
NNWeight
p274
(dp275
g3
F0.043814718480288575
sba(innWeight
NNWeight
p276
(dp277
g3
F0.0014712673862015025
sba(innWeight
NNWeight
p278
(dp279
g3
F-0.0023150499370314217
sba(innWeight
NNWeight
p280
(dp281
g3
F0.018224774938964572
sba(innWeight
NNWeight
p282
(dp283
g3
F0.01913185861712191
sba(innWeight
NNWeight
p284
(dp285
g3
F0.04553739476414096
sba(innWeight
NNWeight
p286
(dp287
g3
F-0.02422546834952051
sba(innWeight
NNWeight
p288
(dp289
g3
F0.00431327097366746
sba(innWeight
NNWeight
p290
(dp291
g3
F-0.03666958261604608
sba(innWeight
NNWeight
p292
(dp293
g3
F0.00950847414810615
sba(innWeight
NNWeight
p294
(dp295
g3
F-0.024087652215389922
sba(innWeight
NNWeight
p296
(dp297
g3
F0.0368745889159856
sba(innWeight
NNWeight
p298
(dp299
g3
F-0.04102824815311945
sba(innWeight
NNWeight
p300
(dp301
g3
F-0.021083322337224798
sba(innWeight
NNWeight
p302
(dp303
g3
F0.031936985982587
sba(innWeight
NNWeight
p304
(dp305
g3
F-0.014877005951344214
sba(innWeight
NNWeight
p306
(dp307
g3
F0.00248547002909868
sba(innWeight
NNWeight
p308
(dp309
g3
F-0.033962219784943716
sba(innWeight
NNWeight
p310
(dp311
g3
F-0.021949123574813757
sba(innWeight
NNWeight
p312
(dp313
g3
F-0.04064663637309074
sba.