(lp0
(innWeight
NNWeight
p1
(dp2
S'val'
p3
F-0.046246860404314825
sba(innWeight
NNWeight
p4
(dp5
g3
F-0.04408677666448107
sba(innWeight
NNWeight
p6
(dp7
g3
F0.07163352279437465
sba(innWeight
NNWeight
p8
(dp9
g3
F-0.03031452340688856
sba(innWeight
NNWeight
p10
(dp11
g3
F0.04297651933567399
sba(innWeight
NNWeight
p12
(dp13
g3
F0.024782260198988465
sba(innWeight
NNWeight
p14
(dp15
g3
F-0.05004164872222896
sba(innWeight
NNWeight
p16
(dp17
g3
F0.04865579879847417
sba(innWeight
NNWeight
p18
(dp19
g3
F0.005521074831987852
sba(innWeight
NNWeight
p20
(dp21
g3
F0.06983154708524203
sba(innWeight
NNWeight
p22
(dp23
g3
F0.012578185929490435
sba(innWeight
NNWeight
p24
(dp25
g3
F-0.02624002503477468
sba(innWeight
NNWeight
p26
(dp27
g3
F0.05045768662581618
sba(innWeight
NNWeight
p28
(dp29
g3
F0.043265800995547526
sba(innWeight
NNWeight
p30
(dp31
g3
F0.03248544269542053
sba(innWeight
NNWeight
p32
(dp33
g3
F-0.010768310240140022
sba(innWeight
NNWeight
p34
(dp35
g3
F0.013800248227095491
sba(innWeight
NNWeight
p36
(dp37
g3
F0.014469015205428676
sba(innWeight
NNWeight
p38
(dp39
g3
F0.007428834113537649
sba(innWeight
NNWeight
p40
(dp41
g3
F0.03491780195728115
sba(innWeight
NNWeight
p42
(dp43
g3
F0.055961253834255514
sba(innWeight
NNWeight
p44
(dp45
g3
F0.05764884664331408
sba(innWeight
NNWeight
p46
(dp47
g3
F0.03824665713990898
sba(innWeight
NNWeight
p48
(dp49
g3
F0.028943346704855186
sba(innWeight
NNWeight
p50
(dp51
g3
F0.025579752415441658
sba(innWeight
NNWeight
p52
(dp53
g3
F-0.0012193520898306303
sba(innWeight
NNWeight
p54
(dp55
g3
F-0.011546257591786303
sba(innWeight
NNWeight
p56
(dp57
g3
F0.017555416379779823
sba(innWeight
NNWeight
p58
(dp59
g3
F-0.0029970217410037656
sba(innWeight
NNWeight
p60
(dp61
g3
F0.01154171896657655
sba(innWeight
NNWeight
p62
(dp63
g3
F0.011339848517774065
sba(innWeight
NNWeight
p64
(dp65
g3
F0.33271967191191015
sba(innWeight
NNWeight
p66
(dp67
g3
F-0.05473776087337951
sba(innWeight
NNWeight
p68
(dp69
g3
F-0.015777268067862116
sba(innWeight
NNWeight
p70
(dp71
g3
F0.024296098511645187
sba(innWeight
NNWeight
p72
(dp73
g3
F0.007108828253850943
sba(innWeight
NNWeight
p74
(dp75
g3
F-0.019650626630019867
sba(innWeight
NNWeight
p76
(dp77
g3
F-0.005499216831971371
sba(innWeight
NNWeight
p78
(dp79
g3
F0.06634277702421168
sba(innWeight
NNWeight
p80
(dp81
g3
F-0.06169670458279839
sba(innWeight
NNWeight
p82
(dp83
g3
F-0.030819194069943805
sba(innWeight
NNWeight
p84
(dp85
g3
F0.013778311064400674
sba(innWeight
NNWeight
p86
(dp87
g3
F-0.001466253820780212
sba(innWeight
NNWeight
p88
(dp89
g3
F0.01725675470819664
sba(innWeight
NNWeight
p90
(dp91
g3
F0.01946186241617608
sba(innWeight
NNWeight
p92
(dp93
g3
F-0.00895283039342866
sba(innWeight
NNWeight
p94
(dp95
g3
F-0.01827778546028467
sba(innWeight
NNWeight
p96
(dp97
g3
F0.0317806665317608
sba(innWeight
NNWeight
p98
(dp99
g3
F-0.03942777918941841
sba(innWeight
NNWeight
p100
(dp101
g3
F-0.0216648443095919
sba(innWeight
NNWeight
p102
(dp103
g3
F0.005469625431329858
sba(innWeight
NNWeight
p104
(dp105
g3
F0.023586171372085706
sba(innWeight
NNWeight
p106
(dp107
g3
F-0.04685414395172566
sba(innWeight
NNWeight
p108
(dp109
g3
F0.0004071420615577788
sba(innWeight
NNWeight
p110
(dp111
g3
F0.008198959146860122
sba(innWeight
NNWeight
p112
(dp113
g3
F-0.0631556831018276
sba(innWeight
NNWeight
p114
(dp115
g3
F-0.010957577661204003
sba(innWeight
NNWeight
p116
(dp117
g3
F-0.01104038252227971
sba(innWeight
NNWeight
p118
(dp119
g3
F0.026807363007699536
sba(innWeight
NNWeight
p120
(dp121
g3
F-0.028930464593494912
sba(innWeight
NNWeight
p122
(dp123
g3
F-0.014224828753840546
sba(innWeight
NNWeight
p124
(dp125
g3
F-0.02009305349729709
sba(innWeight
NNWeight
p126
(dp127
g3
F-0.027522212283216475
sba(innWeight
NNWeight
p128
(dp129
g3
F-0.010302449886740322
sba(innWeight
NNWeight
p130
(dp131
g3
F-0.030187422333701256
sba(innWeight
NNWeight
p132
(dp133
g3
F-6.457980138752854e-05
sba(innWeight
NNWeight
p134
(dp135
g3
F0.06906182090376121
sba(innWeight
NNWeight
p136
(dp137
g3
F0.003912464215876555
sba(innWeight
NNWeight
p138
(dp139
g3
F-0.008386623705271167
sba(innWeight
NNWeight
p140
(dp141
g3
F0.0008772642347465365
sba(innWeight
NNWeight
p142
(dp143
g3
F0.006187893226538077
sba(innWeight
NNWeight
p144
(dp145
g3
F0.06286543744506227
sba(innWeight
NNWeight
p146
(dp147
g3
F-0.02785539941689574
sba(innWeight
NNWeight
p148
(dp149
g3
F-0.013745627606856178
sba(innWeight
NNWeight
p150
(dp151
g3
F0.006356147765458133
sba(innWeight
NNWeight
p152
(dp153
g3
F0.03150545447519524
sba(innWeight
NNWeight
p154
(dp155
g3
F0.04153352382107911
sba(innWeight
NNWeight
p156
(dp157
g3
F0.03532643790399419
sba(innWeight
NNWeight
p158
(dp159
g3
F0.012516213221272715
sba(innWeight
NNWeight
p160
(dp161
g3
F-0.0764199317623241
sba(innWeight
NNWeight
p162
(dp163
g3
F0.03070430372520797
sba(innWeight
NNWeight
p164
(dp165
g3
F-0.0026212025431272654
sba(innWeight
NNWeight
p166
(dp167
g3
F0.03362797243028983
sba(innWeight
NNWeight
p168
(dp169
g3
F0.03791115729336953
sba(innWeight
NNWeight
p170
(dp171
g3
F-0.024191662885114273
sba(innWeight
NNWeight
p172
(dp173
g3
F0.027075800880066846
sba(innWeight
NNWeight
p174
(dp175
g3
F-0.017276787110494643
sba(innWeight
NNWeight
p176
(dp177
g3
F0.009878011406042227
sba(innWeight
NNWeight
p178
(dp179
g3
F-0.026473998509997685
sba(innWeight
NNWeight
p180
(dp181
g3
F0.018100190624315744
sba(innWeight
NNWeight
p182
(dp183
g3
F0.010104269569243405
sba(innWeight
NNWeight
p184
(dp185
g3
F0.03273261635519877
sba(innWeight
NNWeight
p186
(dp187
g3
F-0.0033010362911687187
sba(innWeight
NNWeight
p188
(dp189
g3
F0.025808509038379248
sba(innWeight
NNWeight
p190
(dp191
g3
F-0.02227141641976302
sba(innWeight
NNWeight
p192
(dp193
g3
F-0.009484047253971914
sba(innWeight
NNWeight
p194
(dp195
g3
F0.022222961183801928
sba(innWeight
NNWeight
p196
(dp197
g3
F0.013919821959011997
sba(innWeight
NNWeight
p198
(dp199
g3
F0.011386425792341314
sba(innWeight
NNWeight
p200
(dp201
g3
F-0.02982303731888224
sba(innWeight
NNWeight
p202
(dp203
g3
F0.030373974259209933
sba(innWeight
NNWeight
p204
(dp205
g3
F-0.014251522429771872
sba(innWeight
NNWeight
p206
(dp207
g3
F-0.01074019720568501
sba(innWeight
NNWeight
p208
(dp209
g3
F0.000142357207180056
sba(innWeight
NNWeight
p210
(dp211
g3
F-0.00618194045829107
sba(innWeight
NNWeight
p212
(dp213
g3
F0.026830600654113853
sba(innWeight
NNWeight
p214
(dp215
g3
F-0.006120539361482458
sba(innWeight
NNWeight
p216
(dp217
g3
F-0.0008898526964923595
sba(innWeight
NNWeight
p218
(dp219
g3
F0.009173299510706443
sba(innWeight
NNWeight
p220
(dp221
g3
F-0.006968394182901528
sba(innWeight
NNWeight
p222
(dp223
g3
F-0.014117302275079657
sba(innWeight
NNWeight
p224
(dp225
g3
F-0.021045639635189975
sba(innWeight
NNWeight
p226
(dp227
g3
F0.0010484489597258006
sba(innWeight
NNWeight
p228
(dp229
g3
F-0.005871658780552908
sba(innWeight
NNWeight
p230
(dp231
g3
F0.003273474751189057
sba(innWeight
NNWeight
p232
(dp233
g3
F0.011819703222416843
sba(innWeight
NNWeight
p234
(dp235
g3
F-0.004178402479569952
sba(innWeight
NNWeight
p236
(dp237
g3
F0.012834165928867356
sba(innWeight
NNWeight
p238
(dp239
g3
F0.014879634330933651
sba(innWeight
NNWeight
p240
(dp241
g3
F0.05787737526796549
sba(innWeight
NNWeight
p242
(dp243
g3
F0.008780271673377546
sba(innWeight
NNWeight
p244
(dp245
g3
F-0.003402099485389807
sba(innWeight
NNWeight
p246
(dp247
g3
F0.006923923227182741
sba(innWeight
NNWeight
p248
(dp249
g3
F0.03713834396893698
sba(innWeight
NNWeight
p250
(dp251
g3
F-0.014507454846374447
sba(innWeight
NNWeight
p252
(dp253
g3
F-0.019075788013451996
sba(innWeight
NNWeight
p254
(dp255
g3
F0.011922917054758005
sba(innWeight
NNWeight
p256
(dp257
g3
F0.020672780575444822
sba(innWeight
NNWeight
p258
(dp259
g3
F0.01022438059466753
sba(innWeight
NNWeight
p260
(dp261
g3
F-0.013380558610844615
sba(innWeight
NNWeight
p262
(dp263
g3
F-0.012649953324271974
sba(innWeight
NNWeight
p264
(dp265
g3
F0.005850469839827503
sba(innWeight
NNWeight
p266
(dp267
g3
F-0.013759410649029068
sba(innWeight
NNWeight
p268
(dp269
g3
F0.007634011470140251
sba(innWeight
NNWeight
p270
(dp271
g3
F0.004333905328810949
sba(innWeight
NNWeight
p272
(dp273
g3
F0.005571744988738812
sba(innWeight
NNWeight
p274
(dp275
g3
F-0.006265239403763257
sba(innWeight
NNWeight
p276
(dp277
g3
F0.0002418089546138237
sba(innWeight
NNWeight
p278
(dp279
g3
F0.015755706158206827
sba(innWeight
NNWeight
p280
(dp281
g3
F0.01357505316974427
sba(innWeight
NNWeight
p282
(dp283
g3
F-0.00186357621106139
sba(innWeight
NNWeight
p284
(dp285
g3
F0.0026990799908260116
sba(innWeight
NNWeight
p286
(dp287
g3
F0.0189272007425123
sba(innWeight
NNWeight
p288
(dp289
g3
F-0.019019105523912148
sba(innWeight
NNWeight
p290
(dp291
g3
F0.006308937848101724
sba(innWeight
NNWeight
p292
(dp293
g3
F-0.013897127016274893
sba(innWeight
NNWeight
p294
(dp295
g3
F0.4611709974920924
sba(innWeight
NNWeight
p296
(dp297
g3
F-0.012304373557809641
sba(innWeight
NNWeight
p298
(dp299
g3
F-0.000699681036612661
sba(innWeight
NNWeight
p300
(dp301
g3
F-0.0073314692047583875
sba(innWeight
NNWeight
p302
(dp303
g3
F-0.006027353754331189
sba(innWeight
NNWeight
p304
(dp305
g3
F-0.027513937134071926
sba(innWeight
NNWeight
p306
(dp307
g3
F-0.03733593944834746
sba(innWeight
NNWeight
p308
(dp309
g3
F-0.03641994856678055
sba(innWeight
NNWeight
p310
(dp311
g3
F0.012796871356328782
sba(innWeight
NNWeight
p312
(dp313
g3
F0.02711003476034875
sba(innWeight
NNWeight
p314
(dp315
g3
F-0.06711186511716641
sba(innWeight
NNWeight
p316
(dp317
g3
F-0.004476381293328827
sba(innWeight
NNWeight
p318
(dp319
g3
F0.009958931210893023
sba(innWeight
NNWeight
p320
(dp321
g3
F-0.023030443625344302
sba(innWeight
NNWeight
p322
(dp323
g3
F0.010785582388386665
sba(innWeight
NNWeight
p324
(dp325
g3
F0.012789898662638558
sba(innWeight
NNWeight
p326
(dp327
g3
F-0.00576306082119515
sba(innWeight
NNWeight
p328
(dp329
g3
F0.002711858669638369
sba(innWeight
NNWeight
p330
(dp331
g3
F-0.022287881010722346
sba(innWeight
NNWeight
p332
(dp333
g3
F0.031175197781467774
sba(innWeight
NNWeight
p334
(dp335
g3
F-0.0013386228150211639
sba(innWeight
NNWeight
p336
(dp337
g3
F-0.029601522819372485
sba(innWeight
NNWeight
p338
(dp339
g3
F0.008859021038466966
sba(innWeight
NNWeight
p340
(dp341
g3
F0.0039418959614957
sba(innWeight
NNWeight
p342
(dp343
g3
F-0.008136732314221714
sba(innWeight
NNWeight
p344
(dp345
g3
F-0.03291070305477475
sba(innWeight
NNWeight
p346
(dp347
g3
F-0.022290069864898992
sba(innWeight
NNWeight
p348
(dp349
g3
F-0.011048192868714312
sba(innWeight
NNWeight
p350
(dp351
g3
F0.004428233338698284
sba(innWeight
NNWeight
p352
(dp353
g3
F0.005381030108268501
sba(innWeight
NNWeight
p354
(dp355
g3
F-0.007121461024037761
sba(innWeight
NNWeight
p356
(dp357
g3
F-0.000167421014827853
sba(innWeight
NNWeight
p358
(dp359
g3
F-0.004360526049386423
sba(innWeight
NNWeight
p360
(dp361
g3
F-0.00019916307959337348
sba(innWeight
NNWeight
p362
(dp363
g3
F-0.0322556765681815
sba(innWeight
NNWeight
p364
(dp365
g3
F0.0050648298561966195
sba(innWeight
NNWeight
p366
(dp367
g3
F0.0052019567034002805
sba(innWeight
NNWeight
p368
(dp369
g3
F-0.007636133883241011
sba(innWeight
NNWeight
p370
(dp371
g3
F-0.013545132830958657
sba(innWeight
NNWeight
p372
(dp373
g3
F-0.007556214040552982
sba(innWeight
NNWeight
p374
(dp375
g3
F-0.001017983322561628
sba(innWeight
NNWeight
p376
(dp377
g3
F-0.015790541109152078
sba(innWeight
NNWeight
p378
(dp379
g3
F0.004667125317131113
sba(innWeight
NNWeight
p380
(dp381
g3
F-0.011541103421051286
sba(innWeight
NNWeight
p382
(dp383
g3
F-0.014121161753226828
sba(innWeight
NNWeight
p384
(dp385
g3
F-0.027573593917573205
sba(innWeight
NNWeight
p386
(dp387
g3
F-0.026506631537967895
sba(innWeight
NNWeight
p388
(dp389
g3
F0.017455540277471315
sba(innWeight
NNWeight
p390
(dp391
g3
F-0.0217465069397751
sba(innWeight
NNWeight
p392
(dp393
g3
F0.022379618876432566
sba(innWeight
NNWeight
p394
(dp395
g3
F0.010644362586300164
sba(innWeight
NNWeight
p396
(dp397
g3
F0.019383933774258552
sba(innWeight
NNWeight
p398
(dp399
g3
F-0.0009067597267721132
sba(innWeight
NNWeight
p400
(dp401
g3
F0.0030262961948907844
sba(innWeight
NNWeight
p402
(dp403
g3
F-0.004223149852935051
sba(innWeight
NNWeight
p404
(dp405
g3
F0.10912278694926843
sba(innWeight
NNWeight
p406
(dp407
g3
F-0.07977455089790461
sba(innWeight
NNWeight
p408
(dp409
g3
F-0.0746884801830779
sba(innWeight
NNWeight
p410
(dp411
g3
F-0.022929247145148372
sba(innWeight
NNWeight
p412
(dp413
g3
F0.04423431238835685
sba(innWeight
NNWeight
p414
(dp415
g3
F0.0008347539193800473
sba(innWeight
NNWeight
p416
(dp417
g3
F-0.010939942510518812
sba(innWeight
NNWeight
p418
(dp419
g3
F0.05199748924446316
sba(innWeight
NNWeight
p420
(dp421
g3
F-0.036443350715442295
sba(innWeight
NNWeight
p422
(dp423
g3
F-0.02394840827663161
sba(innWeight
NNWeight
p424
(dp425
g3
F0.05450490839868592
sba(innWeight
NNWeight
p426
(dp427
g3
F0.057564961775082836
sba(innWeight
NNWeight
p428
(dp429
g3
F-0.059849921338069344
sba(innWeight
NNWeight
p430
(dp431
g3
F0.08720878993565187
sba(innWeight
NNWeight
p432
(dp433
g3
F-0.05537700557846017
sba(innWeight
NNWeight
p434
(dp435
g3
F-0.2093351929100287
sba(innWeight
NNWeight
p436
(dp437
g3
F-0.01479321734549197
sba(innWeight
NNWeight
p438
(dp439
g3
F-0.05572600033768611
sba(innWeight
NNWeight
p440
(dp441
g3
F0.052477649264503635
sba(innWeight
NNWeight
p442
(dp443
g3
F-0.003100781348837836
sba(innWeight
NNWeight
p444
(dp445
g3
F-0.003232619480633369
sba(innWeight
NNWeight
p446
(dp447
g3
F0.043875421371921526
sba(innWeight
NNWeight
p448
(dp449
g3
F0.03517222970005746
sba(innWeight
NNWeight
p450
(dp451
g3
F0.03484847903683957
sba(innWeight
NNWeight
p452
(dp453
g3
F0.03996856405409156
sba(innWeight
NNWeight
p454
(dp455
g3
F0.031931860156058964
sba(innWeight
NNWeight
p456
(dp457
g3
F0.041106879947331074
sba(innWeight
NNWeight
p458
(dp459
g3
F0.03177518576890028
sba(innWeight
NNWeight
p460
(dp461
g3
F-0.004162530206772782
sba(innWeight
NNWeight
p462
(dp463
g3
F0.08990801664619812
sba(innWeight
NNWeight
p464
(dp465
g3
F0.010648616333535652
sba(innWeight
NNWeight
p466
(dp467
g3
F0.030905583319184474
sba(innWeight
NNWeight
p468
(dp469
g3
F-0.12292053257195155
sba(innWeight
NNWeight
p470
(dp471
g3
F-0.060150297298451845
sba(innWeight
NNWeight
p472
(dp473
g3
F-0.008586359038490388
sba(innWeight
NNWeight
p474
(dp475
g3
F-0.008810387851469538
sba(innWeight
NNWeight
p476
(dp477
g3
F-0.020051204969367856
sba(innWeight
NNWeight
p478
(dp479
g3
F-0.0030458118486779693
sba(innWeight
NNWeight
p480
(dp481
g3
F-0.02876809309095651
sba(innWeight
NNWeight
p482
(dp483
g3
F-0.0600912718841
sba(innWeight
NNWeight
p484
(dp485
g3
F-0.10278120271454345
sba(innWeight
NNWeight
p486
(dp487
g3
F0.05830248984162555
sba(innWeight
NNWeight
p488
(dp489
g3
F0.03505971529123195
sba(innWeight
NNWeight
p490
(dp491
g3
F-0.02859391426862928
sba(innWeight
NNWeight
p492
(dp493
g3
F-0.05526384566958411
sba(innWeight
NNWeight
p494
(dp495
g3
F0.013786158105850784
sba(innWeight
NNWeight
p496
(dp497
g3
F-0.11627075725166107
sba(innWeight
NNWeight
p498
(dp499
g3
F-0.005734990017181652
sba(innWeight
NNWeight
p500
(dp501
g3
F-0.025715121393791843
sba(innWeight
NNWeight
p502
(dp503
g3
F-0.009053767549304304
sba(innWeight
NNWeight
p504
(dp505
g3
F0.00480700219017004
sba(innWeight
NNWeight
p506
(dp507
g3
F0.038562112671878326
sba(innWeight
NNWeight
p508
(dp509
g3
F-0.13191876857730636
sba(innWeight
NNWeight
p510
(dp511
g3
F-0.05337906339244858
sba(innWeight
NNWeight
p512
(dp513
g3
F-0.05393540212111693
sba(innWeight
NNWeight
p514
(dp515
g3
F0.002058851422597806
sba(innWeight
NNWeight
p516
(dp517
g3
F-0.025131414405147535
sba(innWeight
NNWeight
p518
(dp519
g3
F-0.10289475377088647
sba(innWeight
NNWeight
p520
(dp521
g3
F0.004786949989058876
sba(innWeight
NNWeight
p522
(dp523
g3
F-0.03698009728309081
sba(innWeight
NNWeight
p524
(dp525
g3
F0.024489667424409375
sba(innWeight
NNWeight
p526
(dp527
g3
F0.004949416787018196
sba(innWeight
NNWeight
p528
(dp529
g3
F0.08000961618417438
sba(innWeight
NNWeight
p530
(dp531
g3
F-0.01584306567124611
sba(innWeight
NNWeight
p532
(dp533
g3
F-0.013733029583598509
sba(innWeight
NNWeight
p534
(dp535
g3
F0.05042997056419207
sba(innWeight
NNWeight
p536
(dp537
g3
F0.023306903221270898
sba(innWeight
NNWeight
p538
(dp539
g3
F-0.009999434797370551
sba(innWeight
NNWeight
p540
(dp541
g3
F-0.06085471838496618
sba(innWeight
NNWeight
p542
(dp543
g3
F-0.01205443326287354
sba(innWeight
NNWeight
p544
(dp545
g3
F-0.008370824820306969
sba(innWeight
NNWeight
p546
(dp547
g3
F-0.04900358093802508
sba(innWeight
NNWeight
p548
(dp549
g3
F0.06521149620856495
sba(innWeight
NNWeight
p550
(dp551
g3
F0.08151848377032594
sba(innWeight
NNWeight
p552
(dp553
g3
F-0.05657069448046473
sba(innWeight
NNWeight
p554
(dp555
g3
F-0.004414854518952432
sba(innWeight
NNWeight
p556
(dp557
g3
F0.0003388657447003837
sba(innWeight
NNWeight
p558
(dp559
g3
F-0.051961176026275556
sba(innWeight
NNWeight
p560
(dp561
g3
F-0.003181544645338943
sba(innWeight
NNWeight
p562
(dp563
g3
F0.0025383803830657395
sba(innWeight
NNWeight
p564
(dp565
g3
F-0.09118159088707754
sba(innWeight
NNWeight
p566
(dp567
g3
F0.03378416926308588
sba(innWeight
NNWeight
p568
(dp569
g3
F-0.03965208585711029
sba(innWeight
NNWeight
p570
(dp571
g3
F-0.03612413293865684
sba(innWeight
NNWeight
p572
(dp573
g3
F-0.04051694338362947
sba(innWeight
NNWeight
p574
(dp575
g3
F-0.04364778647612163
sba(innWeight
NNWeight
p576
(dp577
g3
F-0.03011578495840521
sba(innWeight
NNWeight
p578
(dp579
g3
F0.023121212895132283
sba(innWeight
NNWeight
p580
(dp581
g3
F0.01363346757636755
sba(innWeight
NNWeight
p582
(dp583
g3
F-0.0009142833236927165
sba(innWeight
NNWeight
p584
(dp585
g3
F0.018424556962717505
sba(innWeight
NNWeight
p586
(dp587
g3
F0.0231327447584589
sba(innWeight
NNWeight
p588
(dp589
g3
F0.019582137659984077
sba(innWeight
NNWeight
p590
(dp591
g3
F-0.11510282106678209
sba(innWeight
NNWeight
p592
(dp593
g3
F0.09956263596263444
sba(innWeight
NNWeight
p594
(dp595
g3
F-0.013531444846635618
sba(innWeight
NNWeight
p596
(dp597
g3
F-0.05304456990012946
sba(innWeight
NNWeight
p598
(dp599
g3
F0.031637318382952036
sba(innWeight
NNWeight
p600
(dp601
g3
F-0.056082953153984476
sba(innWeight
NNWeight
p602
(dp603
g3
F-0.00915395762862203
sba(innWeight
NNWeight
p604
(dp605
g3
F0.05187428878516465
sba(innWeight
NNWeight
p606
(dp607
g3
F0.07649536853852455
sba(innWeight
NNWeight
p608
(dp609
g3
F-0.03633010489106613
sba(innWeight
NNWeight
p610
(dp611
g3
F-0.07037908048511245
sba(innWeight
NNWeight
p612
(dp613
g3
F-0.059969208218171616
sba(innWeight
NNWeight
p614
(dp615
g3
F-0.0023007018021154466
sba(innWeight
NNWeight
p616
(dp617
g3
F0.03795761630353406
sba(innWeight
NNWeight
p618
(dp619
g3
F0.05158590989389921
sba(innWeight
NNWeight
p620
(dp621
g3
F-0.005213056129872201
sba(innWeight
NNWeight
p622
(dp623
g3
F-0.017143910262693872
sba(innWeight
NNWeight
p624
(dp625
g3
F0.02411610943971736
sba(innWeight
NNWeight
p626
(dp627
g3
F-0.05472986336569932
sba(innWeight
NNWeight
p628
(dp629
g3
F-0.0092759565743479
sba(innWeight
NNWeight
p630
(dp631
g3
F0.0583537027232648
sba(innWeight
NNWeight
p632
(dp633
g3
F0.13448957177847565
sba(innWeight
NNWeight
p634
(dp635
g3
F0.020986731084576847
sba(innWeight
NNWeight
p636
(dp637
g3
F0.0882464529233884
sba(innWeight
NNWeight
p638
(dp639
g3
F-0.03826871047610083
sba(innWeight
NNWeight
p640
(dp641
g3
F0.05915053680351038
sba(innWeight
NNWeight
p642
(dp643
g3
F-0.028121261668467828
sba(innWeight
NNWeight
p644
(dp645
g3
F-0.05264201428426731
sba(innWeight
NNWeight
p646
(dp647
g3
F0.018983319164560645
sba(innWeight
NNWeight
p648
(dp649
g3
F-0.00791295103213216
sba(innWeight
NNWeight
p650
(dp651
g3
F0.17220798614974625
sba(innWeight
NNWeight
p652
(dp653
g3
F-0.11156814780139475
sba(innWeight
NNWeight
p654
(dp655
g3
F-0.05693617030477026
sba(innWeight
NNWeight
p656
(dp657
g3
F0.009593808217977676
sba(innWeight
NNWeight
p658
(dp659
g3
F-0.017784320165633038
sba(innWeight
NNWeight
p660
(dp661
g3
F-0.025568833469858394
sba(innWeight
NNWeight
p662
(dp663
g3
F0.133418175236639
sba(innWeight
NNWeight
p664
(dp665
g3
F-0.053272246362291664
sba(innWeight
NNWeight
p666
(dp667
g3
F-0.003132222968092751
sba(innWeight
NNWeight
p668
(dp669
g3
F-0.05110900893312714
sba(innWeight
NNWeight
p670
(dp671
g3
F-0.04865165082404896
sba(innWeight
NNWeight
p672
(dp673
g3
F-0.07529214629345832
sba(innWeight
NNWeight
p674
(dp675
g3
F0.004873628221180283
sba(innWeight
NNWeight
p676
(dp677
g3
F0.004442978527502542
sba(innWeight
NNWeight
p678
(dp679
g3
F-0.012821125948889978
sba(innWeight
NNWeight
p680
(dp681
g3
F-0.024847286107878338
sba(innWeight
NNWeight
p682
(dp683
g3
F0.031363538312101466
sba(innWeight
NNWeight
p684
(dp685
g3
F0.0645592458231192
sba(innWeight
NNWeight
p686
(dp687
g3
F0.06895651000980446
sba(innWeight
NNWeight
p688
(dp689
g3
F0.014299392292350312
sba(innWeight
NNWeight
p690
(dp691
g3
F-0.02120472866980262
sba(innWeight
NNWeight
p692
(dp693
g3
F0.21667420551532574
sba(innWeight
NNWeight
p694
(dp695
g3
F0.07488770262427444
sba(innWeight
NNWeight
p696
(dp697
g3
F0.03147313544291259
sba(innWeight
NNWeight
p698
(dp699
g3
F-0.020758387816288484
sba(innWeight
NNWeight
p700
(dp701
g3
F-0.03820883623139835
sba(innWeight
NNWeight
p702
(dp703
g3
F-0.021654244992945437
sba(innWeight
NNWeight
p704
(dp705
g3
F-0.03618119855102979
sba(innWeight
NNWeight
p706
(dp707
g3
F-0.04466747673932492
sba(innWeight
NNWeight
p708
(dp709
g3
F0.017348769468879584
sba(innWeight
NNWeight
p710
(dp711
g3
F0.06637585555777255
sba(innWeight
NNWeight
p712
(dp713
g3
F0.014838832278815984
sba(innWeight
NNWeight
p714
(dp715
g3
F-0.04730260564477544
sba(innWeight
NNWeight
p716
(dp717
g3
F0.0013395189758287967
sba(innWeight
NNWeight
p718
(dp719
g3
F-0.10969670028775909
sba(innWeight
NNWeight
p720
(dp721
g3
F0.021005620437246086
sba(innWeight
NNWeight
p722
(dp723
g3
F0.06241158771832602
sba(innWeight
NNWeight
p724
(dp725
g3
F0.04521256783422848
sba(innWeight
NNWeight
p726
(dp727
g3
F0.008981727346799221
sba(innWeight
NNWeight
p728
(dp729
g3
F-0.01678496949149346
sba(innWeight
NNWeight
p730
(dp731
g3
F0.04768536052661627
sba(innWeight
NNWeight
p732
(dp733
g3
F0.045652591397011305
sba(innWeight
NNWeight
p734
(dp735
g3
F0.026153698025810565
sba(innWeight
NNWeight
p736
(dp737
g3
F0.06458352115815197
sba(innWeight
NNWeight
p738
(dp739
g3
F0.007323939558106956
sba(innWeight
NNWeight
p740
(dp741
g3
F0.03620047202092076
sba(innWeight
NNWeight
p742
(dp743
g3
F-0.01486920252482081
sba(innWeight
NNWeight
p744
(dp745
g3
F0.031359989250197416
sba(innWeight
NNWeight
p746
(dp747
g3
F-0.02717292643781948
sba(innWeight
NNWeight
p748
(dp749
g3
F-0.005221288225191396
sba(innWeight
NNWeight
p750
(dp751
g3
F0.04388811431532129
sba(innWeight
NNWeight
p752
(dp753
g3
F-0.0074581898454406355
sba(innWeight
NNWeight
p754
(dp755
g3
F-0.01788670526042741
sba(innWeight
NNWeight
p756
(dp757
g3
F0.005198175807289899
sba(innWeight
NNWeight
p758
(dp759
g3
F0.021680378898268675
sba(innWeight
NNWeight
p760
(dp761
g3
F-0.04964042603302573
sba(innWeight
NNWeight
p762
(dp763
g3
F0.014813060938575278
sba(innWeight
NNWeight
p764
(dp765
g3
F-0.036508640139791174
sba(innWeight
NNWeight
p766
(dp767
g3
F0.03758251433626227
sba(innWeight
NNWeight
p768
(dp769
g3
F-0.02312508136029305
sba(innWeight
NNWeight
p770
(dp771
g3
F-0.022067280669956515
sba(innWeight
NNWeight
p772
(dp773
g3
F-0.06537570525923515
sba(innWeight
NNWeight
p774
(dp775
g3
F0.08458434043770201
sba(innWeight
NNWeight
p776
(dp777
g3
F-0.014381599557800209
sba(innWeight
NNWeight
p778
(dp779
g3
F0.03464214305961887
sba(innWeight
NNWeight
p780
(dp781
g3
F-0.033993888693786195
sba(innWeight
NNWeight
p782
(dp783
g3
F-0.07477656331817654
sba(innWeight
NNWeight
p784
(dp785
g3
F0.0619054312353945
sba(innWeight
NNWeight
p786
(dp787
g3
F-0.009470753925201143
sba(innWeight
NNWeight
p788
(dp789
g3
F-0.07966993018284016
sba(innWeight
NNWeight
p790
(dp791
g3
F0.038643650376552686
sba(innWeight
NNWeight
p792
(dp793
g3
F0.042896874405416445
sba(innWeight
NNWeight
p794
(dp795
g3
F0.03142599928878027
sba(innWeight
NNWeight
p796
(dp797
g3
F0.03004985815783901
sba(innWeight
NNWeight
p798
(dp799
g3
F0.00295663333151264
sba(innWeight
NNWeight
p800
(dp801
g3
F-0.029885878098983014
sba(innWeight
NNWeight
p802
(dp803
g3
F0.044489135195403325
sba(innWeight
NNWeight
p804
(dp805
g3
F0.008528934798694295
sba(innWeight
NNWeight
p806
(dp807
g3
F0.030345078928929067
sba(innWeight
NNWeight
p808
(dp809
g3
F0.0353182890662673
sba(innWeight
NNWeight
p810
(dp811
g3
F-0.10718232319978252
sba(innWeight
NNWeight
p812
(dp813
g3
F0.14956145507486585
sba(innWeight
NNWeight
p814
(dp815
g3
F-0.026044999742710916
sba(innWeight
NNWeight
p816
(dp817
g3
F-0.1001462816114409
sba(innWeight
NNWeight
p818
(dp819
g3
F0.003338987196574439
sba(innWeight
NNWeight
p820
(dp821
g3
F-0.013919601065633823
sba(innWeight
NNWeight
p822
(dp823
g3
F0.003737354270541086
sba(innWeight
NNWeight
p824
(dp825
g3
F-0.020953389127246515
sba(innWeight
NNWeight
p826
(dp827
g3
F0.12363695548507722
sba(innWeight
NNWeight
p828
(dp829
g3
F0.026359631250594283
sba(innWeight
NNWeight
p830
(dp831
g3
F0.05829570138274153
sba(innWeight
NNWeight
p832
(dp833
g3
F0.07650694007309922
sba(innWeight
NNWeight
p834
(dp835
g3
F-0.021619609730867455
sba(innWeight
NNWeight
p836
(dp837
g3
F0.15827446786342145
sba(innWeight
NNWeight
p838
(dp839
g3
F0.06355463830694276
sba(innWeight
NNWeight
p840
(dp841
g3
F-0.020418237871514422
sba(innWeight
NNWeight
p842
(dp843
g3
F-0.010416826146702559
sba(innWeight
NNWeight
p844
(dp845
g3
F0.051954890582102065
sba(innWeight
NNWeight
p846
(dp847
g3
F-0.04180302152233962
sba(innWeight
NNWeight
p848
(dp849
g3
F-0.017871811850336424
sba(innWeight
NNWeight
p850
(dp851
g3
F0.01933707473336601
sba(innWeight
NNWeight
p852
(dp853
g3
F0.05596466778675025
sba(innWeight
NNWeight
p854
(dp855
g3
F0.06770426079924596
sba(innWeight
NNWeight
p856
(dp857
g3
F-0.04733919507800707
sba(innWeight
NNWeight
p858
(dp859
g3
F0.028055719819137695
sba(innWeight
NNWeight
p860
(dp861
g3
F-0.020570369548538386
sba(innWeight
NNWeight
p862
(dp863
g3
F-0.0046508581904121295
sba(innWeight
NNWeight
p864
(dp865
g3
F0.04632903468700615
sba(innWeight
NNWeight
p866
(dp867
g3
F-0.006443047370133282
sba(innWeight
NNWeight
p868
(dp869
g3
F0.043370398120363876
sba(innWeight
NNWeight
p870
(dp871
g3
F0.01589047520030168
sba(innWeight
NNWeight
p872
(dp873
g3
F-0.015503463386451385
sba(innWeight
NNWeight
p874
(dp875
g3
F-0.10864863617415339
sba(innWeight
NNWeight
p876
(dp877
g3
F-0.023007230260808274
sba(innWeight
NNWeight
p878
(dp879
g3
F0.024920454107918523
sba(innWeight
NNWeight
p880
(dp881
g3
F-0.003199870519183231
sba(innWeight
NNWeight
p882
(dp883
g3
F0.017753820917722905
sba(innWeight
NNWeight
p884
(dp885
g3
F0.009814424152831494
sba(innWeight
NNWeight
p886
(dp887
g3
F0.0529514258031871
sba(innWeight
NNWeight
p888
(dp889
g3
F-0.002272636196739208
sba(innWeight
NNWeight
p890
(dp891
g3
F-0.023067392304499428
sba(innWeight
NNWeight
p892
(dp893
g3
F-0.018618772932334403
sba(innWeight
NNWeight
p894
(dp895
g3
F0.0007194756431984126
sba(innWeight
NNWeight
p896
(dp897
g3
F0.00817602273316248
sba(innWeight
NNWeight
p898
(dp899
g3
F-0.028707444747765095
sba(innWeight
NNWeight
p900
(dp901
g3
F-0.03628585924495421
sba(innWeight
NNWeight
p902
(dp903
g3
F0.04871444037637085
sba(innWeight
NNWeight
p904
(dp905
g3
F0.011672967123494143
sba(innWeight
NNWeight
p906
(dp907
g3
F-0.11582282147946768
sba(innWeight
NNWeight
p908
(dp909
g3
F-0.011312985607938558
sba(innWeight
NNWeight
p910
(dp911
g3
F-0.03029943825455877
sba(innWeight
NNWeight
p912
(dp913
g3
F-0.03065959596064661
sba(innWeight
NNWeight
p914
(dp915
g3
F0.01484214996170644
sba(innWeight
NNWeight
p916
(dp917
g3
F0.06946492763172876
sba(innWeight
NNWeight
p918
(dp919
g3
F0.09586728943029302
sba(innWeight
NNWeight
p920
(dp921
g3
F-0.1345918162237916
sba(innWeight
NNWeight
p922
(dp923
g3
F0.0036724942024359353
sba(innWeight
NNWeight
p924
(dp925
g3
F0.047354207515743076
sba(innWeight
NNWeight
p926
(dp927
g3
F-0.04893504096651027
sba(innWeight
NNWeight
p928
(dp929
g3
F-0.01485848757832091
sba(innWeight
NNWeight
p930
(dp931
g3
F0.0014640793372697307
sba(innWeight
NNWeight
p932
(dp933
g3
F0.05475323415582217
sba(innWeight
NNWeight
p934
(dp935
g3
F-0.009173513995709233
sba(innWeight
NNWeight
p936
(dp937
g3
F-0.024225279866293813
sba(innWeight
NNWeight
p938
(dp939
g3
F-0.01042270263095872
sba(innWeight
NNWeight
p940
(dp941
g3
F-0.01969714938057471
sba(innWeight
NNWeight
p942
(dp943
g3
F0.08102930376460953
sba(innWeight
NNWeight
p944
(dp945
g3
F0.03191179347015238
sba(innWeight
NNWeight
p946
(dp947
g3
F-0.007005631152749007
sba(innWeight
NNWeight
p948
(dp949
g3
F-0.04427385690594592
sba(innWeight
NNWeight
p950
(dp951
g3
F-0.05217053648538767
sba(innWeight
NNWeight
p952
(dp953
g3
F0.059566268414423244
sba(innWeight
NNWeight
p954
(dp955
g3
F-0.003747796471312006
sba(innWeight
NNWeight
p956
(dp957
g3
F0.12511599077406776
sba(innWeight
NNWeight
p958
(dp959
g3
F0.008483937444531228
sba(innWeight
NNWeight
p960
(dp961
g3
F-0.02839915914536879
sba(innWeight
NNWeight
p962
(dp963
g3
F0.0017372036698804483
sba(innWeight
NNWeight
p964
(dp965
g3
F-0.012255927364553882
sba(innWeight
NNWeight
p966
(dp967
g3
F-0.17263045277765487
sba(innWeight
NNWeight
p968
(dp969
g3
F0.03235492359407789
sba(innWeight
NNWeight
p970
(dp971
g3
F0.09902493257779633
sba(innWeight
NNWeight
p972
(dp973
g3
F-0.008884560029274026
sba(innWeight
NNWeight
p974
(dp975
g3
F0.009757792603144874
sba(innWeight
NNWeight
p976
(dp977
g3
F-0.10871347123186036
sba(innWeight
NNWeight
p978
(dp979
g3
F-0.005279110541362028
sba(innWeight
NNWeight
p980
(dp981
g3
F-0.01872873805380471
sba(innWeight
NNWeight
p982
(dp983
g3
F0.030953131829303527
sba(innWeight
NNWeight
p984
(dp985
g3
F0.009979201470737293
sba(innWeight
NNWeight
p986
(dp987
g3
F0.01793479227141253
sba(innWeight
NNWeight
p988
(dp989
g3
F-0.016041465332690494
sba(innWeight
NNWeight
p990
(dp991
g3
F0.02799489838334066
sba(innWeight
NNWeight
p992
(dp993
g3
F-0.016255788320512988
sba(innWeight
NNWeight
p994
(dp995
g3
F0.01083809626463968
sba(innWeight
NNWeight
p996
(dp997
g3
F0.003912572033217686
sba(innWeight
NNWeight
p998
(dp999
g3
F-0.06894023855709452
sba(innWeight
NNWeight
p1000
(dp1001
g3
F-0.022827843336353917
sba(innWeight
NNWeight
p1002
(dp1003
g3
F-0.010255108620460885
sba(innWeight
NNWeight
p1004
(dp1005
g3
F0.008151354270121054
sba(innWeight
NNWeight
p1006
(dp1007
g3
F-0.053153343240944693
sba(innWeight
NNWeight
p1008
(dp1009
g3
F-0.004040990611973227
sba(innWeight
NNWeight
p1010
(dp1011
g3
F0.056864521846224335
sba(innWeight
NNWeight
p1012
(dp1013
g3
F0.0017356656370897477
sba(innWeight
NNWeight
p1014
(dp1015
g3
F-0.07281862180700141
sba(innWeight
NNWeight
p1016
(dp1017
g3
F0.015060551160419896
sba(innWeight
NNWeight
p1018
(dp1019
g3
F0.03718584381121167
sba(innWeight
NNWeight
p1020
(dp1021
g3
F0.012439118543088063
sba(innWeight
NNWeight
p1022
(dp1023
g3
F0.014923763925967592
sba(innWeight
NNWeight
p1024
(dp1025
g3
F-0.02683331753986155
sba(innWeight
NNWeight
p1026
(dp1027
g3
F0.03865473393668717
sba(innWeight
NNWeight
p1028
(dp1029
g3
F0.053501837714843424
sba(innWeight
NNWeight
p1030
(dp1031
g3
F0.0720953741657045
sba(innWeight
NNWeight
p1032
(dp1033
g3
F0.0421484071352711
sba(innWeight
NNWeight
p1034
(dp1035
g3
F-0.016690139119526885
sba(innWeight
NNWeight
p1036
(dp1037
g3
F0.048673863256724494
sba(innWeight
NNWeight
p1038
(dp1039
g3
F-0.038727392098028106
sba(innWeight
NNWeight
p1040
(dp1041
g3
F0.013149656102954835
sba(innWeight
NNWeight
p1042
(dp1043
g3
F0.13102122791205345
sba(innWeight
NNWeight
p1044
(dp1045
g3
F-0.043214161446501316
sba(innWeight
NNWeight
p1046
(dp1047
g3
F-0.021899835470181882
sba(innWeight
NNWeight
p1048
(dp1049
g3
F0.05718464686045677
sba(innWeight
NNWeight
p1050
(dp1051
g3
F-0.006369690301738993
sba(innWeight
NNWeight
p1052
(dp1053
g3
F-0.0712414071629126
sba(innWeight
NNWeight
p1054
(dp1055
g3
F-0.013921311564025209
sba(innWeight
NNWeight
p1056
(dp1057
g3
F-0.09472935240153661
sba(innWeight
NNWeight
p1058
(dp1059
g3
F-0.006033801458219797
sba(innWeight
NNWeight
p1060
(dp1061
g3
F-0.00020203616417874374
sba(innWeight
NNWeight
p1062
(dp1063
g3
F-0.014786439984848038
sba(innWeight
NNWeight
p1064
(dp1065
g3
F-0.02569658495036683
sba(innWeight
NNWeight
p1066
(dp1067
g3
F-0.08046172399623205
sba(innWeight
NNWeight
p1068
(dp1069
g3
F0.033215940027341594
sba(innWeight
NNWeight
p1070
(dp1071
g3
F0.03477602437387131
sba(innWeight
NNWeight
p1072
(dp1073
g3
F-0.019189821006152036
sba(innWeight
NNWeight
p1074
(dp1075
g3
F-0.0977960358136667
sba(innWeight
NNWeight
p1076
(dp1077
g3
F0.012383393656019523
sba(innWeight
NNWeight
p1078
(dp1079
g3
F0.01285602101866698
sba(innWeight
NNWeight
p1080
(dp1081
g3
F-0.009592666981145335
sba(innWeight
NNWeight
p1082
(dp1083
g3
F0.046290416741362986
sba(innWeight
NNWeight
p1084
(dp1085
g3
F0.014284724583678089
sba(innWeight
NNWeight
p1086
(dp1087
g3
F0.02257543969428489
sba(innWeight
NNWeight
p1088
(dp1089
g3
F-0.022190758607005416
sba(innWeight
NNWeight
p1090
(dp1091
g3
F0.0017800499687100188
sba(innWeight
NNWeight
p1092
(dp1093
g3
F0.03991511239248432
sba(innWeight
NNWeight
p1094
(dp1095
g3
F-0.007974002797165612
sba(innWeight
NNWeight
p1096
(dp1097
g3
F-0.15627955965279622
sba(innWeight
NNWeight
p1098
(dp1099
g3
F-0.04681987397681004
sba(innWeight
NNWeight
p1100
(dp1101
g3
F-0.035236264433081275
sba(innWeight
NNWeight
p1102
(dp1103
g3
F-0.07162696116314698
sba(innWeight
NNWeight
p1104
(dp1105
g3
F0.013982856912836268
sba(innWeight
NNWeight
p1106
(dp1107
g3
F-0.006457302785919225
sba(innWeight
NNWeight
p1108
(dp1109
g3
F-0.04933974901395815
sba(innWeight
NNWeight
p1110
(dp1111
g3
F0.039454918025187385
sba(innWeight
NNWeight
p1112
(dp1113
g3
F-0.0800866296314531
sba(innWeight
NNWeight
p1114
(dp1115
g3
F0.013895744534938952
sba(innWeight
NNWeight
p1116
(dp1117
g3
F0.006943113167028981
sba(innWeight
NNWeight
p1118
(dp1119
g3
F-0.0032654624796152228
sba(innWeight
NNWeight
p1120
(dp1121
g3
F-0.005328318402246208
sba(innWeight
NNWeight
p1122
(dp1123
g3
F-0.019952232265229495
sba(innWeight
NNWeight
p1124
(dp1125
g3
F0.06178494132085283
sba(innWeight
NNWeight
p1126
(dp1127
g3
F-0.025959485822314762
sba(innWeight
NNWeight
p1128
(dp1129
g3
F-0.04803862280426447
sba(innWeight
NNWeight
p1130
(dp1131
g3
F0.028538663515279884
sba(innWeight
NNWeight
p1132
(dp1133
g3
F-0.02412546347765232
sba(innWeight
NNWeight
p1134
(dp1135
g3
F0.03901513100011563
sba(innWeight
NNWeight
p1136
(dp1137
g3
F-0.018888810897299435
sba(innWeight
NNWeight
p1138
(dp1139
g3
F0.006047504873801359
sba(innWeight
NNWeight
p1140
(dp1141
g3
F-0.0606216204435844
sba(innWeight
NNWeight
p1142
(dp1143
g3
F-0.010561533716881507
sba(innWeight
NNWeight
p1144
(dp1145
g3
F0.07381929084261916
sba(innWeight
NNWeight
p1146
(dp1147
g3
F0.012478456821905988
sba(innWeight
NNWeight
p1148
(dp1149
g3
F0.010305061859550357
sba(innWeight
NNWeight
p1150
(dp1151
g3
F0.06856405528144649
sba(innWeight
NNWeight
p1152
(dp1153
g3
F0.0011734361365718026
sba(innWeight
NNWeight
p1154
(dp1155
g3
F0.012193415034621364
sba(innWeight
NNWeight
p1156
(dp1157
g3
F-0.023195879247757796
sba(innWeight
NNWeight
p1158
(dp1159
g3
F0.02703248570617136
sba(innWeight
NNWeight
p1160
(dp1161
g3
F-0.005236186843215796
sba(innWeight
NNWeight
p1162
(dp1163
g3
F-0.05968680357464389
sba(innWeight
NNWeight
p1164
(dp1165
g3
F0.08890418731556282
sba(innWeight
NNWeight
p1166
(dp1167
g3
F-0.009249481900445916
sba(innWeight
NNWeight
p1168
(dp1169
g3
F0.03671606268870203
sba(innWeight
NNWeight
p1170
(dp1171
g3
F-0.009710553092754252
sba(innWeight
NNWeight
p1172
(dp1173
g3
F-0.006830263123141708
sba(innWeight
NNWeight
p1174
(dp1175
g3
F-0.003586180018937444
sba(innWeight
NNWeight
p1176
(dp1177
g3
F0.015547936522110808
sba(innWeight
NNWeight
p1178
(dp1179
g3
F0.047699063578825814
sba(innWeight
NNWeight
p1180
(dp1181
g3
F0.021607738986379695
sba(innWeight
NNWeight
p1182
(dp1183
g3
F-0.003084662254646657
sba(innWeight
NNWeight
p1184
(dp1185
g3
F0.10332569940656487
sba(innWeight
NNWeight
p1186
(dp1187
g3
F-0.15101942976657928
sba(innWeight
NNWeight
p1188
(dp1189
g3
F0.004383786433962328
sba(innWeight
NNWeight
p1190
(dp1191
g3
F0.013907172758283454
sba(innWeight
NNWeight
p1192
(dp1193
g3
F0.16390124176166854
sba(innWeight
NNWeight
p1194
(dp1195
g3
F-0.14989789435689116
sba(innWeight
NNWeight
p1196
(dp1197
g3
F0.018062195596556616
sba(innWeight
NNWeight
p1198
(dp1199
g3
F-0.06976999327007617
sba(innWeight
NNWeight
p1200
(dp1201
g3
F0.07604344545535456
sba(innWeight
NNWeight
p1202
(dp1203
g3
F-0.006452079108992953
sba(innWeight
NNWeight
p1204
(dp1205
g3
F-0.030620506874826935
sba(innWeight
NNWeight
p1206
(dp1207
g3
F-0.056182577541798936
sba(innWeight
NNWeight
p1208
(dp1209
g3
F-0.0034355751051998633
sba(innWeight
NNWeight
p1210
(dp1211
g3
F0.003372406350043727
sba(innWeight
NNWeight
p1212
(dp1213
g3
F0.027548422951510377
sba(innWeight
NNWeight
p1214
(dp1215
g3
F-0.06732915368600455
sba(innWeight
NNWeight
p1216
(dp1217
g3
F-0.03962630047610411
sba(innWeight
NNWeight
p1218
(dp1219
g3
F0.09122149299089519
sba(innWeight
NNWeight
p1220
(dp1221
g3
F-0.07511489065543127
sba(innWeight
NNWeight
p1222
(dp1223
g3
F-0.09158265466052622
sba(innWeight
NNWeight
p1224
(dp1225
g3
F-0.009910506283740595
sba(innWeight
NNWeight
p1226
(dp1227
g3
F0.03097338517780628
sba(innWeight
NNWeight
p1228
(dp1229
g3
F-0.02139096478185176
sba(innWeight
NNWeight
p1230
(dp1231
g3
F0.007375831187935141
sba(innWeight
NNWeight
p1232
(dp1233
g3
F-0.07867616700064552
sba(innWeight
NNWeight
p1234
(dp1235
g3
F-0.04767127779853178
sba(innWeight
NNWeight
p1236
(dp1237
g3
F0.005878355862335693
sba(innWeight
NNWeight
p1238
(dp1239
g3
F-0.05189689032192639
sba(innWeight
NNWeight
p1240
(dp1241
g3
F0.009109826852072242
sba(innWeight
NNWeight
p1242
(dp1243
g3
F0.048636297667191956
sba(innWeight
NNWeight
p1244
(dp1245
g3
F-0.01942697222639399
sba(innWeight
NNWeight
p1246
(dp1247
g3
F0.010386203296227591
sba(innWeight
NNWeight
p1248
(dp1249
g3
F-0.05819537479688238
sba(innWeight
NNWeight
p1250
(dp1251
g3
F-0.027576515538404563
sba(innWeight
NNWeight
p1252
(dp1253
g3
F-0.013776951711400224
sba(innWeight
NNWeight
p1254
(dp1255
g3
F-0.05996825069082192
sba(innWeight
NNWeight
p1256
(dp1257
g3
F0.08186829571952241
sba(innWeight
NNWeight
p1258
(dp1259
g3
F0.07097914134738614
sba(innWeight
NNWeight
p1260
(dp1261
g3
F-0.07438782306883314
sba(innWeight
NNWeight
p1262
(dp1263
g3
F0.012096801999177781
sba(innWeight
NNWeight
p1264
(dp1265
g3
F0.011281188006843959
sba(innWeight
NNWeight
p1266
(dp1267
g3
F0.004322715426967684
sba(innWeight
NNWeight
p1268
(dp1269
g3
F-0.0031926193278179102
sba(innWeight
NNWeight
p1270
(dp1271
g3
F-0.01998319913522765
sba(innWeight
NNWeight
p1272
(dp1273
g3
F0.0035804189834772893
sba(innWeight
NNWeight
p1274
(dp1275
g3
F0.05718913692456282
sba(innWeight
NNWeight
p1276
(dp1277
g3
F-0.08326903700290514
sba(innWeight
NNWeight
p1278
(dp1279
g3
F-0.13834228549690133
sba(innWeight
NNWeight
p1280
(dp1281
g3
F-0.030762802241108292
sba(innWeight
NNWeight
p1282
(dp1283
g3
F-0.020801617436082984
sba(innWeight
NNWeight
p1284
(dp1285
g3
F-0.015210137529464507
sba(innWeight
NNWeight
p1286
(dp1287
g3
F-0.05387297946202001
sba(innWeight
NNWeight
p1288
(dp1289
g3
F-0.021776578024635715
sba(innWeight
NNWeight
p1290
(dp1291
g3
F-0.03121309375957123
sba(innWeight
NNWeight
p1292
(dp1293
g3
F-0.04660683712459739
sba(innWeight
NNWeight
p1294
(dp1295
g3
F0.0049452782996278555
sba(innWeight
NNWeight
p1296
(dp1297
g3
F0.016872123302443826
sba(innWeight
NNWeight
p1298
(dp1299
g3
F0.049754894782562266
sba(innWeight
NNWeight
p1300
(dp1301
g3
F-0.0010328137151911195
sba(innWeight
NNWeight
p1302
(dp1303
g3
F-0.007601065858293429
sba(innWeight
NNWeight
p1304
(dp1305
g3
F-0.057274605589875925
sba(innWeight
NNWeight
p1306
(dp1307
g3
F-0.0576859059869304
sba(innWeight
NNWeight
p1308
(dp1309
g3
F-0.0007098903900567533
sba(innWeight
NNWeight
p1310
(dp1311
g3
F-0.06784379441258936
sba(innWeight
NNWeight
p1312
(dp1313
g3
F0.01898221483641722
sba(innWeight
NNWeight
p1314
(dp1315
g3
F0.013985543170131268
sba(innWeight
NNWeight
p1316
(dp1317
g3
F0.004713766968334711
sba(innWeight
NNWeight
p1318
(dp1319
g3
F-0.016632360206891152
sba(innWeight
NNWeight
p1320
(dp1321
g3
F0.05126426377690651
sba(innWeight
NNWeight
p1322
(dp1323
g3
F-0.07777058287539292
sba(innWeight
NNWeight
p1324
(dp1325
g3
F-0.1309015531351786
sba(innWeight
NNWeight
p1326
(dp1327
g3
F-0.004677457884943045
sba(innWeight
NNWeight
p1328
(dp1329
g3
F-0.09742973779376116
sba(innWeight
NNWeight
p1330
(dp1331
g3
F0.07632859439304644
sba(innWeight
NNWeight
p1332
(dp1333
g3
F-0.01664896835186138
sba(innWeight
NNWeight
p1334
(dp1335
g3
F0.010394597596884414
sba(innWeight
NNWeight
p1336
(dp1337
g3
F-0.04962171420109524
sba(innWeight
NNWeight
p1338
(dp1339
g3
F-0.015430787521941035
sba(innWeight
NNWeight
p1340
(dp1341
g3
F0.0869428647597511
sba(innWeight
NNWeight
p1342
(dp1343
g3
F-0.022001988634540146
sba(innWeight
NNWeight
p1344
(dp1345
g3
F0.0051081465311490085
sba(innWeight
NNWeight
p1346
(dp1347
g3
F-0.12972216742450515
sba(innWeight
NNWeight
p1348
(dp1349
g3
F0.011303169750895785
sba(innWeight
NNWeight
p1350
(dp1351
g3
F0.0021000181260809117
sba(innWeight
NNWeight
p1352
(dp1353
g3
F0.02524272029787902
sba(innWeight
NNWeight
p1354
(dp1355
g3
F-0.005969955791540909
sba(innWeight
NNWeight
p1356
(dp1357
g3
F0.13864681720069763
sba(innWeight
NNWeight
p1358
(dp1359
g3
F-0.015018583149639919
sba(innWeight
NNWeight
p1360
(dp1361
g3
F-0.004889258612643698
sba(innWeight
NNWeight
p1362
(dp1363
g3
F-0.010839286343200359
sba(innWeight
NNWeight
p1364
(dp1365
g3
F0.01166667635153831
sba(innWeight
NNWeight
p1366
(dp1367
g3
F-0.008218669858577499
sba(innWeight
NNWeight
p1368
(dp1369
g3
F0.004951419254035286
sba(innWeight
NNWeight
p1370
(dp1371
g3
F0.01143246825850549
sba(innWeight
NNWeight
p1372
(dp1373
g3
F0.11275538087753506
sba(innWeight
NNWeight
p1374
(dp1375
g3
F0.011154479838345279
sba(innWeight
NNWeight
p1376
(dp1377
g3
F0.031552821193128376
sba(innWeight
NNWeight
p1378
(dp1379
g3
F0.03946001698081
sba(innWeight
NNWeight
p1380
(dp1381
g3
F-0.03142701210603166
sba(innWeight
NNWeight
p1382
(dp1383
g3
F0.024778608309912176
sba(innWeight
NNWeight
p1384
(dp1385
g3
F-0.02990336907478908
sba(innWeight
NNWeight
p1386
(dp1387
g3
F0.024857610497503096
sba(innWeight
NNWeight
p1388
(dp1389
g3
F0.01565451760628112
sba(innWeight
NNWeight
p1390
(dp1391
g3
F0.004602374026775424
sba(innWeight
NNWeight
p1392
(dp1393
g3
F0.005482952640186004
sba(innWeight
NNWeight
p1394
(dp1395
g3
F0.025250061588576466
sba(innWeight
NNWeight
p1396
(dp1397
g3
F-0.017664028421650855
sba(innWeight
NNWeight
p1398
(dp1399
g3
F0.04610856479597465
sba(innWeight
NNWeight
p1400
(dp1401
g3
F-0.00490204551002625
sba(innWeight
NNWeight
p1402
(dp1403
g3
F0.01925271635817483
sba(innWeight
NNWeight
p1404
(dp1405
g3
F0.07483125627627511
sba(innWeight
NNWeight
p1406
(dp1407
g3
F-0.02115562125346566
sba(innWeight
NNWeight
p1408
(dp1409
g3
F0.04611160302551309
sba(innWeight
NNWeight
p1410
(dp1411
g3
F-0.001992528089269611
sba(innWeight
NNWeight
p1412
(dp1413
g3
F-0.023596196916772293
sba(innWeight
NNWeight
p1414
(dp1415
g3
F0.07132173024832017
sba(innWeight
NNWeight
p1416
(dp1417
g3
F-0.06999509637724288
sba(innWeight
NNWeight
p1418
(dp1419
g3
F0.06500378662681783
sba(innWeight
NNWeight
p1420
(dp1421
g3
F0.03898015510850502
sba(innWeight
NNWeight
p1422
(dp1423
g3
F-0.027767042569957146
sba(innWeight
NNWeight
p1424
(dp1425
g3
F-0.06669222204139698
sba(innWeight
NNWeight
p1426
(dp1427
g3
F0.0027728749990666313
sba(innWeight
NNWeight
p1428
(dp1429
g3
F-0.015591004965054537
sba(innWeight
NNWeight
p1430
(dp1431
g3
F0.011783280096104675
sba(innWeight
NNWeight
p1432
(dp1433
g3
F0.0016322267340357498
sba(innWeight
NNWeight
p1434
(dp1435
g3
F-0.06880441307171044
sba(innWeight
NNWeight
p1436
(dp1437
g3
F0.03548037216684612
sba(innWeight
NNWeight
p1438
(dp1439
g3
F0.02777458085644619
sba(innWeight
NNWeight
p1440
(dp1441
g3
F-0.11131984782938595
sba(innWeight
NNWeight
p1442
(dp1443
g3
F-0.03969619483277438
sba(innWeight
NNWeight
p1444
(dp1445
g3
F-0.027561688915772112
sba(innWeight
NNWeight
p1446
(dp1447
g3
F-0.026532321674923646
sba(innWeight
NNWeight
p1448
(dp1449
g3
F0.00915066609066664
sba(innWeight
NNWeight
p1450
(dp1451
g3
F0.017415348385103325
sba(innWeight
NNWeight
p1452
(dp1453
g3
F0.0006465362328308876
sba(innWeight
NNWeight
p1454
(dp1455
g3
F0.0054992069652437005
sba(innWeight
NNWeight
p1456
(dp1457
g3
F0.028467748838113104
sba(innWeight
NNWeight
p1458
(dp1459
g3
F0.040234135347792
sba(innWeight
NNWeight
p1460
(dp1461
g3
F-0.03254193753908979
sba(innWeight
NNWeight
p1462
(dp1463
g3
F0.04482756261508315
sba(innWeight
NNWeight
p1464
(dp1465
g3
F0.019028491403019206
sba(innWeight
NNWeight
p1466
(dp1467
g3
F0.001125362795602517
sba(innWeight
NNWeight
p1468
(dp1469
g3
F-0.005049224249543492
sba(innWeight
NNWeight
p1470
(dp1471
g3
F-0.0457458579151471
sba(innWeight
NNWeight
p1472
(dp1473
g3
F-0.027541660133578783
sba(innWeight
NNWeight
p1474
(dp1475
g3
F0.017456147232131423
sba(innWeight
NNWeight
p1476
(dp1477
g3
F0.025002126853375647
sba(innWeight
NNWeight
p1478
(dp1479
g3
F-0.03337747078075713
sba(innWeight
NNWeight
p1480
(dp1481
g3
F-0.010795233927759744
sba(innWeight
NNWeight
p1482
(dp1483
g3
F0.017321698270922368
sba(innWeight
NNWeight
p1484
(dp1485
g3
F-0.022300713951307578
sba(innWeight
NNWeight
p1486
(dp1487
g3
F-0.04248002549983511
sba(innWeight
NNWeight
p1488
(dp1489
g3
F0.03930038986236153
sba(innWeight
NNWeight
p1490
(dp1491
g3
F0.02911546489285206
sba(innWeight
NNWeight
p1492
(dp1493
g3
F-0.035833905401172275
sba(innWeight
NNWeight
p1494
(dp1495
g3
F0.12994794110647562
sba(innWeight
NNWeight
p1496
(dp1497
g3
F-0.004452742020428503
sba(innWeight
NNWeight
p1498
(dp1499
g3
F-0.027401654773018324
sba(innWeight
NNWeight
p1500
(dp1501
g3
F0.01817741066472694
sba(innWeight
NNWeight
p1502
(dp1503
g3
F-0.07342640479148899
sba(innWeight
NNWeight
p1504
(dp1505
g3
F-0.017223679517964184
sba(innWeight
NNWeight
p1506
(dp1507
g3
F-0.10912205251915089
sba(innWeight
NNWeight
p1508
(dp1509
g3
F0.05875768844331733
sba(innWeight
NNWeight
p1510
(dp1511
g3
F0.015592191995485302
sba(innWeight
NNWeight
p1512
(dp1513
g3
F-0.018481033662933986
sba(innWeight
NNWeight
p1514
(dp1515
g3
F-0.004567751162924727
sba(innWeight
NNWeight
p1516
(dp1517
g3
F-0.005811704691585113
sba(innWeight
NNWeight
p1518
(dp1519
g3
F0.011936388227036547
sba(innWeight
NNWeight
p1520
(dp1521
g3
F-0.10232983873311999
sba(innWeight
NNWeight
p1522
(dp1523
g3
F-0.039379171123941806
sba(innWeight
NNWeight
p1524
(dp1525
g3
F-0.09443342699022252
sba(innWeight
NNWeight
p1526
(dp1527
g3
F-0.05316830526140912
sba(innWeight
NNWeight
p1528
(dp1529
g3
F0.013757296574066257
sba(innWeight
NNWeight
p1530
(dp1531
g3
F0.003727933751259176
sba(innWeight
NNWeight
p1532
(dp1533
g3
F0.042392709793686804
sba(innWeight
NNWeight
p1534
(dp1535
g3
F-0.017354592151393896
sba(innWeight
NNWeight
p1536
(dp1537
g3
F0.02370368742287049
sba(innWeight
NNWeight
p1538
(dp1539
g3
F-0.048362948292597616
sba(innWeight
NNWeight
p1540
(dp1541
g3
F0.02674881525412523
sba(innWeight
NNWeight
p1542
(dp1543
g3
F0.031629968331874016
sba(innWeight
NNWeight
p1544
(dp1545
g3
F0.0036241097882566712
sba(innWeight
NNWeight
p1546
(dp1547
g3
F-0.00018995926427992804
sba(innWeight
NNWeight
p1548
(dp1549
g3
F-0.06382210536959804
sba(innWeight
NNWeight
p1550
(dp1551
g3
F0.0004516170378772458
sba(innWeight
NNWeight
p1552
(dp1553
g3
F0.03502825316895223
sba(innWeight
NNWeight
p1554
(dp1555
g3
F0.036881697837516485
sba(innWeight
NNWeight
p1556
(dp1557
g3
F0.04873976267064002
sba(innWeight
NNWeight
p1558
(dp1559
g3
F0.07223368911613091
sba(innWeight
NNWeight
p1560
(dp1561
g3
F-0.1322418255306433
sba(innWeight
NNWeight
p1562
(dp1563
g3
F0.05066770294616166
sba(innWeight
NNWeight
p1564
(dp1565
g3
F0.018576757819175234
sba(innWeight
NNWeight
p1566
(dp1567
g3
F0.009505835823798877
sba(innWeight
NNWeight
p1568
(dp1569
g3
F0.03274566988535569
sba(innWeight
NNWeight
p1570
(dp1571
g3
F-0.02612132016308721
sba(innWeight
NNWeight
p1572
(dp1573
g3
F-0.044397812489258386
sba(innWeight
NNWeight
p1574
(dp1575
g3
F-0.07286096331044778
sba(innWeight
NNWeight
p1576
(dp1577
g3
F-0.24455951135860904
sba(innWeight
NNWeight
p1578
(dp1579
g3
F-0.0113047187777677
sba(innWeight
NNWeight
p1580
(dp1581
g3
F0.030048753818698034
sba(innWeight
NNWeight
p1582
(dp1583
g3
F0.05625403656223927
sba(innWeight
NNWeight
p1584
(dp1585
g3
F-0.0014442716780248585
sba(innWeight
NNWeight
p1586
(dp1587
g3
F0.003222975364140287
sba(innWeight
NNWeight
p1588
(dp1589
g3
F-0.016362860298249703
sba(innWeight
NNWeight
p1590
(dp1591
g3
F0.004472369557592877
sba(innWeight
NNWeight
p1592
(dp1593
g3
F-0.019074387403283148
sba(innWeight
NNWeight
p1594
(dp1595
g3
F-0.010435077155552839
sba(innWeight
NNWeight
p1596
(dp1597
g3
F-0.012429065824191201
sba(innWeight
NNWeight
p1598
(dp1599
g3
F0.010656382948987545
sba(innWeight
NNWeight
p1600
(dp1601
g3
F-0.031576419796640595
sba(innWeight
NNWeight
p1602
(dp1603
g3
F-0.008363715454784287
sba(innWeight
NNWeight
p1604
(dp1605
g3
F-0.05492576734166927
sba(innWeight
NNWeight
p1606
(dp1607
g3
F-0.0385244794654504
sba(innWeight
NNWeight
p1608
(dp1609
g3
F0.0023794113031716936
sba(innWeight
NNWeight
p1610
(dp1611
g3
F0.016300593389609035
sba(innWeight
NNWeight
p1612
(dp1613
g3
F-0.017299167695213065
sba(innWeight
NNWeight
p1614
(dp1615
g3
F0.024028114689272188
sba(innWeight
NNWeight
p1616
(dp1617
g3
F0.03137118017640084
sba(innWeight
NNWeight
p1618
(dp1619
g3
F-0.2033264480552555
sba(innWeight
NNWeight
p1620
(dp1621
g3
F-0.04021513869613052
sba(innWeight
NNWeight
p1622
(dp1623
g3
F-0.019860581801661472
sba(innWeight
NNWeight
p1624
(dp1625
g3
F0.07186388849046371
sba(innWeight
NNWeight
p1626
(dp1627
g3
F0.088129911101432
sba(innWeight
NNWeight
p1628
(dp1629
g3
F0.01619166002544523
sba(innWeight
NNWeight
p1630
(dp1631
g3
F0.018046899120583788
sba(innWeight
NNWeight
p1632
(dp1633
g3
F-0.0347198096259963
sba(innWeight
NNWeight
p1634
(dp1635
g3
F0.03173773685133725
sba(innWeight
NNWeight
p1636
(dp1637
g3
F-0.049144986050549726
sba(innWeight
NNWeight
p1638
(dp1639
g3
F0.003197337144438376
sba(innWeight
NNWeight
p1640
(dp1641
g3
F0.006600543715105006
sba(innWeight
NNWeight
p1642
(dp1643
g3
F-0.0508058913154873
sba(innWeight
NNWeight
p1644
(dp1645
g3
F-0.038667116273077146
sba(innWeight
NNWeight
p1646
(dp1647
g3
F-0.01951433454247501
sba(innWeight
NNWeight
p1648
(dp1649
g3
F-0.019562109875310617
sba(innWeight
NNWeight
p1650
(dp1651
g3
F-0.019615493113611798
sba(innWeight
NNWeight
p1652
(dp1653
g3
F-0.044337964308790445
sba(innWeight
NNWeight
p1654
(dp1655
g3
F-0.013220381332788187
sba(innWeight
NNWeight
p1656
(dp1657
g3
F-0.008626940373146577
sba(innWeight
NNWeight
p1658
(dp1659
g3
F0.02944764460957412
sba(innWeight
NNWeight
p1660
(dp1661
g3
F0.1292583350245453
sba(innWeight
NNWeight
p1662
(dp1663
g3
F-0.00387722161236324
sba(innWeight
NNWeight
p1664
(dp1665
g3
F0.0579939247285893
sba(innWeight
NNWeight
p1666
(dp1667
g3
F-0.07739755707234336
sba(innWeight
NNWeight
p1668
(dp1669
g3
F-0.021022157525371465
sba(innWeight
NNWeight
p1670
(dp1671
g3
F0.02435081459249393
sba(innWeight
NNWeight
p1672
(dp1673
g3
F-0.06896731401763657
sba(innWeight
NNWeight
p1674
(dp1675
g3
F-0.018067305348795776
sba(innWeight
NNWeight
p1676
(dp1677
g3
F-0.0679398805981824
sba(innWeight
NNWeight
p1678
(dp1679
g3
F-0.05965480406167412
sba(innWeight
NNWeight
p1680
(dp1681
g3
F0.0607859853863929
sba(innWeight
NNWeight
p1682
(dp1683
g3
F-0.17667867838414
sba(innWeight
NNWeight
p1684
(dp1685
g3
F0.019387788835293084
sba(innWeight
NNWeight
p1686
(dp1687
g3
F0.0053167904946205945
sba(innWeight
NNWeight
p1688
(dp1689
g3
F0.006649889057554594
sba(innWeight
NNWeight
p1690
(dp1691
g3
F0.007875757413735286
sba(innWeight
NNWeight
p1692
(dp1693
g3
F-0.027029408156501674
sba(innWeight
NNWeight
p1694
(dp1695
g3
F-0.004971537014962974
sba(innWeight
NNWeight
p1696
(dp1697
g3
F0.12398365124688004
sba(innWeight
NNWeight
p1698
(dp1699
g3
F-0.04907770249747554
sba(innWeight
NNWeight
p1700
(dp1701
g3
F-0.03690206495629734
sba(innWeight
NNWeight
p1702
(dp1703
g3
F-0.08210105999024986
sba(innWeight
NNWeight
p1704
(dp1705
g3
F0.041320959373040374
sba(innWeight
NNWeight
p1706
(dp1707
g3
F0.0012239810753239988
sba(innWeight
NNWeight
p1708
(dp1709
g3
F-0.08050054101138784
sba(innWeight
NNWeight
p1710
(dp1711
g3
F-0.06309968830800149
sba(innWeight
NNWeight
p1712
(dp1713
g3
F0.005272103455548392
sba(innWeight
NNWeight
p1714
(dp1715
g3
F-0.09277279885552998
sba(innWeight
NNWeight
p1716
(dp1717
g3
F-0.013433062743003456
sba(innWeight
NNWeight
p1718
(dp1719
g3
F0.029723776650439734
sba(innWeight
NNWeight
p1720
(dp1721
g3
F0.10900858331581574
sba(innWeight
NNWeight
p1722
(dp1723
g3
F0.11317891924400113
sba(innWeight
NNWeight
p1724
(dp1725
g3
F0.04978508545880894
sba(innWeight
NNWeight
p1726
(dp1727
g3
F-0.026513648859276227
sba(innWeight
NNWeight
p1728
(dp1729
g3
F-0.25070071781665304
sba(innWeight
NNWeight
p1730
(dp1731
g3
F0.04582955376513473
sba(innWeight
NNWeight
p1732
(dp1733
g3
F0.004255426420503566
sba(innWeight
NNWeight
p1734
(dp1735
g3
F-0.022510283062598314
sba(innWeight
NNWeight
p1736
(dp1737
g3
F-0.04356355012159312
sba(innWeight
NNWeight
p1738
(dp1739
g3
F0.011195099394493662
sba(innWeight
NNWeight
p1740
(dp1741
g3
F-0.12781732826824638
sba(innWeight
NNWeight
p1742
(dp1743
g3
F0.008718603961675753
sba(innWeight
NNWeight
p1744
(dp1745
g3
F-0.06642125070627586
sba(innWeight
NNWeight
p1746
(dp1747
g3
F0.04605859994672583
sba(innWeight
NNWeight
p1748
(dp1749
g3
F0.004018711701752024
sba(innWeight
NNWeight
p1750
(dp1751
g3
F-0.01854555044792661
sba(innWeight
NNWeight
p1752
(dp1753
g3
F0.061525545716139614
sba(innWeight
NNWeight
p1754
(dp1755
g3
F-0.012071789205397507
sba(innWeight
NNWeight
p1756
(dp1757
g3
F-0.04532663748531879
sba(innWeight
NNWeight
p1758
(dp1759
g3
F0.14781294828064043
sba(innWeight
NNWeight
p1760
(dp1761
g3
F0.23556548313488326
sba(innWeight
NNWeight
p1762
(dp1763
g3
F0.04835142000002369
sba(innWeight
NNWeight
p1764
(dp1765
g3
F-0.040649700561591354
sba(innWeight
NNWeight
p1766
(dp1767
g3
F0.008454754445450564
sba(innWeight
NNWeight
p1768
(dp1769
g3
F0.02509286773720086
sba(innWeight
NNWeight
p1770
(dp1771
g3
F-0.061741984647445514
sba(innWeight
NNWeight
p1772
(dp1773
g3
F-0.031288834507567004
sba(innWeight
NNWeight
p1774
(dp1775
g3
F-0.012369579233814322
sba(innWeight
NNWeight
p1776
(dp1777
g3
F0.022645943662090048
sba(innWeight
NNWeight
p1778
(dp1779
g3
F-0.08471541582463267
sba(innWeight
NNWeight
p1780
(dp1781
g3
F-0.012151195926800574
sba(innWeight
NNWeight
p1782
(dp1783
g3
F-0.007849851195655596
sba(innWeight
NNWeight
p1784
(dp1785
g3
F-0.09817842339297832
sba(innWeight
NNWeight
p1786
(dp1787
g3
F0.008001617616288972
sba(innWeight
NNWeight
p1788
(dp1789
g3
F-0.015039977029264042
sba(innWeight
NNWeight
p1790
(dp1791
g3
F-0.07240263191293024
sba(innWeight
NNWeight
p1792
(dp1793
g3
F0.17293873880302413
sba(innWeight
NNWeight
p1794
(dp1795
g3
F-0.03401134046609007
sba(innWeight
NNWeight
p1796
(dp1797
g3
F-0.011939990299532553
sba(innWeight
NNWeight
p1798
(dp1799
g3
F-0.03498300978835592
sba(innWeight
NNWeight
p1800
(dp1801
g3
F0.0955287713621531
sba(innWeight
NNWeight
p1802
(dp1803
g3
F0.02724450541555585
sba(innWeight
NNWeight
p1804
(dp1805
g3
F-0.001267871748905012
sba(innWeight
NNWeight
p1806
(dp1807
g3
F0.0038964677765358845
sba(innWeight
NNWeight
p1808
(dp1809
g3
F-0.009962225568305474
sba(innWeight
NNWeight
p1810
(dp1811
g3
F-0.022766559896664602
sba(innWeight
NNWeight
p1812
(dp1813
g3
F0.01919263541994004
sba(innWeight
NNWeight
p1814
(dp1815
g3
F0.06629560725979942
sba(innWeight
NNWeight
p1816
(dp1817
g3
F-0.041858838399051634
sba(innWeight
NNWeight
p1818
(dp1819
g3
F0.22315161857119975
sba(innWeight
NNWeight
p1820
(dp1821
g3
F-0.09992740127272041
sba(innWeight
NNWeight
p1822
(dp1823
g3
F0.1679305253433417
sba(innWeight
NNWeight
p1824
(dp1825
g3
F-0.03306304990674943
sba(innWeight
NNWeight
p1826
(dp1827
g3
F0.07194457130873912
sba(innWeight
NNWeight
p1828
(dp1829
g3
F-0.03172533917620123
sba(innWeight
NNWeight
p1830
(dp1831
g3
F-0.019931969171342816
sba(innWeight
NNWeight
p1832
(dp1833
g3
F-0.0237043585810405
sba(innWeight
NNWeight
p1834
(dp1835
g3
F-0.0043433558487191905
sba(innWeight
NNWeight
p1836
(dp1837
g3
F-0.19297817467038586
sba(innWeight
NNWeight
p1838
(dp1839
g3
F0.038093901024712835
sba(innWeight
NNWeight
p1840
(dp1841
g3
F-0.0826990020770846
sba(innWeight
NNWeight
p1842
(dp1843
g3
F-0.07055248992082086
sba(innWeight
NNWeight
p1844
(dp1845
g3
F-0.06320565641509733
sba(innWeight
NNWeight
p1846
(dp1847
g3
F-0.07674117156849655
sba(innWeight
NNWeight
p1848
(dp1849
g3
F-0.0245697176908184
sba(innWeight
NNWeight
p1850
(dp1851
g3
F-0.003931860198880865
sba(innWeight
NNWeight
p1852
(dp1853
g3
F-0.007903547193781451
sba(innWeight
NNWeight
p1854
(dp1855
g3
F-0.05586714714893786
sba(innWeight
NNWeight
p1856
(dp1857
g3
F0.011766020335521755
sba(innWeight
NNWeight
p1858
(dp1859
g3
F-0.0126011777620311
sba(innWeight
NNWeight
p1860
(dp1861
g3
F0.018237087512187375
sba(innWeight
NNWeight
p1862
(dp1863
g3
F0.06170233897224757
sba(innWeight
NNWeight
p1864
(dp1865
g3
F-0.040355772792286436
sba(innWeight
NNWeight
p1866
(dp1867
g3
F0.02613325802574543
sba(innWeight
NNWeight
p1868
(dp1869
g3
F0.01838579554227242
sba(innWeight
NNWeight
p1870
(dp1871
g3
F-0.007591115673330014
sba(innWeight
NNWeight
p1872
(dp1873
g3
F0.005585605101737205
sba(innWeight
NNWeight
p1874
(dp1875
g3
F0.017327624206570535
sba(innWeight
NNWeight
p1876
(dp1877
g3
F0.013766906919010332
sba(innWeight
NNWeight
p1878
(dp1879
g3
F-0.03130851565198019
sba(innWeight
NNWeight
p1880
(dp1881
g3
F0.008114196790214405
sba(innWeight
NNWeight
p1882
(dp1883
g3
F0.015890901219026837
sba(innWeight
NNWeight
p1884
(dp1885
g3
F-0.08578286651913446
sba(innWeight
NNWeight
p1886
(dp1887
g3
F0.008290296409061133
sba(innWeight
NNWeight
p1888
(dp1889
g3
F0.027992580511846457
sba(innWeight
NNWeight
p1890
(dp1891
g3
F0.02766816766036638
sba(innWeight
NNWeight
p1892
(dp1893
g3
F-0.029914358500313723
sba(innWeight
NNWeight
p1894
(dp1895
g3
F-0.016644181990903385
sba(innWeight
NNWeight
p1896
(dp1897
g3
F-0.03205396138808198
sba(innWeight
NNWeight
p1898
(dp1899
g3
F-0.049985517010553496
sba(innWeight
NNWeight
p1900
(dp1901
g3
F-0.007635689720781264
sba(innWeight
NNWeight
p1902
(dp1903
g3
F0.01308318228458014
sba(innWeight
NNWeight
p1904
(dp1905
g3
F-0.056167787101562706
sba(innWeight
NNWeight
p1906
(dp1907
g3
F0.04047065430220059
sba(innWeight
NNWeight
p1908
(dp1909
g3
F0.029355597839274942
sba(innWeight
NNWeight
p1910
(dp1911
g3
F0.08077851010682986
sba(innWeight
NNWeight
p1912
(dp1913
g3
F0.01867361561393937
sba(innWeight
NNWeight
p1914
(dp1915
g3
F-0.0019879773195962624
sba(innWeight
NNWeight
p1916
(dp1917
g3
F-0.062014749270788726
sba(innWeight
NNWeight
p1918
(dp1919
g3
F0.06789329639993481
sba(innWeight
NNWeight
p1920
(dp1921
g3
F0.023459269556607643
sba(innWeight
NNWeight
p1922
(dp1923
g3
F-0.00820564358517304
sba(innWeight
NNWeight
p1924
(dp1925
g3
F0.07949245394175249
sba(innWeight
NNWeight
p1926
(dp1927
g3
F0.006501664891757658
sba(innWeight
NNWeight
p1928
(dp1929
g3
F0.021304838341304685
sba(innWeight
NNWeight
p1930
(dp1931
g3
F-0.17133646637443098
sba(innWeight
NNWeight
p1932
(dp1933
g3
F-0.008599649073562981
sba(innWeight
NNWeight
p1934
(dp1935
g3
F-0.018352807776518452
sba(innWeight
NNWeight
p1936
(dp1937
g3
F-0.03393277622036367
sba(innWeight
NNWeight
p1938
(dp1939
g3
F0.022611094952243716
sba(innWeight
NNWeight
p1940
(dp1941
g3
F0.00935825495109223
sba(innWeight
NNWeight
p1942
(dp1943
g3
F0.05004413639471275
sba(innWeight
NNWeight
p1944
(dp1945
g3
F-0.00242145304360698
sba(innWeight
NNWeight
p1946
(dp1947
g3
F-0.004036635709446663
sba(innWeight
NNWeight
p1948
(dp1949
g3
F-0.04424747747457815
sba(innWeight
NNWeight
p1950
(dp1951
g3
F-0.013517723535495116
sba(innWeight
NNWeight
p1952
(dp1953
g3
F0.017861543914061896
sba(innWeight
NNWeight
p1954
(dp1955
g3
F-0.0390853787360997
sba(innWeight
NNWeight
p1956
(dp1957
g3
F-0.006085353088935735
sba(innWeight
NNWeight
p1958
(dp1959
g3
F-0.002837240718951012
sba(innWeight
NNWeight
p1960
(dp1961
g3
F-0.03560107639121333
sba(innWeight
NNWeight
p1962
(dp1963
g3
F0.13905394220907502
sba(innWeight
NNWeight
p1964
(dp1965
g3
F0.10922896971564271
sba(innWeight
NNWeight
p1966
(dp1967
g3
F-0.08142499310185289
sba(innWeight
NNWeight
p1968
(dp1969
g3
F-0.0033428990253822934
sba(innWeight
NNWeight
p1970
(dp1971
g3
F-0.009409167571743387
sba(innWeight
NNWeight
p1972
(dp1973
g3
F-0.021158832103440973
sba(innWeight
NNWeight
p1974
(dp1975
g3
F0.0028781657963917887
sba(innWeight
NNWeight
p1976
(dp1977
g3
F0.19920244029057182
sba(innWeight
NNWeight
p1978
(dp1979
g3
F0.059789905439899864
sba(innWeight
NNWeight
p1980
(dp1981
g3
F0.21858922212542004
sba(innWeight
NNWeight
p1982
(dp1983
g3
F-0.003700811150551651
sba(innWeight
NNWeight
p1984
(dp1985
g3
F0.0061394368755661255
sba(innWeight
NNWeight
p1986
(dp1987
g3
F0.10218444145736624
sba(innWeight
NNWeight
p1988
(dp1989
g3
F0.018808430659628842
sba(innWeight
NNWeight
p1990
(dp1991
g3
F0.034226887127230314
sba(innWeight
NNWeight
p1992
(dp1993
g3
F-0.03829450193658748
sba(innWeight
NNWeight
p1994
(dp1995
g3
F0.018186548017138992
sba(innWeight
NNWeight
p1996
(dp1997
g3
F0.008356938703747666
sba(innWeight
NNWeight
p1998
(dp1999
g3
F-0.00016898170306906728
sba(innWeight
NNWeight
p2000
(dp2001
g3
F-0.04503507209030114
sba(innWeight
NNWeight
p2002
(dp2003
g3
F-0.003985565584413944
sba(innWeight
NNWeight
p2004
(dp2005
g3
F0.008248260496124312
sba(innWeight
NNWeight
p2006
(dp2007
g3
F-0.05775444991673979
sba(innWeight
NNWeight
p2008
(dp2009
g3
F0.011731058224034472
sba(innWeight
NNWeight
p2010
(dp2011
g3
F0.06987809850202294
sba(innWeight
NNWeight
p2012
(dp2013
g3
F0.004725399773538582
sba(innWeight
NNWeight
p2014
(dp2015
g3
F0.016053889759106127
sba(innWeight
NNWeight
p2016
(dp2017
g3
F0.006804744899904086
sba(innWeight
NNWeight
p2018
(dp2019
g3
F-0.016488710957383433
sba(innWeight
NNWeight
p2020
(dp2021
g3
F0.07870276188321358
sba.