(lp0
(innWeight
NNWeight
p1
(dp2
S'val'
p3
F-0.02327045403047795
sba(innWeight
NNWeight
p4
(dp5
g3
F0.021029880317881014
sba(innWeight
NNWeight
p6
(dp7
g3
F-0.011918722265204108
sba(innWeight
NNWeight
p8
(dp9
g3
F0.03270544305076935
sba(innWeight
NNWeight
p10
(dp11
g3
F-0.02302172091145588
sba(innWeight
NNWeight
p12
(dp13
g3
F0.0085190642452457
sba(innWeight
NNWeight
p14
(dp15
g3
F-0.047434558272959684
sba(innWeight
NNWeight
p16
(dp17
g3
F0.02214481048131908
sba(innWeight
NNWeight
p18
(dp19
g3
F-0.049554035998072316
sba(innWeight
NNWeight
p20
(dp21
g3
F-0.02784946767188964
sba(innWeight
NNWeight
p22
(dp23
g3
F-0.021054703036959412
sba(innWeight
NNWeight
p24
(dp25
g3
F0.03817338427844134
sba(innWeight
NNWeight
p26
(dp27
g3
F0.025831695143666313
sba(innWeight
NNWeight
p28
(dp29
g3
F-0.021464408185532427
sba(innWeight
NNWeight
p30
(dp31
g3
F0.015305168996187436
sba(innWeight
NNWeight
p32
(dp33
g3
F0.04420276687711895
sba(innWeight
NNWeight
p34
(dp35
g3
F0.038371295913395734
sba(innWeight
NNWeight
p36
(dp37
g3
F0.001097532068505147
sba(innWeight
NNWeight
p38
(dp39
g3
F-0.005532838450721278
sba(innWeight
NNWeight
p40
(dp41
g3
F-0.003986979904340215
sba(innWeight
NNWeight
p42
(dp43
g3
F-0.01820525127346857
sba(innWeight
NNWeight
p44
(dp45
g3
F-0.0002650282258830128
sba(innWeight
NNWeight
p46
(dp47
g3
F-0.04665790884272636
sba(innWeight
NNWeight
p48
(dp49
g3
F0.007963932951432762
sba(innWeight
NNWeight
p50
(dp51
g3
F-0.025960601362506122
sba(innWeight
NNWeight
p52
(dp53
g3
F-0.016843914611819766
sba(innWeight
NNWeight
p54
(dp55
g3
F-0.02460191509522588
sba(innWeight
NNWeight
p56
(dp57
g3
F-0.010045030601711347
sba(innWeight
NNWeight
p58
(dp59
g3
F0.019393435787436963
sba(innWeight
NNWeight
p60
(dp61
g3
F-0.01155729964411818
sba(innWeight
NNWeight
p62
(dp63
g3
F0.0033934320361933227
sba(innWeight
NNWeight
p64
(dp65
g3
F0.023172988775107574
sba(innWeight
NNWeight
p66
(dp67
g3
F-0.02387000731581873
sba(innWeight
NNWeight
p68
(dp69
g3
F-0.027883041182415327
sba(innWeight
NNWeight
p70
(dp71
g3
F0.04523595639892219
sba(innWeight
NNWeight
p72
(dp73
g3
F-0.04486094593605943
sba(innWeight
NNWeight
p74
(dp75
g3
F0.034394540465451
sba(innWeight
NNWeight
p76
(dp77
g3
F-0.002710770556475539
sba(innWeight
NNWeight
p78
(dp79
g3
F0.029571419718303873
sba(innWeight
NNWeight
p80
(dp81
g3
F-0.028339812270061063
sba(innWeight
NNWeight
p82
(dp83
g3
F-0.03867528656816998
sba(innWeight
NNWeight
p84
(dp85
g3
F-0.02179063389961382
sba(innWeight
NNWeight
p86
(dp87
g3
F0.009452712658793473
sba(innWeight
NNWeight
p88
(dp89
g3
F-0.0037479189201275022
sba(innWeight
NNWeight
p90
(dp91
g3
F-0.025185215059869082
sba(innWeight
NNWeight
p92
(dp93
g3
F0.005252675298414978
sba(innWeight
NNWeight
p94
(dp95
g3
F0.018658368490672907
sba(innWeight
NNWeight
p96
(dp97
g3
F-0.0331791777604318
sba(innWeight
NNWeight
p98
(dp99
g3
F0.033711157945730874
sba(innWeight
NNWeight
p100
(dp101
g3
F0.004770413779995053
sba(innWeight
NNWeight
p102
(dp103
g3
F0.0211713715978457
sba(innWeight
NNWeight
p104
(dp105
g3
F0.02586037884212246
sba(innWeight
NNWeight
p106
(dp107
g3
F-0.03017963174069146
sba(innWeight
NNWeight
p108
(dp109
g3
F-0.013863712271649897
sba(innWeight
NNWeight
p110
(dp111
g3
F0.02595835645001765
sba(innWeight
NNWeight
p112
(dp113
g3
F-0.0265574841351663
sba(innWeight
NNWeight
p114
(dp115
g3
F-0.013857390795886604
sba(innWeight
NNWeight
p116
(dp117
g3
F0.008287025845348605
sba(innWeight
NNWeight
p118
(dp119
g3
F-0.007164657604075653
sba(innWeight
NNWeight
p120
(dp121
g3
F-0.04997324974524321
sba(innWeight
NNWeight
p122
(dp123
g3
F0.0027583688986244415
sba(innWeight
NNWeight
p124
(dp125
g3
F-0.015771433704014837
sba(innWeight
NNWeight
p126
(dp127
g3
F0.03146569438404986
sba(innWeight
NNWeight
p128
(dp129
g3
F-0.010466439714013032
sba(innWeight
NNWeight
p130
(dp131
g3
F0.017961344648953437
sba(innWeight
NNWeight
p132
(dp133
g3
F0.005481279365515546
sba(innWeight
NNWeight
p134
(dp135
g3
F0.027995176829355695
sba(innWeight
NNWeight
p136
(dp137
g3
F0.020833835772004906
sba(innWeight
NNWeight
p138
(dp139
g3
F0.04126857764610917
sba(innWeight
NNWeight
p140
(dp141
g3
F-0.03452325542495869
sba(innWeight
NNWeight
p142
(dp143
g3
F-0.042675206412503865
sba(innWeight
NNWeight
p144
(dp145
g3
F0.03484276001911516
sba(innWeight
NNWeight
p146
(dp147
g3
F-0.0402342666148948
sba(innWeight
NNWeight
p148
(dp149
g3
F-0.033550179551323334
sba(innWeight
NNWeight
p150
(dp151
g3
F-0.03129063944053926
sba(innWeight
NNWeight
p152
(dp153
g3
F-0.030647720806086035
sba(innWeight
NNWeight
p154
(dp155
g3
F-0.02833038543474821
sba(innWeight
NNWeight
p156
(dp157
g3
F0.01143076038504819
sba(innWeight
NNWeight
p158
(dp159
g3
F0.02500582759412706
sba(innWeight
NNWeight
p160
(dp161
g3
F-0.017388812277645504
sba(innWeight
NNWeight
p162
(dp163
g3
F0.01072566860338834
sba(innWeight
NNWeight
p164
(dp165
g3
F-0.018703166899737923
sba(innWeight
NNWeight
p166
(dp167
g3
F-0.004742622021895704
sba(innWeight
NNWeight
p168
(dp169
g3
F0.019253862835977176
sba(innWeight
NNWeight
p170
(dp171
g3
F0.019638512763433192
sba(innWeight
NNWeight
p172
(dp173
g3
F0.04104529847347015
sba(innWeight
NNWeight
p174
(dp175
g3
F0.02895204427328404
sba(innWeight
NNWeight
p176
(dp177
g3
F-0.034342130434544905
sba(innWeight
NNWeight
p178
(dp179
g3
F0.005603665959309667
sba(innWeight
NNWeight
p180
(dp181
g3
F-0.003168943152948678
sba(innWeight
NNWeight
p182
(dp183
g3
F0.01834104492560328
sba(innWeight
NNWeight
p184
(dp185
g3
F0.029358416150635683
sba(innWeight
NNWeight
p186
(dp187
g3
F-0.006305210632055947
sba(innWeight
NNWeight
p188
(dp189
g3
F0.030215246722724978
sba(innWeight
NNWeight
p190
(dp191
g3
F-0.04033723389124658
sba(innWeight
NNWeight
p192
(dp193
g3
F-0.014205541007900968
sba(innWeight
NNWeight
p194
(dp195
g3
F-0.01226623673892735
sba(innWeight
NNWeight
p196
(dp197
g3
F0.01441932009979604
sba(innWeight
NNWeight
p198
(dp199
g3
F-0.02450139092564817
sba(innWeight
NNWeight
p200
(dp201
g3
F-0.014528033044107836
sba(innWeight
NNWeight
p202
(dp203
g3
F0.0006645427006595873
sba(innWeight
NNWeight
p204
(dp205
g3
F-0.038578375952989366
sba(innWeight
NNWeight
p206
(dp207
g3
F-0.0012498183379764938
sba(innWeight
NNWeight
p208
(dp209
g3
F0.034593549514347934
sba(innWeight
NNWeight
p210
(dp211
g3
F-0.031314482875884155
sba(innWeight
NNWeight
p212
(dp213
g3
F0.009776270074969451
sba(innWeight
NNWeight
p214
(dp215
g3
F0.01190871802347805
sba(innWeight
NNWeight
p216
(dp217
g3
F-0.0116565776589459
sba(innWeight
NNWeight
p218
(dp219
g3
F0.015123956902365199
sba(innWeight
NNWeight
p220
(dp221
g3
F0.006718360314320338
sba(innWeight
NNWeight
p222
(dp223
g3
F0.03375089755609685
sba(innWeight
NNWeight
p224
(dp225
g3
F0.029396250330355225
sba(innWeight
NNWeight
p226
(dp227
g3
F0.03168830938982625
sba(innWeight
NNWeight
p228
(dp229
g3
F-0.0488380409003441
sba(innWeight
NNWeight
p230
(dp231
g3
F0.039206916066862954
sba(innWeight
NNWeight
p232
(dp233
g3
F0.015491768143909835
sba(innWeight
NNWeight
p234
(dp235
g3
F0.016426094596951515
sba(innWeight
NNWeight
p236
(dp237
g3
F0.00794575572165609
sba(innWeight
NNWeight
p238
(dp239
g3
F-0.020841082847372697
sba(innWeight
NNWeight
p240
(dp241
g3
F0.04267250197500815
sba(innWeight
NNWeight
p242
(dp243
g3
F0.020111123821846245
sba(innWeight
NNWeight
p244
(dp245
g3
F0.028988955356592596
sba(innWeight
NNWeight
p246
(dp247
g3
F0.04406808332224708
sba(innWeight
NNWeight
p248
(dp249
g3
F-0.007316634800432199
sba(innWeight
NNWeight
p250
(dp251
g3
F0.04765487593385201
sba(innWeight
NNWeight
p252
(dp253
g3
F-0.03298991486294559
sba(innWeight
NNWeight
p254
(dp255
g3
F-0.04308893140225754
sba(innWeight
NNWeight
p256
(dp257
g3
F0.005591100015438078
sba(innWeight
NNWeight
p258
(dp259
g3
F0.04012806353326867
sba(innWeight
NNWeight
p260
(dp261
g3
F-0.04620980538125439
sba(innWeight
NNWeight
p262
(dp263
g3
F0.03725707411313565
sba(innWeight
NNWeight
p264
(dp265
g3
F-0.009333910678390468
sba(innWeight
NNWeight
p266
(dp267
g3
F-0.01927591626756674
sba(innWeight
NNWeight
p268
(dp269
g3
F-0.030606636330085257
sba(innWeight
NNWeight
p270
(dp271
g3
F0.017160703097826236
sba(innWeight
NNWeight
p272
(dp273
g3
F0.0115628972722016
sba(innWeight
NNWeight
p274
(dp275
g3
F-0.04627460902767862
sba(innWeight
NNWeight
p276
(dp277
g3
F-0.006123583505491326
sba(innWeight
NNWeight
p278
(dp279
g3
F-0.01803053675850085
sba(innWeight
NNWeight
p280
(dp281
g3
F-0.03205678299306269
sba(innWeight
NNWeight
p282
(dp283
g3
F-0.009183692327834803
sba(innWeight
NNWeight
p284
(dp285
g3
F0.047727888409275644
sba(innWeight
NNWeight
p286
(dp287
g3
F0.026308907361301283
sba(innWeight
NNWeight
p288
(dp289
g3
F-0.04932797442732211
sba(innWeight
NNWeight
p290
(dp291
g3
F0.017258270317661396
sba(innWeight
NNWeight
p292
(dp293
g3
F0.009057875172077247
sba(innWeight
NNWeight
p294
(dp295
g3
F0.008499860618146749
sba(innWeight
NNWeight
p296
(dp297
g3
F-0.022948567128498455
sba(innWeight
NNWeight
p298
(dp299
g3
F0.03987050177357692
sba(innWeight
NNWeight
p300
(dp301
g3
F0.03420543331840886
sba(innWeight
NNWeight
p302
(dp303
g3
F0.0261301056314584
sba(innWeight
NNWeight
p304
(dp305
g3
F-0.03594832308421347
sba(innWeight
NNWeight
p306
(dp307
g3
F-0.013243877040169993
sba(innWeight
NNWeight
p308
(dp309
g3
F0.007588146859211642
sba(innWeight
NNWeight
p310
(dp311
g3
F0.04376763652360835
sba(innWeight
NNWeight
p312
(dp313
g3
F0.0063609708961206435
sba.