(lp0
(innWeight
NNWeight
p1
(dp2
S'val'
p3
F-0.03877920706559122
sba(innWeight
NNWeight
p4
(dp5
g3
F-0.19887516510103093
sba(innWeight
NNWeight
p6
(dp7
g3
F-0.011303251964950526
sba(innWeight
NNWeight
p8
(dp9
g3
F0.02356933269752118
sba(innWeight
NNWeight
p10
(dp11
g3
F0.01631442600646983
sba(innWeight
NNWeight
p12
(dp13
g3
F-0.003643948355345711
sba(innWeight
NNWeight
p14
(dp15
g3
F0.02180460633380469
sba(innWeight
NNWeight
p16
(dp17
g3
F0.009797374931627585
sba(innWeight
NNWeight
p18
(dp19
g3
F0.053900659012508956
sba(innWeight
NNWeight
p20
(dp21
g3
F0.03267355284102594
sba(innWeight
NNWeight
p22
(dp23
g3
F0.0016095317791140745
sba(innWeight
NNWeight
p24
(dp25
g3
F0.022434536482152847
sba(innWeight
NNWeight
p26
(dp27
g3
F0.04825107646439581
sba(innWeight
NNWeight
p28
(dp29
g3
F0.006074079967710308
sba(innWeight
NNWeight
p30
(dp31
g3
F0.008761017404776621
sba(innWeight
NNWeight
p32
(dp33
g3
F0.02497787279313824
sba(innWeight
NNWeight
p34
(dp35
g3
F0.028960777581698467
sba(innWeight
NNWeight
p36
(dp37
g3
F0.008818233698338628
sba(innWeight
NNWeight
p38
(dp39
g3
F-0.03398012390537473
sba(innWeight
NNWeight
p40
(dp41
g3
F0.017438258340388528
sba(innWeight
NNWeight
p42
(dp43
g3
F-0.00938136537934136
sba(innWeight
NNWeight
p44
(dp45
g3
F0.021573027674578638
sba(innWeight
NNWeight
p46
(dp47
g3
F-0.027155776006562285
sba(innWeight
NNWeight
p48
(dp49
g3
F-0.006290566635536769
sba(innWeight
NNWeight
p50
(dp51
g3
F0.08357165713200145
sba(innWeight
NNWeight
p52
(dp53
g3
F-0.00802726615372789
sba(innWeight
NNWeight
p54
(dp55
g3
F0.0031774479105273713
sba(innWeight
NNWeight
p56
(dp57
g3
F0.012861835556594687
sba(innWeight
NNWeight
p58
(dp59
g3
F-0.024298980586847856
sba(innWeight
NNWeight
p60
(dp61
g3
F0.029840587326615695
sba(innWeight
NNWeight
p62
(dp63
g3
F-0.0008493213853951246
sba(innWeight
NNWeight
p64
(dp65
g3
F-0.032643217376728
sba(innWeight
NNWeight
p66
(dp67
g3
F-0.02554982214642707
sba(innWeight
NNWeight
p68
(dp69
g3
F-0.04945170516997673
sba(innWeight
NNWeight
p70
(dp71
g3
F-0.048354155122990496
sba(innWeight
NNWeight
p72
(dp73
g3
F-0.12595615359236462
sba(innWeight
NNWeight
p74
(dp75
g3
F0.0041935522727364295
sba(innWeight
NNWeight
p76
(dp77
g3
F0.0001886051297044708
sba(innWeight
NNWeight
p78
(dp79
g3
F-0.05295938608371586
sba(innWeight
NNWeight
p80
(dp81
g3
F-0.03514599207765625
sba(innWeight
NNWeight
p82
(dp83
g3
F-0.02011021117911077
sba(innWeight
NNWeight
p84
(dp85
g3
F-0.06511646072588381
sba(innWeight
NNWeight
p86
(dp87
g3
F-0.015149484845338452
sba(innWeight
NNWeight
p88
(dp89
g3
F0.010638512707258478
sba(innWeight
NNWeight
p90
(dp91
g3
F0.054787971961652804
sba(innWeight
NNWeight
p92
(dp93
g3
F0.007865417959351263
sba(innWeight
NNWeight
p94
(dp95
g3
F0.0012060039596908472
sba(innWeight
NNWeight
p96
(dp97
g3
F-0.01655289309271225
sba(innWeight
NNWeight
p98
(dp99
g3
F-0.0036639850562295516
sba(innWeight
NNWeight
p100
(dp101
g3
F-0.0857023589513633
sba(innWeight
NNWeight
p102
(dp103
g3
F0.007491394586804608
sba(innWeight
NNWeight
p104
(dp105
g3
F-0.024745937303836063
sba(innWeight
NNWeight
p106
(dp107
g3
F-0.003408359288286336
sba(innWeight
NNWeight
p108
(dp109
g3
F-0.009147583072228667
sba(innWeight
NNWeight
p110
(dp111
g3
F0.023478412710258138
sba(innWeight
NNWeight
p112
(dp113
g3
F-0.003664879269646404
sba(innWeight
NNWeight
p114
(dp115
g3
F-0.031819698080478576
sba(innWeight
NNWeight
p116
(dp117
g3
F-0.007346506497176323
sba(innWeight
NNWeight
p118
(dp119
g3
F-0.04524177459617714
sba(innWeight
NNWeight
p120
(dp121
g3
F0.04929130359860542
sba(innWeight
NNWeight
p122
(dp123
g3
F0.018361752454416017
sba(innWeight
NNWeight
p124
(dp125
g3
F-0.008923072867925251
sba(innWeight
NNWeight
p126
(dp127
g3
F0.05522735725519303
sba(innWeight
NNWeight
p128
(dp129
g3
F0.05960699710346506
sba(innWeight
NNWeight
p130
(dp131
g3
F0.09579591660737126
sba(innWeight
NNWeight
p132
(dp133
g3
F-0.04552624563876052
sba(innWeight
NNWeight
p134
(dp135
g3
F0.0619351067881742
sba(innWeight
NNWeight
p136
(dp137
g3
F0.06437946486529
sba(innWeight
NNWeight
p138
(dp139
g3
F0.003845151869762485
sba(innWeight
NNWeight
p140
(dp141
g3
F-0.029728003076139296
sba(innWeight
NNWeight
p142
(dp143
g3
F-0.04009342357807604
sba(innWeight
NNWeight
p144
(dp145
g3
F-0.011338972114174612
sba(innWeight
NNWeight
p146
(dp147
g3
F0.012045607636309054
sba(innWeight
NNWeight
p148
(dp149
g3
F0.03261940753579045
sba(innWeight
NNWeight
p150
(dp151
g3
F0.015416109018531696
sba(innWeight
NNWeight
p152
(dp153
g3
F0.0025006224850941633
sba(innWeight
NNWeight
p154
(dp155
g3
F0.0010245282739939144
sba(innWeight
NNWeight
p156
(dp157
g3
F0.0018423840217174417
sba(innWeight
NNWeight
p158
(dp159
g3
F-0.038746406993096595
sba(innWeight
NNWeight
p160
(dp161
g3
F-0.040784548236081415
sba(innWeight
NNWeight
p162
(dp163
g3
F-0.001254315657159337
sba(innWeight
NNWeight
p164
(dp165
g3
F-0.05652508535025413
sba(innWeight
NNWeight
p166
(dp167
g3
F-0.02406791326801007
sba(innWeight
NNWeight
p168
(dp169
g3
F0.020026344734451456
sba(innWeight
NNWeight
p170
(dp171
g3
F-0.005156745313550097
sba(innWeight
NNWeight
p172
(dp173
g3
F-0.03182996944221375
sba(innWeight
NNWeight
p174
(dp175
g3
F0.014837110104923461
sba(innWeight
NNWeight
p176
(dp177
g3
F0.1311557237652166
sba(innWeight
NNWeight
p178
(dp179
g3
F-0.10705544819851068
sba(innWeight
NNWeight
p180
(dp181
g3
F-0.023179226179140498
sba(innWeight
NNWeight
p182
(dp183
g3
F0.02959375771428801
sba(innWeight
NNWeight
p184
(dp185
g3
F0.00781806494733844
sba(innWeight
NNWeight
p186
(dp187
g3
F0.04306661169849445
sba(innWeight
NNWeight
p188
(dp189
g3
F0.044349209353983454
sba(innWeight
NNWeight
p190
(dp191
g3
F-0.0471424381449333
sba(innWeight
NNWeight
p192
(dp193
g3
F0.08179972752653158
sba(innWeight
NNWeight
p194
(dp195
g3
F-0.021066005610060532
sba(innWeight
NNWeight
p196
(dp197
g3
F-0.006926381999576553
sba(innWeight
NNWeight
p198
(dp199
g3
F0.026624855934801947
sba(innWeight
NNWeight
p200
(dp201
g3
F-0.013424499336653696
sba(innWeight
NNWeight
p202
(dp203
g3
F-0.009588084429814616
sba(innWeight
NNWeight
p204
(dp205
g3
F-0.0013994486685961164
sba(innWeight
NNWeight
p206
(dp207
g3
F0.014156481156561467
sba(innWeight
NNWeight
p208
(dp209
g3
F-0.00738090548080087
sba(innWeight
NNWeight
p210
(dp211
g3
F0.09846807008928272
sba(innWeight
NNWeight
p212
(dp213
g3
F-0.004480395305047638
sba(innWeight
NNWeight
p214
(dp215
g3
F-0.013808818009559094
sba(innWeight
NNWeight
p216
(dp217
g3
F-0.002546577281082799
sba(innWeight
NNWeight
p218
(dp219
g3
F0.0027850755168805866
sba(innWeight
NNWeight
p220
(dp221
g3
F0.007210008463645668
sba(innWeight
NNWeight
p222
(dp223
g3
F-0.01315556972766255
sba(innWeight
NNWeight
p224
(dp225
g3
F0.014269553596675017
sba(innWeight
NNWeight
p226
(dp227
g3
F-0.03053476134428355
sba(innWeight
NNWeight
p228
(dp229
g3
F-0.049724015410911426
sba(innWeight
NNWeight
p230
(dp231
g3
F0.09297851724120242
sba(innWeight
NNWeight
p232
(dp233
g3
F-0.003968177310301746
sba(innWeight
NNWeight
p234
(dp235
g3
F0.0030530739976765077
sba(innWeight
NNWeight
p236
(dp237
g3
F-0.0184567465354293
sba(innWeight
NNWeight
p238
(dp239
g3
F-0.019135630344872322
sba(innWeight
NNWeight
p240
(dp241
g3
F0.0053927907842810235
sba(innWeight
NNWeight
p242
(dp243
g3
F-0.004095646706598756
sba(innWeight
NNWeight
p244
(dp245
g3
F-0.0027843202089363893
sba(innWeight
NNWeight
p246
(dp247
g3
F-0.012473762266537547
sba(innWeight
NNWeight
p248
(dp249
g3
F-0.0036298427159741128
sba(innWeight
NNWeight
p250
(dp251
g3
F-0.01276515050451169
sba(innWeight
NNWeight
p252
(dp253
g3
F0.00823709485575924
sba(innWeight
NNWeight
p254
(dp255
g3
F0.035900315991199715
sba(innWeight
NNWeight
p256
(dp257
g3
F0.007284768196482745
sba(innWeight
NNWeight
p258
(dp259
g3
F0.000804034186598804
sba(innWeight
NNWeight
p260
(dp261
g3
F0.02194210342856014
sba(innWeight
NNWeight
p262
(dp263
g3
F0.009421185760441085
sba(innWeight
NNWeight
p264
(dp265
g3
F-0.05386831329507112
sba(innWeight
NNWeight
p266
(dp267
g3
F0.013393436511855827
sba(innWeight
NNWeight
p268
(dp269
g3
F-0.04650012507666405
sba(innWeight
NNWeight
p270
(dp271
g3
F-0.007554332351190095
sba(innWeight
NNWeight
p272
(dp273
g3
F0.05315898916683037
sba(innWeight
NNWeight
p274
(dp275
g3
F-0.023593947811110995
sba(innWeight
NNWeight
p276
(dp277
g3
F0.011796412432140293
sba(innWeight
NNWeight
p278
(dp279
g3
F-0.01711105418049181
sba(innWeight
NNWeight
p280
(dp281
g3
F0.033664676175568696
sba(innWeight
NNWeight
p282
(dp283
g3
F-0.05385419195433115
sba(innWeight
NNWeight
p284
(dp285
g3
F-0.043247955226987926
sba(innWeight
NNWeight
p286
(dp287
g3
F0.028406452875181672
sba(innWeight
NNWeight
p288
(dp289
g3
F0.009950730214029346
sba(innWeight
NNWeight
p290
(dp291
g3
F0.008195026914413489
sba(innWeight
NNWeight
p292
(dp293
g3
F-0.018015738214766406
sba(innWeight
NNWeight
p294
(dp295
g3
F-0.026750833752457875
sba(innWeight
NNWeight
p296
(dp297
g3
F-0.007807648902481177
sba(innWeight
NNWeight
p298
(dp299
g3
F-0.06348925627775429
sba(innWeight
NNWeight
p300
(dp301
g3
F-0.05356322525671128
sba(innWeight
NNWeight
p302
(dp303
g3
F0.006789892463546076
sba(innWeight
NNWeight
p304
(dp305
g3
F-0.00032032226277086453
sba(innWeight
NNWeight
p306
(dp307
g3
F0.0047641602759923235
sba(innWeight
NNWeight
p308
(dp309
g3
F-0.016132304987208232
sba(innWeight
NNWeight
p310
(dp311
g3
F-0.0198220707050497
sba(innWeight
NNWeight
p312
(dp313
g3
F-0.021760958041304852
sba(innWeight
NNWeight
p314
(dp315
g3
F0.03578469324765236
sba(innWeight
NNWeight
p316
(dp317
g3
F2.9531493800333325e-05
sba(innWeight
NNWeight
p318
(dp319
g3
F-0.003244550196079425
sba(innWeight
NNWeight
p320
(dp321
g3
F0.06605539011430953
sba(innWeight
NNWeight
p322
(dp323
g3
F0.03239523174201687
sba(innWeight
NNWeight
p324
(dp325
g3
F0.018726294798463633
sba(innWeight
NNWeight
p326
(dp327
g3
F-0.018141720588477288
sba(innWeight
NNWeight
p328
(dp329
g3
F0.019769754268517434
sba(innWeight
NNWeight
p330
(dp331
g3
F0.01875787474770829
sba(innWeight
NNWeight
p332
(dp333
g3
F0.012802950750568094
sba(innWeight
NNWeight
p334
(dp335
g3
F0.05297696561024205
sba(innWeight
NNWeight
p336
(dp337
g3
F0.052952712379946164
sba(innWeight
NNWeight
p338
(dp339
g3
F0.0478050785712873
sba(innWeight
NNWeight
p340
(dp341
g3
F0.019146382620163688
sba(innWeight
NNWeight
p342
(dp343
g3
F-0.0010909823278902348
sba(innWeight
NNWeight
p344
(dp345
g3
F0.01705861292829775
sba(innWeight
NNWeight
p346
(dp347
g3
F-0.015131690535928598
sba(innWeight
NNWeight
p348
(dp349
g3
F-0.12050867814064259
sba(innWeight
NNWeight
p350
(dp351
g3
F0.0038682745343702513
sba(innWeight
NNWeight
p352
(dp353
g3
F-0.0690683203156344
sba(innWeight
NNWeight
p354
(dp355
g3
F0.01432473718028765
sba(innWeight
NNWeight
p356
(dp357
g3
F-0.022351264148731488
sba(innWeight
NNWeight
p358
(dp359
g3
F0.0029972541913211538
sba(innWeight
NNWeight
p360
(dp361
g3
F-0.28352452701408687
sba(innWeight
NNWeight
p362
(dp363
g3
F0.00271549648357135
sba(innWeight
NNWeight
p364
(dp365
g3
F-0.04616034202243167
sba(innWeight
NNWeight
p366
(dp367
g3
F-0.06329746115660527
sba(innWeight
NNWeight
p368
(dp369
g3
F0.028566092317710932
sba(innWeight
NNWeight
p370
(dp371
g3
F-0.04888716223225301
sba(innWeight
NNWeight
p372
(dp373
g3
F0.0028645796315477224
sba(innWeight
NNWeight
p374
(dp375
g3
F-0.01421888314938999
sba(innWeight
NNWeight
p376
(dp377
g3
F0.01859563535723499
sba(innWeight
NNWeight
p378
(dp379
g3
F0.0031569658513366417
sba(innWeight
NNWeight
p380
(dp381
g3
F-0.02970426923584832
sba(innWeight
NNWeight
p382
(dp383
g3
F-0.008942318316510472
sba(innWeight
NNWeight
p384
(dp385
g3
F-0.028011093479018433
sba(innWeight
NNWeight
p386
(dp387
g3
F0.03032900622867772
sba(innWeight
NNWeight
p388
(dp389
g3
F-0.0029307586332332006
sba(innWeight
NNWeight
p390
(dp391
g3
F-0.010795751734263313
sba(innWeight
NNWeight
p392
(dp393
g3
F0.049404777809426516
sba(innWeight
NNWeight
p394
(dp395
g3
F0.019169304885690748
sba(innWeight
NNWeight
p396
(dp397
g3
F-0.014886802619221816
sba(innWeight
NNWeight
p398
(dp399
g3
F0.0076244264391842655
sba(innWeight
NNWeight
p400
(dp401
g3
F-0.037832187057981845
sba(innWeight
NNWeight
p402
(dp403
g3
F0.017639076786535382
sba(innWeight
NNWeight
p404
(dp405
g3
F0.013935385257865035
sba(innWeight
NNWeight
p406
(dp407
g3
F-0.07418593841817467
sba(innWeight
NNWeight
p408
(dp409
g3
F0.0923398436772612
sba(innWeight
NNWeight
p410
(dp411
g3
F0.0032688953370553224
sba(innWeight
NNWeight
p412
(dp413
g3
F-0.036262899557004166
sba(innWeight
NNWeight
p414
(dp415
g3
F-0.013183290528354657
sba(innWeight
NNWeight
p416
(dp417
g3
F-0.04478697910676963
sba(innWeight
NNWeight
p418
(dp419
g3
F0.04932739024321005
sba(innWeight
NNWeight
p420
(dp421
g3
F0.0153872726040275
sba(innWeight
NNWeight
p422
(dp423
g3
F0.028824606162193837
sba(innWeight
NNWeight
p424
(dp425
g3
F-0.022046423623491823
sba(innWeight
NNWeight
p426
(dp427
g3
F-0.00111893615359376
sba(innWeight
NNWeight
p428
(dp429
g3
F0.041644790013475846
sba(innWeight
NNWeight
p430
(dp431
g3
F0.062028433296150765
sba(innWeight
NNWeight
p432
(dp433
g3
F-0.06406451996112589
sba(innWeight
NNWeight
p434
(dp435
g3
F-0.013557086528373312
sba(innWeight
NNWeight
p436
(dp437
g3
F0.00643713094031716
sba(innWeight
NNWeight
p438
(dp439
g3
F0.03544849042234416
sba(innWeight
NNWeight
p440
(dp441
g3
F0.008186191779025194
sba(innWeight
NNWeight
p442
(dp443
g3
F0.01907376968209533
sba(innWeight
NNWeight
p444
(dp445
g3
F-0.061580059536714415
sba(innWeight
NNWeight
p446
(dp447
g3
F-0.013842181742576183
sba(innWeight
NNWeight
p448
(dp449
g3
F0.04314312345884958
sba(innWeight
NNWeight
p450
(dp451
g3
F-0.04895634669878845
sba(innWeight
NNWeight
p452
(dp453
g3
F0.051239379560210636
sba(innWeight
NNWeight
p454
(dp455
g3
F-0.019789009690088538
sba(innWeight
NNWeight
p456
(dp457
g3
F-0.09700551506381597
sba(innWeight
NNWeight
p458
(dp459
g3
F0.006905313182438634
sba(innWeight
NNWeight
p460
(dp461
g3
F-0.07354351939438351
sba(innWeight
NNWeight
p462
(dp463
g3
F-0.08528513755377125
sba(innWeight
NNWeight
p464
(dp465
g3
F-0.009064473819096502
sba(innWeight
NNWeight
p466
(dp467
g3
F0.03144039509896219
sba(innWeight
NNWeight
p468
(dp469
g3
F-0.0063528646265377155
sba(innWeight
NNWeight
p470
(dp471
g3
F-0.023083211689602697
sba(innWeight
NNWeight
p472
(dp473
g3
F-0.010470066341046393
sba(innWeight
NNWeight
p474
(dp475
g3
F-0.04111113729688104
sba(innWeight
NNWeight
p476
(dp477
g3
F-0.019996368653356425
sba(innWeight
NNWeight
p478
(dp479
g3
F0.01823292320697312
sba(innWeight
NNWeight
p480
(dp481
g3
F-0.025320507800462824
sba(innWeight
NNWeight
p482
(dp483
g3
F-0.06673621452518552
sba(innWeight
NNWeight
p484
(dp485
g3
F0.03993215834978966
sba(innWeight
NNWeight
p486
(dp487
g3
F-0.014704370512848548
sba(innWeight
NNWeight
p488
(dp489
g3
F-0.1001666186221971
sba(innWeight
NNWeight
p490
(dp491
g3
F0.057951584694759646
sba(innWeight
NNWeight
p492
(dp493
g3
F-0.03168875202879429
sba(innWeight
NNWeight
p494
(dp495
g3
F0.025328622124929045
sba(innWeight
NNWeight
p496
(dp497
g3
F-0.003314843637859462
sba(innWeight
NNWeight
p498
(dp499
g3
F-0.021531280674350457
sba(innWeight
NNWeight
p500
(dp501
g3
F-0.08660912339973524
sba(innWeight
NNWeight
p502
(dp503
g3
F0.06228406474914112
sba(innWeight
NNWeight
p504
(dp505
g3
F-0.10017626522555499
sba(innWeight
NNWeight
p506
(dp507
g3
F-0.0013885395839373566
sba(innWeight
NNWeight
p508
(dp509
g3
F0.044203614661123
sba(innWeight
NNWeight
p510
(dp511
g3
F0.024910902707942877
sba(innWeight
NNWeight
p512
(dp513
g3
F0.046526815829107455
sba(innWeight
NNWeight
p514
(dp515
g3
F0.06067856074340175
sba(innWeight
NNWeight
p516
(dp517
g3
F-0.056473082231651046
sba(innWeight
NNWeight
p518
(dp519
g3
F-0.004467959091121725
sba(innWeight
NNWeight
p520
(dp521
g3
F-0.07017827214952595
sba(innWeight
NNWeight
p522
(dp523
g3
F0.028712633431340537
sba(innWeight
NNWeight
p524
(dp525
g3
F0.06300248936328537
sba(innWeight
NNWeight
p526
(dp527
g3
F0.05606525269929048
sba(innWeight
NNWeight
p528
(dp529
g3
F0.0075483616118279875
sba(innWeight
NNWeight
p530
(dp531
g3
F-0.05922221108368941
sba(innWeight
NNWeight
p532
(dp533
g3
F-0.09688316202957731
sba(innWeight
NNWeight
p534
(dp535
g3
F-0.007034632959265224
sba(innWeight
NNWeight
p536
(dp537
g3
F0.040758120851575465
sba(innWeight
NNWeight
p538
(dp539
g3
F0.07789166337364556
sba(innWeight
NNWeight
p540
(dp541
g3
F0.11414412602328991
sba(innWeight
NNWeight
p542
(dp543
g3
F0.01741281674137421
sba(innWeight
NNWeight
p544
(dp545
g3
F0.016976203002072913
sba(innWeight
NNWeight
p546
(dp547
g3
F0.16698466869776551
sba(innWeight
NNWeight
p548
(dp549
g3
F0.006923467453833489
sba(innWeight
NNWeight
p550
(dp551
g3
F0.08623679900483516
sba(innWeight
NNWeight
p552
(dp553
g3
F-0.011715915291342674
sba(innWeight
NNWeight
p554
(dp555
g3
F0.0005734559614440169
sba(innWeight
NNWeight
p556
(dp557
g3
F0.024342925139156223
sba(innWeight
NNWeight
p558
(dp559
g3
F0.04280063253472701
sba(innWeight
NNWeight
p560
(dp561
g3
F-0.007089670951977217
sba(innWeight
NNWeight
p562
(dp563
g3
F-0.008914678904952537
sba(innWeight
NNWeight
p564
(dp565
g3
F-0.01663666613942103
sba(innWeight
NNWeight
p566
(dp567
g3
F-0.0010139300369879708
sba(innWeight
NNWeight
p568
(dp569
g3
F0.03944406770880056
sba(innWeight
NNWeight
p570
(dp571
g3
F0.00922208549046627
sba(innWeight
NNWeight
p572
(dp573
g3
F0.025968606273869977
sba(innWeight
NNWeight
p574
(dp575
g3
F-0.030056802734353343
sba(innWeight
NNWeight
p576
(dp577
g3
F-0.004902016783346614
sba(innWeight
NNWeight
p578
(dp579
g3
F-0.029083429127327535
sba(innWeight
NNWeight
p580
(dp581
g3
F-0.04981389637115395
sba(innWeight
NNWeight
p582
(dp583
g3
F-0.1122194052866819
sba(innWeight
NNWeight
p584
(dp585
g3
F0.002134595921817977
sba(innWeight
NNWeight
p586
(dp587
g3
F0.025282639586515537
sba(innWeight
NNWeight
p588
(dp589
g3
F0.010654469948784077
sba(innWeight
NNWeight
p590
(dp591
g3
F-0.044502882149999395
sba(innWeight
NNWeight
p592
(dp593
g3
F-0.04731176403732839
sba(innWeight
NNWeight
p594
(dp595
g3
F-0.03598689116208886
sba(innWeight
NNWeight
p596
(dp597
g3
F-0.04972413959481501
sba(innWeight
NNWeight
p598
(dp599
g3
F0.1434818894717114
sba(innWeight
NNWeight
p600
(dp601
g3
F-0.01646345741983098
sba(innWeight
NNWeight
p602
(dp603
g3
F-0.0010229705390001577
sba(innWeight
NNWeight
p604
(dp605
g3
F-0.004488010446895437
sba(innWeight
NNWeight
p606
(dp607
g3
F0.04529043023364523
sba(innWeight
NNWeight
p608
(dp609
g3
F-0.07038085992564228
sba(innWeight
NNWeight
p610
(dp611
g3
F0.026666066144424926
sba(innWeight
NNWeight
p612
(dp613
g3
F0.033650050322954775
sba(innWeight
NNWeight
p614
(dp615
g3
F0.08976079728067457
sba(innWeight
NNWeight
p616
(dp617
g3
F-0.0778855654199056
sba(innWeight
NNWeight
p618
(dp619
g3
F0.0009362873352108486
sba(innWeight
NNWeight
p620
(dp621
g3
F0.002615360053036357
sba(innWeight
NNWeight
p622
(dp623
g3
F-0.01710042128401789
sba(innWeight
NNWeight
p624
(dp625
g3
F0.03803512160478652
sba(innWeight
NNWeight
p626
(dp627
g3
F0.007420446108251437
sba(innWeight
NNWeight
p628
(dp629
g3
F0.018510103379388597
sba(innWeight
NNWeight
p630
(dp631
g3
F0.07085866703179622
sba(innWeight
NNWeight
p632
(dp633
g3
F-0.043899232620084
sba(innWeight
NNWeight
p634
(dp635
g3
F0.015705310853399882
sba(innWeight
NNWeight
p636
(dp637
g3
F0.09947107902804878
sba(innWeight
NNWeight
p638
(dp639
g3
F-0.036380849138526905
sba(innWeight
NNWeight
p640
(dp641
g3
F0.10781410675052251
sba(innWeight
NNWeight
p642
(dp643
g3
F0.013781058264710145
sba(innWeight
NNWeight
p644
(dp645
g3
F-0.00739026092113371
sba(innWeight
NNWeight
p646
(dp647
g3
F-0.013229782864406275
sba(innWeight
NNWeight
p648
(dp649
g3
F-0.021201198573440657
sba(innWeight
NNWeight
p650
(dp651
g3
F0.060245534205529604
sba(innWeight
NNWeight
p652
(dp653
g3
F-0.0361419558207602
sba(innWeight
NNWeight
p654
(dp655
g3
F-0.02019789067912653
sba(innWeight
NNWeight
p656
(dp657
g3
F-0.021672173733179534
sba(innWeight
NNWeight
p658
(dp659
g3
F0.002607689831827388
sba(innWeight
NNWeight
p660
(dp661
g3
F-0.007773347562071726
sba(innWeight
NNWeight
p662
(dp663
g3
F0.11217017013659145
sba(innWeight
NNWeight
p664
(dp665
g3
F0.02286656024726743
sba(innWeight
NNWeight
p666
(dp667
g3
F-0.025856029885517943
sba(innWeight
NNWeight
p668
(dp669
g3
F-0.01056525297064984
sba(innWeight
NNWeight
p670
(dp671
g3
F-0.0017087682379743753
sba(innWeight
NNWeight
p672
(dp673
g3
F0.04733622964601905
sba(innWeight
NNWeight
p674
(dp675
g3
F-0.026175727324275342
sba(innWeight
NNWeight
p676
(dp677
g3
F-0.05654216345569234
sba(innWeight
NNWeight
p678
(dp679
g3
F-0.028188343141481505
sba(innWeight
NNWeight
p680
(dp681
g3
F0.0010676773629452363
sba(innWeight
NNWeight
p682
(dp683
g3
F-0.02931239459054549
sba(innWeight
NNWeight
p684
(dp685
g3
F-0.04324607563038325
sba(innWeight
NNWeight
p686
(dp687
g3
F0.0020982080077600294
sba(innWeight
NNWeight
p688
(dp689
g3
F-0.008490692544402139
sba(innWeight
NNWeight
p690
(dp691
g3
F-0.09200697961338601
sba(innWeight
NNWeight
p692
(dp693
g3
F-0.14566356318709908
sba(innWeight
NNWeight
p694
(dp695
g3
F-0.00804226300588391
sba(innWeight
NNWeight
p696
(dp697
g3
F-0.09186973308700731
sba(innWeight
NNWeight
p698
(dp699
g3
F0.019276643696582905
sba(innWeight
NNWeight
p700
(dp701
g3
F-0.018146812132097016
sba(innWeight
NNWeight
p702
(dp703
g3
F0.10236641641597691
sba(innWeight
NNWeight
p704
(dp705
g3
F0.030109575745504914
sba(innWeight
NNWeight
p706
(dp707
g3
F-0.07096546935402034
sba(innWeight
NNWeight
p708
(dp709
g3
F-0.024086774223150066
sba(innWeight
NNWeight
p710
(dp711
g3
F-0.029933786637384396
sba(innWeight
NNWeight
p712
(dp713
g3
F0.016319005419326238
sba(innWeight
NNWeight
p714
(dp715
g3
F-0.001405222322205411
sba(innWeight
NNWeight
p716
(dp717
g3
F-0.12263978245272762
sba(innWeight
NNWeight
p718
(dp719
g3
F0.02605618085933715
sba(innWeight
NNWeight
p720
(dp721
g3
F0.053516159318453695
sba(innWeight
NNWeight
p722
(dp723
g3
F0.008754407969023508
sba(innWeight
NNWeight
p724
(dp725
g3
F-0.07194917663610016
sba(innWeight
NNWeight
p726
(dp727
g3
F0.08724790888783553
sba(innWeight
NNWeight
p728
(dp729
g3
F0.04942934005054309
sba(innWeight
NNWeight
p730
(dp731
g3
F0.04396720983425993
sba(innWeight
NNWeight
p732
(dp733
g3
F-0.03472959624725262
sba(innWeight
NNWeight
p734
(dp735
g3
F0.019977786200576
sba(innWeight
NNWeight
p736
(dp737
g3
F0.003570133444180921
sba(innWeight
NNWeight
p738
(dp739
g3
F-0.0981467266110615
sba(innWeight
NNWeight
p740
(dp741
g3
F0.0044401261774668285
sba(innWeight
NNWeight
p742
(dp743
g3
F0.10096488405685257
sba(innWeight
NNWeight
p744
(dp745
g3
F-0.001777557994476863
sba(innWeight
NNWeight
p746
(dp747
g3
F-0.04068782575214976
sba(innWeight
NNWeight
p748
(dp749
g3
F-0.017618883824560963
sba(innWeight
NNWeight
p750
(dp751
g3
F0.049458935270122316
sba(innWeight
NNWeight
p752
(dp753
g3
F-0.046398688787076856
sba(innWeight
NNWeight
p754
(dp755
g3
F-0.006327105827633074
sba(innWeight
NNWeight
p756
(dp757
g3
F-0.003969998983431971
sba(innWeight
NNWeight
p758
(dp759
g3
F0.033631846389808276
sba(innWeight
NNWeight
p760
(dp761
g3
F0.04172861863664227
sba(innWeight
NNWeight
p762
(dp763
g3
F0.03715708054657135
sba(innWeight
NNWeight
p764
(dp765
g3
F0.08514821940592666
sba(innWeight
NNWeight
p766
(dp767
g3
F0.01596955236894885
sba(innWeight
NNWeight
p768
(dp769
g3
F0.016747701123678287
sba(innWeight
NNWeight
p770
(dp771
g3
F0.014294759485724916
sba(innWeight
NNWeight
p772
(dp773
g3
F-0.030932549447859087
sba(innWeight
NNWeight
p774
(dp775
g3
F-0.061061911831293204
sba(innWeight
NNWeight
p776
(dp777
g3
F0.0372947585745044
sba(innWeight
NNWeight
p778
(dp779
g3
F0.0018456949544326145
sba(innWeight
NNWeight
p780
(dp781
g3
F-0.007974176794715754
sba(innWeight
NNWeight
p782
(dp783
g3
F-0.036968584638808866
sba(innWeight
NNWeight
p784
(dp785
g3
F-0.14044331737375546
sba(innWeight
NNWeight
p786
(dp787
g3
F-0.00037703061150789303
sba(innWeight
NNWeight
p788
(dp789
g3
F-0.04664564451555789
sba(innWeight
NNWeight
p790
(dp791
g3
F-0.011415488775749412
sba(innWeight
NNWeight
p792
(dp793
g3
F-0.07008361408197163
sba(innWeight
NNWeight
p794
(dp795
g3
F-0.09453870887701817
sba(innWeight
NNWeight
p796
(dp797
g3
F-0.023125590605146625
sba(innWeight
NNWeight
p798
(dp799
g3
F-0.0725799857914876
sba(innWeight
NNWeight
p800
(dp801
g3
F-0.07186605395565665
sba(innWeight
NNWeight
p802
(dp803
g3
F-0.08066042219773716
sba(innWeight
NNWeight
p804
(dp805
g3
F0.0047804852608381455
sba(innWeight
NNWeight
p806
(dp807
g3
F-0.042582238674551985
sba(innWeight
NNWeight
p808
(dp809
g3
F-0.04594398500537563
sba(innWeight
NNWeight
p810
(dp811
g3
F-0.07405678985525044
sba(innWeight
NNWeight
p812
(dp813
g3
F0.037219320514394166
sba(innWeight
NNWeight
p814
(dp815
g3
F-0.0008491926655502669
sba(innWeight
NNWeight
p816
(dp817
g3
F-0.00021166393719567188
sba(innWeight
NNWeight
p818
(dp819
g3
F-0.0155585876192445
sba(innWeight
NNWeight
p820
(dp821
g3
F0.006361298973943345
sba(innWeight
NNWeight
p822
(dp823
g3
F-0.009788725948569535
sba(innWeight
NNWeight
p824
(dp825
g3
F-0.009207501476715814
sba(innWeight
NNWeight
p826
(dp827
g3
F0.09289614698464771
sba(innWeight
NNWeight
p828
(dp829
g3
F0.007370312948146658
sba(innWeight
NNWeight
p830
(dp831
g3
F-0.04229525389800889
sba(innWeight
NNWeight
p832
(dp833
g3
F0.0002263755323162214
sba(innWeight
NNWeight
p834
(dp835
g3
F0.039367027068288145
sba(innWeight
NNWeight
p836
(dp837
g3
F-0.023290754336413064
sba(innWeight
NNWeight
p838
(dp839
g3
F0.01924710703766115
sba(innWeight
NNWeight
p840
(dp841
g3
F-0.005971585042790936
sba(innWeight
NNWeight
p842
(dp843
g3
F0.09458946063995534
sba(innWeight
NNWeight
p844
(dp845
g3
F0.011951812892101052
sba(innWeight
NNWeight
p846
(dp847
g3
F-0.00907826104476465
sba(innWeight
NNWeight
p848
(dp849
g3
F0.04039141808876806
sba(innWeight
NNWeight
p850
(dp851
g3
F0.012901372988098445
sba(innWeight
NNWeight
p852
(dp853
g3
F0.033965207011239854
sba(innWeight
NNWeight
p854
(dp855
g3
F0.04632515407172874
sba(innWeight
NNWeight
p856
(dp857
g3
F-0.3024331158729989
sba(innWeight
NNWeight
p858
(dp859
g3
F-0.014410919309939672
sba(innWeight
NNWeight
p860
(dp861
g3
F-0.03802374662809526
sba(innWeight
NNWeight
p862
(dp863
g3
F0.00873683482451525
sba(innWeight
NNWeight
p864
(dp865
g3
F0.002706803545410166
sba(innWeight
NNWeight
p866
(dp867
g3
F0.0056996818378431515
sba(innWeight
NNWeight
p868
(dp869
g3
F-0.00852248845203423
sba(innWeight
NNWeight
p870
(dp871
g3
F-0.01879298400377678
sba(innWeight
NNWeight
p872
(dp873
g3
F0.0031813486245329398
sba(innWeight
NNWeight
p874
(dp875
g3
F-0.005069458734118918
sba(innWeight
NNWeight
p876
(dp877
g3
F0.06786849814352863
sba(innWeight
NNWeight
p878
(dp879
g3
F-0.033371477826017286
sba(innWeight
NNWeight
p880
(dp881
g3
F0.022373319421398388
sba(innWeight
NNWeight
p882
(dp883
g3
F0.14012217823966377
sba(innWeight
NNWeight
p884
(dp885
g3
F-0.018437445797558256
sba(innWeight
NNWeight
p886
(dp887
g3
F0.02383564106601617
sba(innWeight
NNWeight
p888
(dp889
g3
F0.009779664213724573
sba(innWeight
NNWeight
p890
(dp891
g3
F0.03189526451603071
sba(innWeight
NNWeight
p892
(dp893
g3
F-0.08615638984285129
sba(innWeight
NNWeight
p894
(dp895
g3
F-0.004406102060118135
sba(innWeight
NNWeight
p896
(dp897
g3
F0.054454243279795755
sba(innWeight
NNWeight
p898
(dp899
g3
F0.013678301420511131
sba(innWeight
NNWeight
p900
(dp901
g3
F-0.0224567668621832
sba(innWeight
NNWeight
p902
(dp903
g3
F-0.010704857175125329
sba(innWeight
NNWeight
p904
(dp905
g3
F0.040037718213394004
sba(innWeight
NNWeight
p906
(dp907
g3
F0.0291252528460112
sba(innWeight
NNWeight
p908
(dp909
g3
F-0.08197660311762062
sba(innWeight
NNWeight
p910
(dp911
g3
F0.02418432470879413
sba(innWeight
NNWeight
p912
(dp913
g3
F0.007758981050668819
sba(innWeight
NNWeight
p914
(dp915
g3
F0.013649468125561328
sba(innWeight
NNWeight
p916
(dp917
g3
F-0.013031953530001165
sba(innWeight
NNWeight
p918
(dp919
g3
F0.0031744200176882288
sba(innWeight
NNWeight
p920
(dp921
g3
F-0.022913135184460802
sba(innWeight
NNWeight
p922
(dp923
g3
F-0.005105106157441867
sba(innWeight
NNWeight
p924
(dp925
g3
F0.012490837827541948
sba(innWeight
NNWeight
p926
(dp927
g3
F-0.02342406107798791
sba(innWeight
NNWeight
p928
(dp929
g3
F0.011532557297382192
sba(innWeight
NNWeight
p930
(dp931
g3
F0.045179830926669835
sba(innWeight
NNWeight
p932
(dp933
g3
F0.00923358171235908
sba(innWeight
NNWeight
p934
(dp935
g3
F0.030974163378823527
sba(innWeight
NNWeight
p936
(dp937
g3
F0.01966738633070069
sba(innWeight
NNWeight
p938
(dp939
g3
F-0.005928694751987905
sba(innWeight
NNWeight
p940
(dp941
g3
F0.05137141209043386
sba(innWeight
NNWeight
p942
(dp943
g3
F-0.11641498096264737
sba(innWeight
NNWeight
p944
(dp945
g3
F0.077228524607426
sba(innWeight
NNWeight
p946
(dp947
g3
F-0.011239563447872945
sba(innWeight
NNWeight
p948
(dp949
g3
F-0.0027812392272084986
sba(innWeight
NNWeight
p950
(dp951
g3
F-0.035139822955902636
sba(innWeight
NNWeight
p952
(dp953
g3
F0.027121871796717406
sba(innWeight
NNWeight
p954
(dp955
g3
F0.0008011436530715025
sba(innWeight
NNWeight
p956
(dp957
g3
F-0.018071770262920374
sba(innWeight
NNWeight
p958
(dp959
g3
F0.00710718077251673
sba(innWeight
NNWeight
p960
(dp961
g3
F0.021428154119755464
sba(innWeight
NNWeight
p962
(dp963
g3
F-0.039783722395079414
sba(innWeight
NNWeight
p964
(dp965
g3
F-0.009454450205698378
sba(innWeight
NNWeight
p966
(dp967
g3
F-0.012499546824001045
sba(innWeight
NNWeight
p968
(dp969
g3
F0.016674590734872357
sba(innWeight
NNWeight
p970
(dp971
g3
F0.014062614678831045
sba(innWeight
NNWeight
p972
(dp973
g3
F-0.026590786659519586
sba(innWeight
NNWeight
p974
(dp975
g3
F0.007607014772387644
sba(innWeight
NNWeight
p976
(dp977
g3
F0.09442340210107572
sba(innWeight
NNWeight
p978
(dp979
g3
F-0.014835379392337776
sba(innWeight
NNWeight
p980
(dp981
g3
F0.021528041592798714
sba(innWeight
NNWeight
p982
(dp983
g3
F0.016459812823766285
sba(innWeight
NNWeight
p984
(dp985
g3
F-0.013559170113071685
sba(innWeight
NNWeight
p986
(dp987
g3
F-0.10957110136522034
sba(innWeight
NNWeight
p988
(dp989
g3
F-0.047907685297626075
sba(innWeight
NNWeight
p990
(dp991
g3
F0.06280367716512088
sba(innWeight
NNWeight
p992
(dp993
g3
F0.003907332923236647
sba(innWeight
NNWeight
p994
(dp995
g3
F0.10436426641598139
sba(innWeight
NNWeight
p996
(dp997
g3
F-0.03446625877663668
sba(innWeight
NNWeight
p998
(dp999
g3
F0.013645427159035365
sba(innWeight
NNWeight
p1000
(dp1001
g3
F0.00696078117339068
sba(innWeight
NNWeight
p1002
(dp1003
g3
F0.023137913365125096
sba(innWeight
NNWeight
p1004
(dp1005
g3
F-0.004766148019376273
sba(innWeight
NNWeight
p1006
(dp1007
g3
F-0.03330900462993736
sba(innWeight
NNWeight
p1008
(dp1009
g3
F0.009321439023127796
sba(innWeight
NNWeight
p1010
(dp1011
g3
F-0.03823205063110971
sba(innWeight
NNWeight
p1012
(dp1013
g3
F-0.07522056106111823
sba(innWeight
NNWeight
p1014
(dp1015
g3
F0.06742267069768568
sba(innWeight
NNWeight
p1016
(dp1017
g3
F0.018356196202979475
sba(innWeight
NNWeight
p1018
(dp1019
g3
F-0.01698615871498526
sba(innWeight
NNWeight
p1020
(dp1021
g3
F-0.014436873445554202
sba(innWeight
NNWeight
p1022
(dp1023
g3
F0.0045977657843737875
sba(innWeight
NNWeight
p1024
(dp1025
g3
F-0.028617430238442067
sba(innWeight
NNWeight
p1026
(dp1027
g3
F-0.0011696861745806957
sba(innWeight
NNWeight
p1028
(dp1029
g3
F0.061057250054264156
sba(innWeight
NNWeight
p1030
(dp1031
g3
F-0.02358418040785295
sba(innWeight
NNWeight
p1032
(dp1033
g3
F0.0036812316815006615
sba(innWeight
NNWeight
p1034
(dp1035
g3
F-0.10958321115391689
sba(innWeight
NNWeight
p1036
(dp1037
g3
F-0.08934234509761389
sba(innWeight
NNWeight
p1038
(dp1039
g3
F0.12041462082603023
sba(innWeight
NNWeight
p1040
(dp1041
g3
F0.006298283610447838
sba(innWeight
NNWeight
p1042
(dp1043
g3
F-0.006808785546690784
sba(innWeight
NNWeight
p1044
(dp1045
g3
F0.080124229202357
sba(innWeight
NNWeight
p1046
(dp1047
g3
F0.06696377444506092
sba(innWeight
NNWeight
p1048
(dp1049
g3
F-0.030490233644292025
sba(innWeight
NNWeight
p1050
(dp1051
g3
F-0.009563788209415322
sba(innWeight
NNWeight
p1052
(dp1053
g3
F-0.026147745823435722
sba(innWeight
NNWeight
p1054
(dp1055
g3
F-0.011756180823662424
sba(innWeight
NNWeight
p1056
(dp1057
g3
F0.038049908503265464
sba(innWeight
NNWeight
p1058
(dp1059
g3
F0.019686529338299074
sba(innWeight
NNWeight
p1060
(dp1061
g3
F0.02617648205090574
sba(innWeight
NNWeight
p1062
(dp1063
g3
F-0.026561142839314666
sba(innWeight
NNWeight
p1064
(dp1065
g3
F0.01315790530527635
sba(innWeight
NNWeight
p1066
(dp1067
g3
F-0.18291264882788935
sba(innWeight
NNWeight
p1068
(dp1069
g3
F0.039500832535961955
sba(innWeight
NNWeight
p1070
(dp1071
g3
F0.010727777206647839
sba(innWeight
NNWeight
p1072
(dp1073
g3
F0.023688403709196452
sba(innWeight
NNWeight
p1074
(dp1075
g3
F-0.003621894353177599
sba(innWeight
NNWeight
p1076
(dp1077
g3
F0.10533881688069575
sba(innWeight
NNWeight
p1078
(dp1079
g3
F0.012463102626395542
sba(innWeight
NNWeight
p1080
(dp1081
g3
F-0.04671451012272892
sba(innWeight
NNWeight
p1082
(dp1083
g3
F0.07386543964714093
sba(innWeight
NNWeight
p1084
(dp1085
g3
F-0.020588398488299353
sba(innWeight
NNWeight
p1086
(dp1087
g3
F0.02991398124300552
sba(innWeight
NNWeight
p1088
(dp1089
g3
F-0.04637514031161938
sba(innWeight
NNWeight
p1090
(dp1091
g3
F0.022083327259850256
sba(innWeight
NNWeight
p1092
(dp1093
g3
F0.02540949988155134
sba(innWeight
NNWeight
p1094
(dp1095
g3
F-0.016462565461976705
sba(innWeight
NNWeight
p1096
(dp1097
g3
F0.06903554765163053
sba(innWeight
NNWeight
p1098
(dp1099
g3
F-0.003190498940904031
sba(innWeight
NNWeight
p1100
(dp1101
g3
F-0.033640904352000456
sba(innWeight
NNWeight
p1102
(dp1103
g3
F0.027078065629906316
sba(innWeight
NNWeight
p1104
(dp1105
g3
F0.005151330175558056
sba(innWeight
NNWeight
p1106
(dp1107
g3
F-0.05737775796863703
sba(innWeight
NNWeight
p1108
(dp1109
g3
F0.03389873714079874
sba(innWeight
NNWeight
p1110
(dp1111
g3
F0.00027569212735189115
sba(innWeight
NNWeight
p1112
(dp1113
g3
F-0.03249708795548769
sba(innWeight
NNWeight
p1114
(dp1115
g3
F0.01054151067631638
sba(innWeight
NNWeight
p1116
(dp1117
g3
F-0.034068777945062
sba(innWeight
NNWeight
p1118
(dp1119
g3
F-0.01711379615164177
sba(innWeight
NNWeight
p1120
(dp1121
g3
F0.06745031221362656
sba(innWeight
NNWeight
p1122
(dp1123
g3
F-0.0700709432409753
sba(innWeight
NNWeight
p1124
(dp1125
g3
F-0.052361624943587086
sba(innWeight
NNWeight
p1126
(dp1127
g3
F0.02747285852067897
sba(innWeight
NNWeight
p1128
(dp1129
g3
F-0.060620820305794965
sba(innWeight
NNWeight
p1130
(dp1131
g3
F-0.08442429592291782
sba(innWeight
NNWeight
p1132
(dp1133
g3
F0.012268918793077564
sba(innWeight
NNWeight
p1134
(dp1135
g3
F-0.0005116940841350732
sba(innWeight
NNWeight
p1136
(dp1137
g3
F-0.11616394712937703
sba(innWeight
NNWeight
p1138
(dp1139
g3
F0.07267645003526574
sba(innWeight
NNWeight
p1140
(dp1141
g3
F-0.050837104133024315
sba(innWeight
NNWeight
p1142
(dp1143
g3
F0.037636906323066155
sba(innWeight
NNWeight
p1144
(dp1145
g3
F-0.018571216526158823
sba(innWeight
NNWeight
p1146
(dp1147
g3
F0.0615561208867175
sba(innWeight
NNWeight
p1148
(dp1149
g3
F-0.008127387048605215
sba(innWeight
NNWeight
p1150
(dp1151
g3
F0.008260797485830949
sba(innWeight
NNWeight
p1152
(dp1153
g3
F0.016886326874679683
sba(innWeight
NNWeight
p1154
(dp1155
g3
F-0.011633849544211441
sba(innWeight
NNWeight
p1156
(dp1157
g3
F-0.019511904394264725
sba(innWeight
NNWeight
p1158
(dp1159
g3
F-0.03052319424318887
sba(innWeight
NNWeight
p1160
(dp1161
g3
F-0.00358259335647267
sba(innWeight
NNWeight
p1162
(dp1163
g3
F-0.01953675143560974
sba(innWeight
NNWeight
p1164
(dp1165
g3
F-0.009777297486133698
sba(innWeight
NNWeight
p1166
(dp1167
g3
F-0.02719862280472436
sba(innWeight
NNWeight
p1168
(dp1169
g3
F0.03231772475588562
sba(innWeight
NNWeight
p1170
(dp1171
g3
F0.012909187756846359
sba(innWeight
NNWeight
p1172
(dp1173
g3
F-0.032686813698599514
sba(innWeight
NNWeight
p1174
(dp1175
g3
F-0.0030300882074781777
sba(innWeight
NNWeight
p1176
(dp1177
g3
F-0.01841055288872359
sba(innWeight
NNWeight
p1178
(dp1179
g3
F0.005937121372978918
sba(innWeight
NNWeight
p1180
(dp1181
g3
F-0.02314255697744123
sba(innWeight
NNWeight
p1182
(dp1183
g3
F-0.01871766416952854
sba(innWeight
NNWeight
p1184
(dp1185
g3
F-0.0138377199604528
sba(innWeight
NNWeight
p1186
(dp1187
g3
F0.006085690380597493
sba(innWeight
NNWeight
p1188
(dp1189
g3
F-0.06145484897562408
sba(innWeight
NNWeight
p1190
(dp1191
g3
F-0.02083653276715381
sba(innWeight
NNWeight
p1192
(dp1193
g3
F-0.09658904509611889
sba(innWeight
NNWeight
p1194
(dp1195
g3
F-0.0010070426572757946
sba(innWeight
NNWeight
p1196
(dp1197
g3
F-0.03914911261727384
sba(innWeight
NNWeight
p1198
(dp1199
g3
F0.22532964977604697
sba(innWeight
NNWeight
p1200
(dp1201
g3
F-0.03340172091957556
sba(innWeight
NNWeight
p1202
(dp1203
g3
F0.10531276523648582
sba(innWeight
NNWeight
p1204
(dp1205
g3
F0.033807228383466996
sba(innWeight
NNWeight
p1206
(dp1207
g3
F0.028603487536863124
sba(innWeight
NNWeight
p1208
(dp1209
g3
F-0.05868824774841551
sba(innWeight
NNWeight
p1210
(dp1211
g3
F0.008988167008457976
sba(innWeight
NNWeight
p1212
(dp1213
g3
F-0.006345369604459432
sba(innWeight
NNWeight
p1214
(dp1215
g3
F-0.09777812228564112
sba(innWeight
NNWeight
p1216
(dp1217
g3
F0.04914685821503442
sba(innWeight
NNWeight
p1218
(dp1219
g3
F-0.0022062565276392892
sba(innWeight
NNWeight
p1220
(dp1221
g3
F0.02218866998478031
sba(innWeight
NNWeight
p1222
(dp1223
g3
F-0.002473369725308491
sba(innWeight
NNWeight
p1224
(dp1225
g3
F0.031102248769259027
sba(innWeight
NNWeight
p1226
(dp1227
g3
F0.017482180534989386
sba(innWeight
NNWeight
p1228
(dp1229
g3
F0.022114224669975088
sba(innWeight
NNWeight
p1230
(dp1231
g3
F0.0026841481935829443
sba(innWeight
NNWeight
p1232
(dp1233
g3
F0.013568458651250998
sba(innWeight
NNWeight
p1234
(dp1235
g3
F-0.031955677199786245
sba(innWeight
NNWeight
p1236
(dp1237
g3
F0.03241537000436088
sba(innWeight
NNWeight
p1238
(dp1239
g3
F0.11904294606978401
sba(innWeight
NNWeight
p1240
(dp1241
g3
F-0.07710922671173868
sba(innWeight
NNWeight
p1242
(dp1243
g3
F-0.022237318732248202
sba(innWeight
NNWeight
p1244
(dp1245
g3
F0.02828959648929968
sba(innWeight
NNWeight
p1246
(dp1247
g3
F0.08016597861844166
sba(innWeight
NNWeight
p1248
(dp1249
g3
F-0.07590539177225478
sba(innWeight
NNWeight
p1250
(dp1251
g3
F0.021126236996698303
sba(innWeight
NNWeight
p1252
(dp1253
g3
F0.03191582156643219
sba(innWeight
NNWeight
p1254
(dp1255
g3
F0.03238852810762919
sba(innWeight
NNWeight
p1256
(dp1257
g3
F-0.014897568426135094
sba(innWeight
NNWeight
p1258
(dp1259
g3
F-0.039595845331237126
sba(innWeight
NNWeight
p1260
(dp1261
g3
F0.03112523925777047
sba(innWeight
NNWeight
p1262
(dp1263
g3
F-0.022080171352548333
sba(innWeight
NNWeight
p1264
(dp1265
g3
F-0.009811569983822325
sba(innWeight
NNWeight
p1266
(dp1267
g3
F-0.011596910342153753
sba(innWeight
NNWeight
p1268
(dp1269
g3
F0.02584509247924026
sba(innWeight
NNWeight
p1270
(dp1271
g3
F-0.04198460703850499
sba(innWeight
NNWeight
p1272
(dp1273
g3
F-0.02791764107044796
sba(innWeight
NNWeight
p1274
(dp1275
g3
F-0.0216209088784759
sba(innWeight
NNWeight
p1276
(dp1277
g3
F0.013295020348311402
sba(innWeight
NNWeight
p1278
(dp1279
g3
F-0.020610426833885868
sba(innWeight
NNWeight
p1280
(dp1281
g3
F0.01951502180560219
sba(innWeight
NNWeight
p1282
(dp1283
g3
F0.010298939459295107
sba(innWeight
NNWeight
p1284
(dp1285
g3
F0.12035678959776967
sba(innWeight
NNWeight
p1286
(dp1287
g3
F-0.043705308030876855
sba(innWeight
NNWeight
p1288
(dp1289
g3
F0.06891538266458025
sba(innWeight
NNWeight
p1290
(dp1291
g3
F0.04501505138849627
sba(innWeight
NNWeight
p1292
(dp1293
g3
F-0.03487905589439377
sba(innWeight
NNWeight
p1294
(dp1295
g3
F0.011680550574990215
sba(innWeight
NNWeight
p1296
(dp1297
g3
F-0.06183820217155344
sba(innWeight
NNWeight
p1298
(dp1299
g3
F-0.06416559290956515
sba(innWeight
NNWeight
p1300
(dp1301
g3
F-0.038241474030468375
sba(innWeight
NNWeight
p1302
(dp1303
g3
F0.022256622460096378
sba(innWeight
NNWeight
p1304
(dp1305
g3
F-0.02638465549121736
sba(innWeight
NNWeight
p1306
(dp1307
g3
F-0.007795996793438614
sba(innWeight
NNWeight
p1308
(dp1309
g3
F0.06049349127088361
sba(innWeight
NNWeight
p1310
(dp1311
g3
F-0.02943160411656539
sba(innWeight
NNWeight
p1312
(dp1313
g3
F-0.12304227322278272
sba(innWeight
NNWeight
p1314
(dp1315
g3
F-0.027104640239837222
sba(innWeight
NNWeight
p1316
(dp1317
g3
F-0.02417013152054952
sba(innWeight
NNWeight
p1318
(dp1319
g3
F0.0011203851408685078
sba(innWeight
NNWeight
p1320
(dp1321
g3
F0.03586112668605567
sba(innWeight
NNWeight
p1322
(dp1323
g3
F-0.025393993073127178
sba(innWeight
NNWeight
p1324
(dp1325
g3
F0.00020288699421281567
sba(innWeight
NNWeight
p1326
(dp1327
g3
F0.03376316174922042
sba(innWeight
NNWeight
p1328
(dp1329
g3
F0.009279538789556665
sba(innWeight
NNWeight
p1330
(dp1331
g3
F-0.01997132400838622
sba(innWeight
NNWeight
p1332
(dp1333
g3
F-0.1721255757094607
sba(innWeight
NNWeight
p1334
(dp1335
g3
F0.004764866596299107
sba(innWeight
NNWeight
p1336
(dp1337
g3
F-0.029704901927870103
sba(innWeight
NNWeight
p1338
(dp1339
g3
F0.07066264972054932
sba(innWeight
NNWeight
p1340
(dp1341
g3
F-0.08259874815608922
sba(innWeight
NNWeight
p1342
(dp1343
g3
F-0.0036082672403163155
sba(innWeight
NNWeight
p1344
(dp1345
g3
F-0.04896422343858183
sba(innWeight
NNWeight
p1346
(dp1347
g3
F0.03272066677657782
sba(innWeight
NNWeight
p1348
(dp1349
g3
F0.081972704999677
sba(innWeight
NNWeight
p1350
(dp1351
g3
F0.03215924249646747
sba(innWeight
NNWeight
p1352
(dp1353
g3
F0.053276101108062954
sba(innWeight
NNWeight
p1354
(dp1355
g3
F-0.06215329744039233
sba(innWeight
NNWeight
p1356
(dp1357
g3
F0.014895581359130959
sba(innWeight
NNWeight
p1358
(dp1359
g3
F-0.017997486215048153
sba(innWeight
NNWeight
p1360
(dp1361
g3
F0.010720516621985495
sba(innWeight
NNWeight
p1362
(dp1363
g3
F0.008504589824311692
sba(innWeight
NNWeight
p1364
(dp1365
g3
F-0.01931375514142887
sba(innWeight
NNWeight
p1366
(dp1367
g3
F-0.0218837825740876
sba(innWeight
NNWeight
p1368
(dp1369
g3
F-0.011393799104145645
sba(innWeight
NNWeight
p1370
(dp1371
g3
F0.03209851637950956
sba(innWeight
NNWeight
p1372
(dp1373
g3
F-0.011211753397207048
sba(innWeight
NNWeight
p1374
(dp1375
g3
F0.0007350844527977693
sba(innWeight
NNWeight
p1376
(dp1377
g3
F-0.01581221058266277
sba(innWeight
NNWeight
p1378
(dp1379
g3
F0.0022689180089541646
sba(innWeight
NNWeight
p1380
(dp1381
g3
F-0.07927620964125717
sba(innWeight
NNWeight
p1382
(dp1383
g3
F0.02505322048945608
sba(innWeight
NNWeight
p1384
(dp1385
g3
F0.0031981509570691755
sba(innWeight
NNWeight
p1386
(dp1387
g3
F-0.0082510140018954
sba(innWeight
NNWeight
p1388
(dp1389
g3
F-0.038301672012237435
sba(innWeight
NNWeight
p1390
(dp1391
g3
F-0.13137994319303758
sba(innWeight
NNWeight
p1392
(dp1393
g3
F0.009363862346782659
sba(innWeight
NNWeight
p1394
(dp1395
g3
F0.07374110705653908
sba(innWeight
NNWeight
p1396
(dp1397
g3
F-0.021275378640883708
sba(innWeight
NNWeight
p1398
(dp1399
g3
F0.00047391732236102716
sba(innWeight
NNWeight
p1400
(dp1401
g3
F0.03210890543685377
sba(innWeight
NNWeight
p1402
(dp1403
g3
F0.13095577623017188
sba(innWeight
NNWeight
p1404
(dp1405
g3
F-0.048547671257078685
sba(innWeight
NNWeight
p1406
(dp1407
g3
F-0.014230065552510803
sba(innWeight
NNWeight
p1408
(dp1409
g3
F0.0013138277495889385
sba(innWeight
NNWeight
p1410
(dp1411
g3
F0.03538862151810289
sba(innWeight
NNWeight
p1412
(dp1413
g3
F-0.008664363769434236
sba(innWeight
NNWeight
p1414
(dp1415
g3
F0.007011990994088273
sba(innWeight
NNWeight
p1416
(dp1417
g3
F-0.014758544867850646
sba(innWeight
NNWeight
p1418
(dp1419
g3
F-0.024210915318210794
sba(innWeight
NNWeight
p1420
(dp1421
g3
F-0.007460853177139186
sba(innWeight
NNWeight
p1422
(dp1423
g3
F0.004959855774458002
sba(innWeight
NNWeight
p1424
(dp1425
g3
F0.020128295062013635
sba(innWeight
NNWeight
p1426
(dp1427
g3
F-0.01106550007528472
sba(innWeight
NNWeight
p1428
(dp1429
g3
F0.009601786791132803
sba(innWeight
NNWeight
p1430
(dp1431
g3
F-0.003306543516614326
sba(innWeight
NNWeight
p1432
(dp1433
g3
F-0.017470322205874588
sba(innWeight
NNWeight
p1434
(dp1435
g3
F-0.003502179945579729
sba(innWeight
NNWeight
p1436
(dp1437
g3
F-0.02478645414778837
sba(innWeight
NNWeight
p1438
(dp1439
g3
F-0.0012389286927970557
sba(innWeight
NNWeight
p1440
(dp1441
g3
F-0.01298099098590824
sba(innWeight
NNWeight
p1442
(dp1443
g3
F0.0012609243876788054
sba(innWeight
NNWeight
p1444
(dp1445
g3
F-0.04256435425149847
sba(innWeight
NNWeight
p1446
(dp1447
g3
F0.019498119769148364
sba(innWeight
NNWeight
p1448
(dp1449
g3
F0.041664315326002684
sba(innWeight
NNWeight
p1450
(dp1451
g3
F0.021614896223727514
sba(innWeight
NNWeight
p1452
(dp1453
g3
F-0.004837969706431396
sba(innWeight
NNWeight
p1454
(dp1455
g3
F0.02281412965173183
sba(innWeight
NNWeight
p1456
(dp1457
g3
F-0.01589072970705604
sba(innWeight
NNWeight
p1458
(dp1459
g3
F-0.0020299138390406295
sba(innWeight
NNWeight
p1460
(dp1461
g3
F-0.007646344723590134
sba(innWeight
NNWeight
p1462
(dp1463
g3
F0.060540951867807155
sba(innWeight
NNWeight
p1464
(dp1465
g3
F-0.08102053508133411
sba(innWeight
NNWeight
p1466
(dp1467
g3
F-0.031213668169347734
sba(innWeight
NNWeight
p1468
(dp1469
g3
F-0.02040582976057073
sba(innWeight
NNWeight
p1470
(dp1471
g3
F-0.005118357118899877
sba(innWeight
NNWeight
p1472
(dp1473
g3
F0.0641753421441131
sba(innWeight
NNWeight
p1474
(dp1475
g3
F-0.0061430462735874315
sba(innWeight
NNWeight
p1476
(dp1477
g3
F-0.008031921455782952
sba(innWeight
NNWeight
p1478
(dp1479
g3
F-0.004386797767705628
sba(innWeight
NNWeight
p1480
(dp1481
g3
F0.022045098368821462
sba(innWeight
NNWeight
p1482
(dp1483
g3
F-0.06658959146514142
sba(innWeight
NNWeight
p1484
(dp1485
g3
F-0.048220735262378675
sba(innWeight
NNWeight
p1486
(dp1487
g3
F-0.021924428591039654
sba(innWeight
NNWeight
p1488
(dp1489
g3
F0.060699594763145515
sba(innWeight
NNWeight
p1490
(dp1491
g3
F-0.00967828852193529
sba(innWeight
NNWeight
p1492
(dp1493
g3
F0.012660010542490732
sba(innWeight
NNWeight
p1494
(dp1495
g3
F0.0023932897491451798
sba(innWeight
NNWeight
p1496
(dp1497
g3
F-0.03770421945926489
sba(innWeight
NNWeight
p1498
(dp1499
g3
F0.015202997104634653
sba(innWeight
NNWeight
p1500
(dp1501
g3
F0.03016052357512967
sba(innWeight
NNWeight
p1502
(dp1503
g3
F0.008742702742832323
sba(innWeight
NNWeight
p1504
(dp1505
g3
F-0.006339740813147957
sba(innWeight
NNWeight
p1506
(dp1507
g3
F0.009039958768033906
sba(innWeight
NNWeight
p1508
(dp1509
g3
F-0.025640588392472206
sba(innWeight
NNWeight
p1510
(dp1511
g3
F-0.07282456453635194
sba(innWeight
NNWeight
p1512
(dp1513
g3
F-0.0018215046955319183
sba(innWeight
NNWeight
p1514
(dp1515
g3
F-0.04964707816727066
sba(innWeight
NNWeight
p1516
(dp1517
g3
F0.009075554918195504
sba(innWeight
NNWeight
p1518
(dp1519
g3
F-0.010218042666269548
sba(innWeight
NNWeight
p1520
(dp1521
g3
F0.01582093632789418
sba(innWeight
NNWeight
p1522
(dp1523
g3
F0.008384924567463908
sba(innWeight
NNWeight
p1524
(dp1525
g3
F0.005860721514175084
sba(innWeight
NNWeight
p1526
(dp1527
g3
F0.00247373637317797
sba(innWeight
NNWeight
p1528
(dp1529
g3
F0.02743627906842815
sba(innWeight
NNWeight
p1530
(dp1531
g3
F0.0012357168165507077
sba(innWeight
NNWeight
p1532
(dp1533
g3
F-0.01774417294556093
sba(innWeight
NNWeight
p1534
(dp1535
g3
F0.0032318054208354562
sba(innWeight
NNWeight
p1536
(dp1537
g3
F-0.3262263837565053
sba(innWeight
NNWeight
p1538
(dp1539
g3
F-0.006674556933576607
sba(innWeight
NNWeight
p1540
(dp1541
g3
F0.007990258949961485
sba(innWeight
NNWeight
p1542
(dp1543
g3
F0.005462541359509789
sba(innWeight
NNWeight
p1544
(dp1545
g3
F-0.009498316218810877
sba(innWeight
NNWeight
p1546
(dp1547
g3
F-0.08265256158784813
sba(innWeight
NNWeight
p1548
(dp1549
g3
F-0.11207826239303605
sba(innWeight
NNWeight
p1550
(dp1551
g3
F0.08878072806077629
sba(innWeight
NNWeight
p1552
(dp1553
g3
F0.058900181672869874
sba(innWeight
NNWeight
p1554
(dp1555
g3
F-0.0026003323753776954
sba(innWeight
NNWeight
p1556
(dp1557
g3
F-0.05548389633362994
sba(innWeight
NNWeight
p1558
(dp1559
g3
F-0.00544924954741202
sba(innWeight
NNWeight
p1560
(dp1561
g3
F-0.06784792003760913
sba(innWeight
NNWeight
p1562
(dp1563
g3
F-0.002699763045074338
sba(innWeight
NNWeight
p1564
(dp1565
g3
F-0.0009615114154533313
sba(innWeight
NNWeight
p1566
(dp1567
g3
F-0.006977367019073545
sba(innWeight
NNWeight
p1568
(dp1569
g3
F0.009134256269343858
sba(innWeight
NNWeight
p1570
(dp1571
g3
F-0.006133845676735895
sba(innWeight
NNWeight
p1572
(dp1573
g3
F0.05540624562822264
sba(innWeight
NNWeight
p1574
(dp1575
g3
F-0.025889986111861853
sba(innWeight
NNWeight
p1576
(dp1577
g3
F0.009321297215550318
sba(innWeight
NNWeight
p1578
(dp1579
g3
F0.01117414084440815
sba(innWeight
NNWeight
p1580
(dp1581
g3
F-0.015201785360756875
sba(innWeight
NNWeight
p1582
(dp1583
g3
F0.019049565813739577
sba(innWeight
NNWeight
p1584
(dp1585
g3
F-0.022467105300440268
sba(innWeight
NNWeight
p1586
(dp1587
g3
F-0.013295508602886702
sba(innWeight
NNWeight
p1588
(dp1589
g3
F-0.004100235616466291
sba(innWeight
NNWeight
p1590
(dp1591
g3
F-0.0667048054387906
sba(innWeight
NNWeight
p1592
(dp1593
g3
F-0.04204560665406389
sba(innWeight
NNWeight
p1594
(dp1595
g3
F0.03827605927928372
sba(innWeight
NNWeight
p1596
(dp1597
g3
F0.0644999059003838
sba(innWeight
NNWeight
p1598
(dp1599
g3
F0.003408932785837817
sba(innWeight
NNWeight
p1600
(dp1601
g3
F-0.013046739593292422
sba(innWeight
NNWeight
p1602
(dp1603
g3
F0.003192166376118169
sba(innWeight
NNWeight
p1604
(dp1605
g3
F0.005562534888472132
sba(innWeight
NNWeight
p1606
(dp1607
g3
F-0.011431122883367813
sba(innWeight
NNWeight
p1608
(dp1609
g3
F-0.039972168312835496
sba(innWeight
NNWeight
p1610
(dp1611
g3
F0.011428703933324022
sba(innWeight
NNWeight
p1612
(dp1613
g3
F0.022185260857466013
sba(innWeight
NNWeight
p1614
(dp1615
g3
F0.04028119133072424
sba(innWeight
NNWeight
p1616
(dp1617
g3
F0.0010580991720963596
sba(innWeight
NNWeight
p1618
(dp1619
g3
F-0.14856116682708487
sba(innWeight
NNWeight
p1620
(dp1621
g3
F-0.0940271072192764
sba(innWeight
NNWeight
p1622
(dp1623
g3
F-0.005248984799300974
sba(innWeight
NNWeight
p1624
(dp1625
g3
F-0.1277538928887726
sba(innWeight
NNWeight
p1626
(dp1627
g3
F0.06208573742267744
sba(innWeight
NNWeight
p1628
(dp1629
g3
F0.03045703300655192
sba(innWeight
NNWeight
p1630
(dp1631
g3
F-0.06235012806966773
sba(innWeight
NNWeight
p1632
(dp1633
g3
F-0.03929862252226324
sba(innWeight
NNWeight
p1634
(dp1635
g3
F-0.015541309071399357
sba(innWeight
NNWeight
p1636
(dp1637
g3
F-0.00249144578841412
sba(innWeight
NNWeight
p1638
(dp1639
g3
F0.04939149159855466
sba(innWeight
NNWeight
p1640
(dp1641
g3
F0.06247259268966548
sba(innWeight
NNWeight
p1642
(dp1643
g3
F-0.11689962687035373
sba(innWeight
NNWeight
p1644
(dp1645
g3
F-0.09661425925473477
sba(innWeight
NNWeight
p1646
(dp1647
g3
F-0.04074845695218754
sba(innWeight
NNWeight
p1648
(dp1649
g3
F0.010327469738147152
sba(innWeight
NNWeight
p1650
(dp1651
g3
F0.16414491360349381
sba(innWeight
NNWeight
p1652
(dp1653
g3
F-0.029714769277488534
sba(innWeight
NNWeight
p1654
(dp1655
g3
F0.03890334112946916
sba(innWeight
NNWeight
p1656
(dp1657
g3
F0.009993252005555862
sba(innWeight
NNWeight
p1658
(dp1659
g3
F0.05788160384049805
sba(innWeight
NNWeight
p1660
(dp1661
g3
F-0.12225751999328935
sba(innWeight
NNWeight
p1662
(dp1663
g3
F0.08375342168374188
sba(innWeight
NNWeight
p1664
(dp1665
g3
F0.03416425184691631
sba(innWeight
NNWeight
p1666
(dp1667
g3
F-0.13283445053200021
sba(innWeight
NNWeight
p1668
(dp1669
g3
F0.06180451339107569
sba(innWeight
NNWeight
p1670
(dp1671
g3
F0.003890860966028179
sba(innWeight
NNWeight
p1672
(dp1673
g3
F0.08358317495347535
sba(innWeight
NNWeight
p1674
(dp1675
g3
F0.020372507802695363
sba(innWeight
NNWeight
p1676
(dp1677
g3
F0.019054594282017723
sba(innWeight
NNWeight
p1678
(dp1679
g3
F0.022497421227286762
sba(innWeight
NNWeight
p1680
(dp1681
g3
F0.0250990136350242
sba(innWeight
NNWeight
p1682
(dp1683
g3
F-0.07119472504082233
sba(innWeight
NNWeight
p1684
(dp1685
g3
F0.025855910138110033
sba(innWeight
NNWeight
p1686
(dp1687
g3
F-0.08145347048116423
sba(innWeight
NNWeight
p1688
(dp1689
g3
F0.026617005913397777
sba(innWeight
NNWeight
p1690
(dp1691
g3
F0.01582956062664285
sba(innWeight
NNWeight
p1692
(dp1693
g3
F0.0033593804558900596
sba(innWeight
NNWeight
p1694
(dp1695
g3
F0.05921856712860679
sba(innWeight
NNWeight
p1696
(dp1697
g3
F0.03590132723685905
sba(innWeight
NNWeight
p1698
(dp1699
g3
F0.03060292993499097
sba(innWeight
NNWeight
p1700
(dp1701
g3
F-0.19919866383209897
sba(innWeight
NNWeight
p1702
(dp1703
g3
F0.07610866509634465
sba(innWeight
NNWeight
p1704
(dp1705
g3
F0.006143213287162879
sba(innWeight
NNWeight
p1706
(dp1707
g3
F0.01581306006897132
sba(innWeight
NNWeight
p1708
(dp1709
g3
F0.0073356030689572796
sba(innWeight
NNWeight
p1710
(dp1711
g3
F0.04951048157895468
sba(innWeight
NNWeight
p1712
(dp1713
g3
F0.1198931208244768
sba(innWeight
NNWeight
p1714
(dp1715
g3
F-0.026148265141519928
sba(innWeight
NNWeight
p1716
(dp1717
g3
F-0.21168143707650025
sba(innWeight
NNWeight
p1718
(dp1719
g3
F0.026700637918497076
sba(innWeight
NNWeight
p1720
(dp1721
g3
F-0.0024233237184024315
sba(innWeight
NNWeight
p1722
(dp1723
g3
F-0.012983206880624754
sba(innWeight
NNWeight
p1724
(dp1725
g3
F-0.00823432625442244
sba(innWeight
NNWeight
p1726
(dp1727
g3
F0.06180278669507117
sba(innWeight
NNWeight
p1728
(dp1729
g3
F0.10600542242698646
sba(innWeight
NNWeight
p1730
(dp1731
g3
F-0.03602145575880594
sba(innWeight
NNWeight
p1732
(dp1733
g3
F0.01359239056573425
sba(innWeight
NNWeight
p1734
(dp1735
g3
F0.06178285138478908
sba(innWeight
NNWeight
p1736
(dp1737
g3
F0.0476074767128377
sba(innWeight
NNWeight
p1738
(dp1739
g3
F-0.035632936617964954
sba(innWeight
NNWeight
p1740
(dp1741
g3
F0.002711431810956216
sba(innWeight
NNWeight
p1742
(dp1743
g3
F0.019052624614277532
sba(innWeight
NNWeight
p1744
(dp1745
g3
F-0.03216107869858376
sba(innWeight
NNWeight
p1746
(dp1747
g3
F0.0036270279446668965
sba(innWeight
NNWeight
p1748
(dp1749
g3
F-0.02674448420074242
sba(innWeight
NNWeight
p1750
(dp1751
g3
F0.12040155037892439
sba(innWeight
NNWeight
p1752
(dp1753
g3
F0.17887149564854124
sba(innWeight
NNWeight
p1754
(dp1755
g3
F-0.047991533349958114
sba(innWeight
NNWeight
p1756
(dp1757
g3
F-0.03156933648391878
sba(innWeight
NNWeight
p1758
(dp1759
g3
F-0.020170886003329707
sba(innWeight
NNWeight
p1760
(dp1761
g3
F-0.038562832867691826
sba(innWeight
NNWeight
p1762
(dp1763
g3
F-0.008832153471333022
sba(innWeight
NNWeight
p1764
(dp1765
g3
F-0.04237225137820549
sba(innWeight
NNWeight
p1766
(dp1767
g3
F0.04306270078515847
sba(innWeight
NNWeight
p1768
(dp1769
g3
F0.006455380520817972
sba(innWeight
NNWeight
p1770
(dp1771
g3
F-0.018052241429265654
sba(innWeight
NNWeight
p1772
(dp1773
g3
F-0.014700701831999067
sba(innWeight
NNWeight
p1774
(dp1775
g3
F0.09253945437727538
sba(innWeight
NNWeight
p1776
(dp1777
g3
F0.006577457346277908
sba(innWeight
NNWeight
p1778
(dp1779
g3
F0.05458313738329437
sba(innWeight
NNWeight
p1780
(dp1781
g3
F0.07675444854844589
sba(innWeight
NNWeight
p1782
(dp1783
g3
F0.0044271860606357885
sba(innWeight
NNWeight
p1784
(dp1785
g3
F0.028164483424796556
sba(innWeight
NNWeight
p1786
(dp1787
g3
F0.003066922174818313
sba(innWeight
NNWeight
p1788
(dp1789
g3
F-0.005877954607604217
sba(innWeight
NNWeight
p1790
(dp1791
g3
F-0.016338327431922966
sba(innWeight
NNWeight
p1792
(dp1793
g3
F-0.03059141256530616
sba(innWeight
NNWeight
p1794
(dp1795
g3
F-0.2234894359583255
sba(innWeight
NNWeight
p1796
(dp1797
g3
F0.03892762027795074
sba(innWeight
NNWeight
p1798
(dp1799
g3
F-0.11541890997998114
sba(innWeight
NNWeight
p1800
(dp1801
g3
F-0.022740196703547308
sba(innWeight
NNWeight
p1802
(dp1803
g3
F0.013339459782362643
sba(innWeight
NNWeight
p1804
(dp1805
g3
F-0.09971602992164427
sba(innWeight
NNWeight
p1806
(dp1807
g3
F-0.07555495050014441
sba(innWeight
NNWeight
p1808
(dp1809
g3
F-0.04869324882444192
sba(innWeight
NNWeight
p1810
(dp1811
g3
F-0.08583588161812251
sba(innWeight
NNWeight
p1812
(dp1813
g3
F0.04396051415390311
sba(innWeight
NNWeight
p1814
(dp1815
g3
F-0.0031134065484596128
sba(innWeight
NNWeight
p1816
(dp1817
g3
F-0.006338383268021324
sba(innWeight
NNWeight
p1818
(dp1819
g3
F0.025318611521679364
sba(innWeight
NNWeight
p1820
(dp1821
g3
F-0.12761583469939194
sba(innWeight
NNWeight
p1822
(dp1823
g3
F0.009245823679194652
sba(innWeight
NNWeight
p1824
(dp1825
g3
F-0.02951287324265879
sba(innWeight
NNWeight
p1826
(dp1827
g3
F-0.003941599710950428
sba(innWeight
NNWeight
p1828
(dp1829
g3
F0.0017247451835824801
sba(innWeight
NNWeight
p1830
(dp1831
g3
F-0.01188775879851391
sba(innWeight
NNWeight
p1832
(dp1833
g3
F0.004630601010889983
sba(innWeight
NNWeight
p1834
(dp1835
g3
F0.025379634099416824
sba(innWeight
NNWeight
p1836
(dp1837
g3
F-0.21047676567075096
sba(innWeight
NNWeight
p1838
(dp1839
g3
F0.026983731362148263
sba(innWeight
NNWeight
p1840
(dp1841
g3
F-0.000620629309230733
sba(innWeight
NNWeight
p1842
(dp1843
g3
F-0.011685184094350064
sba(innWeight
NNWeight
p1844
(dp1845
g3
F0.024319561874367963
sba(innWeight
NNWeight
p1846
(dp1847
g3
F-0.008629212968024226
sba(innWeight
NNWeight
p1848
(dp1849
g3
F0.01862830211647852
sba(innWeight
NNWeight
p1850
(dp1851
g3
F-0.026262356986612105
sba(innWeight
NNWeight
p1852
(dp1853
g3
F0.08147575605326483
sba(innWeight
NNWeight
p1854
(dp1855
g3
F-0.008449254512284093
sba(innWeight
NNWeight
p1856
(dp1857
g3
F0.006964131572061671
sba(innWeight
NNWeight
p1858
(dp1859
g3
F-0.01953071019213387
sba(innWeight
NNWeight
p1860
(dp1861
g3
F-0.0021644703469548155
sba(innWeight
NNWeight
p1862
(dp1863
g3
F0.019015586782359862
sba(innWeight
NNWeight
p1864
(dp1865
g3
F-0.010673100055618065
sba(innWeight
NNWeight
p1866
(dp1867
g3
F0.20404961488840612
sba(innWeight
NNWeight
p1868
(dp1869
g3
F0.11619162631217232
sba(innWeight
NNWeight
p1870
(dp1871
g3
F0.09197230273046635
sba(innWeight
NNWeight
p1872
(dp1873
g3
F-0.001818210415893336
sba(innWeight
NNWeight
p1874
(dp1875
g3
F0.030122958787683573
sba(innWeight
NNWeight
p1876
(dp1877
g3
F-0.024255472680535507
sba(innWeight
NNWeight
p1878
(dp1879
g3
F0.029071621882875053
sba(innWeight
NNWeight
p1880
(dp1881
g3
F0.02238327432644925
sba(innWeight
NNWeight
p1882
(dp1883
g3
F-0.002806451194624663
sba(innWeight
NNWeight
p1884
(dp1885
g3
F-0.016825059204182508
sba(innWeight
NNWeight
p1886
(dp1887
g3
F0.009576145515449691
sba(innWeight
NNWeight
p1888
(dp1889
g3
F0.0023325884932098003
sba(innWeight
NNWeight
p1890
(dp1891
g3
F0.03435236592965043
sba(innWeight
NNWeight
p1892
(dp1893
g3
F-0.16746117109862635
sba(innWeight
NNWeight
p1894
(dp1895
g3
F0.015346018611972208
sba(innWeight
NNWeight
p1896
(dp1897
g3
F0.01121549187225637
sba(innWeight
NNWeight
p1898
(dp1899
g3
F-0.023250983752986586
sba(innWeight
NNWeight
p1900
(dp1901
g3
F0.03215397628369272
sba(innWeight
NNWeight
p1902
(dp1903
g3
F-0.10491481631265864
sba(innWeight
NNWeight
p1904
(dp1905
g3
F0.04761789613613125
sba(innWeight
NNWeight
p1906
(dp1907
g3
F-0.0269740325487792
sba(innWeight
NNWeight
p1908
(dp1909
g3
F-0.017008770857423385
sba(innWeight
NNWeight
p1910
(dp1911
g3
F-0.007684739604948432
sba(innWeight
NNWeight
p1912
(dp1913
g3
F0.022673941192120316
sba(innWeight
NNWeight
p1914
(dp1915
g3
F0.04484859804335289
sba(innWeight
NNWeight
p1916
(dp1917
g3
F-0.07641658737031806
sba(innWeight
NNWeight
p1918
(dp1919
g3
F-0.1550267697017349
sba(innWeight
NNWeight
p1920
(dp1921
g3
F0.02649929692462061
sba(innWeight
NNWeight
p1922
(dp1923
g3
F-0.014210594132609737
sba(innWeight
NNWeight
p1924
(dp1925
g3
F0.031080639026630646
sba(innWeight
NNWeight
p1926
(dp1927
g3
F-0.007159961294833628
sba(innWeight
NNWeight
p1928
(dp1929
g3
F-0.010121386918733792
sba(innWeight
NNWeight
p1930
(dp1931
g3
F-0.012598892221997539
sba(innWeight
NNWeight
p1932
(dp1933
g3
F-0.021786609481696993
sba(innWeight
NNWeight
p1934
(dp1935
g3
F0.010132906532147407
sba(innWeight
NNWeight
p1936
(dp1937
g3
F0.04968127354536657
sba(innWeight
NNWeight
p1938
(dp1939
g3
F-0.016112948782919388
sba(innWeight
NNWeight
p1940
(dp1941
g3
F0.180951363919039
sba(innWeight
NNWeight
p1942
(dp1943
g3
F-0.00030434295219314305
sba(innWeight
NNWeight
p1944
(dp1945
g3
F-0.017269672481878818
sba(innWeight
NNWeight
p1946
(dp1947
g3
F0.015980682615473876
sba(innWeight
NNWeight
p1948
(dp1949
g3
F-0.0031618881953988215
sba(innWeight
NNWeight
p1950
(dp1951
g3
F0.12108786331128625
sba(innWeight
NNWeight
p1952
(dp1953
g3
F-0.07639136504546042
sba(innWeight
NNWeight
p1954
(dp1955
g3
F0.15718170224844635
sba(innWeight
NNWeight
p1956
(dp1957
g3
F-0.04590320519120556
sba(innWeight
NNWeight
p1958
(dp1959
g3
F0.031376104453382375
sba(innWeight
NNWeight
p1960
(dp1961
g3
F0.008739993939823495
sba(innWeight
NNWeight
p1962
(dp1963
g3
F-0.008701403242606627
sba(innWeight
NNWeight
p1964
(dp1965
g3
F-0.01571197279380668
sba(innWeight
NNWeight
p1966
(dp1967
g3
F0.03975944406068152
sba(innWeight
NNWeight
p1968
(dp1969
g3
F0.05775148223707535
sba(innWeight
NNWeight
p1970
(dp1971
g3
F-0.015498221760609972
sba(innWeight
NNWeight
p1972
(dp1973
g3
F-0.012823930923243737
sba(innWeight
NNWeight
p1974
(dp1975
g3
F0.008871352357057282
sba(innWeight
NNWeight
p1976
(dp1977
g3
F-0.02260650772414035
sba(innWeight
NNWeight
p1978
(dp1979
g3
F0.02337579446224734
sba(innWeight
NNWeight
p1980
(dp1981
g3
F-0.011286941154324612
sba(innWeight
NNWeight
p1982
(dp1983
g3
F0.007746289878133336
sba(innWeight
NNWeight
p1984
(dp1985
g3
F0.0337945358531717
sba(innWeight
NNWeight
p1986
(dp1987
g3
F0.025062023695975072
sba(innWeight
NNWeight
p1988
(dp1989
g3
F0.031012080032198346
sba(innWeight
NNWeight
p1990
(dp1991
g3
F0.018859216127157852
sba(innWeight
NNWeight
p1992
(dp1993
g3
F0.002449117672164049
sba(innWeight
NNWeight
p1994
(dp1995
g3
F0.07409506037935143
sba(innWeight
NNWeight
p1996
(dp1997
g3
F-0.08737930873054092
sba(innWeight
NNWeight
p1998
(dp1999
g3
F0.03150292006542845
sba(innWeight
NNWeight
p2000
(dp2001
g3
F0.03498928090678612
sba(innWeight
NNWeight
p2002
(dp2003
g3
F-0.018892076419735643
sba(innWeight
NNWeight
p2004
(dp2005
g3
F-0.004200421394753363
sba(innWeight
NNWeight
p2006
(dp2007
g3
F-0.02393570684834248
sba(innWeight
NNWeight
p2008
(dp2009
g3
F0.0042121166236455815
sba(innWeight
NNWeight
p2010
(dp2011
g3
F0.005733356494630694
sba(innWeight
NNWeight
p2012
(dp2013
g3
F0.03930285825575303
sba(innWeight
NNWeight
p2014
(dp2015
g3
F-0.01884538398580786
sba(innWeight
NNWeight
p2016
(dp2017
g3
F0.018051568665254758
sba(innWeight
NNWeight
p2018
(dp2019
g3
F-0.012885902291836254
sba(innWeight
NNWeight
p2020
(dp2021
g3
F-0.0021697104842011636
sba.