(lp0
(innWeight
NNWeight
p1
(dp2
S'val'
p3
F0.04451842107638609
sba(innWeight
NNWeight
p4
(dp5
g3
F-0.02918433462272173
sba(innWeight
NNWeight
p6
(dp7
g3
F0.022685496814593233
sba(innWeight
NNWeight
p8
(dp9
g3
F-0.005120680668882583
sba(innWeight
NNWeight
p10
(dp11
g3
F0.0010872108708408713
sba(innWeight
NNWeight
p12
(dp13
g3
F-0.027604766742690634
sba(innWeight
NNWeight
p14
(dp15
g3
F-0.015808250011366255
sba(innWeight
NNWeight
p16
(dp17
g3
F0.027479779046705413
sba(innWeight
NNWeight
p18
(dp19
g3
F0.007475030750725909
sba(innWeight
NNWeight
p20
(dp21
g3
F-0.03512633093691107
sba(innWeight
NNWeight
p22
(dp23
g3
F-0.02414592506513559
sba(innWeight
NNWeight
p24
(dp25
g3
F-0.025938928302476873
sba(innWeight
NNWeight
p26
(dp27
g3
F0.03156993333130836
sba(innWeight
NNWeight
p28
(dp29
g3
F0.025045729670242513
sba(innWeight
NNWeight
p30
(dp31
g3
F-0.001054274249675158
sba(innWeight
NNWeight
p32
(dp33
g3
F0.0036948953413665445
sba(innWeight
NNWeight
p34
(dp35
g3
F-0.04413214362607207
sba(innWeight
NNWeight
p36
(dp37
g3
F-0.00898446294326769
sba(innWeight
NNWeight
p38
(dp39
g3
F0.007668104215166094
sba(innWeight
NNWeight
p40
(dp41
g3
F-0.04321428153993512
sba(innWeight
NNWeight
p42
(dp43
g3
F-0.04668141285212329
sba(innWeight
NNWeight
p44
(dp45
g3
F-0.03565890331017029
sba(innWeight
NNWeight
p46
(dp47
g3
F0.027576641271113124
sba(innWeight
NNWeight
p48
(dp49
g3
F0.005861167195388251
sba(innWeight
NNWeight
p50
(dp51
g3
F-0.01579537773931864
sba(innWeight
NNWeight
p52
(dp53
g3
F-0.042438524471223316
sba(innWeight
NNWeight
p54
(dp55
g3
F-0.026945024392711014
sba(innWeight
NNWeight
p56
(dp57
g3
F0.04299674378275112
sba(innWeight
NNWeight
p58
(dp59
g3
F0.00038495648498134696
sba(innWeight
NNWeight
p60
(dp61
g3
F0.026100089590443788
sba(innWeight
NNWeight
p62
(dp63
g3
F0.0469987887912567
sba(innWeight
NNWeight
p64
(dp65
g3
F-0.005944004839016404
sba(innWeight
NNWeight
p66
(dp67
g3
F0.04935620312135645
sba(innWeight
NNWeight
p68
(dp69
g3
F0.01307632154447418
sba(innWeight
NNWeight
p70
(dp71
g3
F0.03986646116231712
sba(innWeight
NNWeight
p72
(dp73
g3
F0.010826107200918679
sba(innWeight
NNWeight
p74
(dp75
g3
F0.04154820895385362
sba(innWeight
NNWeight
p76
(dp77
g3
F-0.03780574930486529
sba(innWeight
NNWeight
p78
(dp79
g3
F0.03877915509743212
sba(innWeight
NNWeight
p80
(dp81
g3
F-0.037732406307633054
sba(innWeight
NNWeight
p82
(dp83
g3
F-0.03186926716958192
sba(innWeight
NNWeight
p84
(dp85
g3
F0.018915810675211732
sba(innWeight
NNWeight
p86
(dp87
g3
F0.01547065641658687
sba(innWeight
NNWeight
p88
(dp89
g3
F0.013700835961186453
sba(innWeight
NNWeight
p90
(dp91
g3
F-0.016536798641881314
sba(innWeight
NNWeight
p92
(dp93
g3
F0.021502875748478447
sba(innWeight
NNWeight
p94
(dp95
g3
F-0.024042819921874015
sba(innWeight
NNWeight
p96
(dp97
g3
F0.03968392650954581
sba(innWeight
NNWeight
p98
(dp99
g3
F-0.048653815511674484
sba(innWeight
NNWeight
p100
(dp101
g3
F-0.030677081596136625
sba(innWeight
NNWeight
p102
(dp103
g3
F0.012430396322582594
sba(innWeight
NNWeight
p104
(dp105
g3
F-0.042294715369065344
sba(innWeight
NNWeight
p106
(dp107
g3
F-0.04269130311898879
sba(innWeight
NNWeight
p108
(dp109
g3
F-0.015076401729835476
sba(innWeight
NNWeight
p110
(dp111
g3
F-0.04431474905310309
sba(innWeight
NNWeight
p112
(dp113
g3
F-0.023944367822292735
sba(innWeight
NNWeight
p114
(dp115
g3
F0.010917567736045831
sba(innWeight
NNWeight
p116
(dp117
g3
F-0.0066483542327773985
sba(innWeight
NNWeight
p118
(dp119
g3
F0.01460205881989064
sba(innWeight
NNWeight
p120
(dp121
g3
F0.013609044986892173
sba(innWeight
NNWeight
p122
(dp123
g3
F0.025034021298934363
sba(innWeight
NNWeight
p124
(dp125
g3
F-0.016840541819024925
sba(innWeight
NNWeight
p126
(dp127
g3
F-0.02313844715639928
sba(innWeight
NNWeight
p128
(dp129
g3
F-0.04459754956398926
sba(innWeight
NNWeight
p130
(dp131
g3
F-0.031702554072110305
sba(innWeight
NNWeight
p132
(dp133
g3
F0.04473078264277583
sba(innWeight
NNWeight
p134
(dp135
g3
F-0.005593228320059207
sba(innWeight
NNWeight
p136
(dp137
g3
F-0.03886357419159791
sba(innWeight
NNWeight
p138
(dp139
g3
F0.0479891919571392
sba(innWeight
NNWeight
p140
(dp141
g3
F0.017493243889624754
sba(innWeight
NNWeight
p142
(dp143
g3
F-0.0315853833621846
sba(innWeight
NNWeight
p144
(dp145
g3
F0.015360901196170963
sba(innWeight
NNWeight
p146
(dp147
g3
F-0.010020978199987318
sba(innWeight
NNWeight
p148
(dp149
g3
F-0.016308990813929527
sba(innWeight
NNWeight
p150
(dp151
g3
F-0.007479093245149349
sba(innWeight
NNWeight
p152
(dp153
g3
F-0.010164745662819052
sba(innWeight
NNWeight
p154
(dp155
g3
F0.027443229369523904
sba(innWeight
NNWeight
p156
(dp157
g3
F0.03315661587596652
sba(innWeight
NNWeight
p158
(dp159
g3
F0.019555746749230874
sba(innWeight
NNWeight
p160
(dp161
g3
F0.0398565342939493
sba(innWeight
NNWeight
p162
(dp163
g3
F-0.03425851075190719
sba(innWeight
NNWeight
p164
(dp165
g3
F0.046008723123506234
sba(innWeight
NNWeight
p166
(dp167
g3
F-0.02642893822975897
sba(innWeight
NNWeight
p168
(dp169
g3
F0.037654029778545095
sba(innWeight
NNWeight
p170
(dp171
g3
F0.03648786238785109
sba(innWeight
NNWeight
p172
(dp173
g3
F-0.024520657473968744
sba(innWeight
NNWeight
p174
(dp175
g3
F-0.04920511245403415
sba(innWeight
NNWeight
p176
(dp177
g3
F0.041706895576218816
sba(innWeight
NNWeight
p178
(dp179
g3
F-0.04406947307792574
sba(innWeight
NNWeight
p180
(dp181
g3
F-0.045547010837215345
sba(innWeight
NNWeight
p182
(dp183
g3
F-0.041764851073789355
sba(innWeight
NNWeight
p184
(dp185
g3
F0.005499275351372135
sba(innWeight
NNWeight
p186
(dp187
g3
F-0.03682272069498382
sba(innWeight
NNWeight
p188
(dp189
g3
F0.01384607869762966
sba(innWeight
NNWeight
p190
(dp191
g3
F-0.043674664826522394
sba(innWeight
NNWeight
p192
(dp193
g3
F-0.010990549327012746
sba(innWeight
NNWeight
p194
(dp195
g3
F0.04618089200255272
sba(innWeight
NNWeight
p196
(dp197
g3
F-0.025949853384289647
sba(innWeight
NNWeight
p198
(dp199
g3
F-0.040146499378822156
sba(innWeight
NNWeight
p200
(dp201
g3
F-0.03185283213371165
sba(innWeight
NNWeight
p202
(dp203
g3
F-0.016167669110549822
sba(innWeight
NNWeight
p204
(dp205
g3
F-0.009623991174010027
sba(innWeight
NNWeight
p206
(dp207
g3
F0.024429210380059508
sba(innWeight
NNWeight
p208
(dp209
g3
F0.010110810452494234
sba(innWeight
NNWeight
p210
(dp211
g3
F-0.026475903784837374
sba(innWeight
NNWeight
p212
(dp213
g3
F0.005418435508168462
sba(innWeight
NNWeight
p214
(dp215
g3
F0.04260497338014751
sba(innWeight
NNWeight
p216
(dp217
g3
F-0.03014972426605196
sba(innWeight
NNWeight
p218
(dp219
g3
F-0.023361404061879046
sba(innWeight
NNWeight
p220
(dp221
g3
F0.034842917398370754
sba(innWeight
NNWeight
p222
(dp223
g3
F0.04152865740651958
sba(innWeight
NNWeight
p224
(dp225
g3
F0.011830147066867181
sba(innWeight
NNWeight
p226
(dp227
g3
F0.0028439727413438367
sba(innWeight
NNWeight
p228
(dp229
g3
F-0.02660210904287942
sba(innWeight
NNWeight
p230
(dp231
g3
F0.04998138110138675
sba(innWeight
NNWeight
p232
(dp233
g3
F0.025492601435477914
sba(innWeight
NNWeight
p234
(dp235
g3
F-0.025833435591898636
sba(innWeight
NNWeight
p236
(dp237
g3
F0.01930863300661333
sba(innWeight
NNWeight
p238
(dp239
g3
F-0.014768909075121274
sba(innWeight
NNWeight
p240
(dp241
g3
F-0.04756945651747313
sba(innWeight
NNWeight
p242
(dp243
g3
F-0.02414296426792575
sba(innWeight
NNWeight
p244
(dp245
g3
F-0.016942777211308192
sba(innWeight
NNWeight
p246
(dp247
g3
F0.013784645519579886
sba(innWeight
NNWeight
p248
(dp249
g3
F-0.012990201800461943
sba(innWeight
NNWeight
p250
(dp251
g3
F0.039719757934092936
sba(innWeight
NNWeight
p252
(dp253
g3
F0.00290358839210928
sba(innWeight
NNWeight
p254
(dp255
g3
F0.0454674540784626
sba(innWeight
NNWeight
p256
(dp257
g3
F0.02779840331343061
sba(innWeight
NNWeight
p258
(dp259
g3
F0.0034266649361855642
sba(innWeight
NNWeight
p260
(dp261
g3
F-0.029339081008574543
sba(innWeight
NNWeight
p262
(dp263
g3
F0.03631269050580369
sba(innWeight
NNWeight
p264
(dp265
g3
F0.007320267269325787
sba(innWeight
NNWeight
p266
(dp267
g3
F-0.009493730722582416
sba(innWeight
NNWeight
p268
(dp269
g3
F-0.005644485318568138
sba(innWeight
NNWeight
p270
(dp271
g3
F0.0036858697940457376
sba(innWeight
NNWeight
p272
(dp273
g3
F-0.04633569142062214
sba(innWeight
NNWeight
p274
(dp275
g3
F-0.007920252827487918
sba(innWeight
NNWeight
p276
(dp277
g3
F0.03729057196479698
sba(innWeight
NNWeight
p278
(dp279
g3
F-0.029884051803810898
sba(innWeight
NNWeight
p280
(dp281
g3
F-0.03251878158812506
sba(innWeight
NNWeight
p282
(dp283
g3
F-0.040905394548781684
sba(innWeight
NNWeight
p284
(dp285
g3
F-0.004467266989717833
sba(innWeight
NNWeight
p286
(dp287
g3
F-0.005027100257026452
sba(innWeight
NNWeight
p288
(dp289
g3
F0.0024193983632705197
sba(innWeight
NNWeight
p290
(dp291
g3
F0.002334668359967318
sba(innWeight
NNWeight
p292
(dp293
g3
F0.015711673433838613
sba(innWeight
NNWeight
p294
(dp295
g3
F-0.03381911769799927
sba(innWeight
NNWeight
p296
(dp297
g3
F-0.04427029563828158
sba(innWeight
NNWeight
p298
(dp299
g3
F0.024496489938466526
sba(innWeight
NNWeight
p300
(dp301
g3
F-0.027076145525623586
sba(innWeight
NNWeight
p302
(dp303
g3
F0.018321340721270295
sba(innWeight
NNWeight
p304
(dp305
g3
F-0.0011293506247677999
sba(innWeight
NNWeight
p306
(dp307
g3
F0.006627491465735047
sba(innWeight
NNWeight
p308
(dp309
g3
F-0.02697732770549989
sba(innWeight
NNWeight
p310
(dp311
g3
F-0.01932803702912894
sba(innWeight
NNWeight
p312
(dp313
g3
F0.038140281328171204
sba.