(lp0
(innWeight
NNWeight
p1
(dp2
S'val'
p3
F0.03158877256628704
sba(innWeight
NNWeight
p4
(dp5
g3
F0.03864563869127238
sba(innWeight
NNWeight
p6
(dp7
g3
F0.04869206415156401
sba(innWeight
NNWeight
p8
(dp9
g3
F0.022624222844833886
sba(innWeight
NNWeight
p10
(dp11
g3
F0.002692379236789777
sba(innWeight
NNWeight
p12
(dp13
g3
F-0.030145733653416218
sba(innWeight
NNWeight
p14
(dp15
g3
F-0.009512753115578665
sba(innWeight
NNWeight
p16
(dp17
g3
F0.03104745291602128
sba(innWeight
NNWeight
p18
(dp19
g3
F-0.048119954703680634
sba(innWeight
NNWeight
p20
(dp21
g3
F-0.003178735367542407
sba(innWeight
NNWeight
p22
(dp23
g3
F-0.0009144088661082739
sba(innWeight
NNWeight
p24
(dp25
g3
F-0.0452481580283575
sba(innWeight
NNWeight
p26
(dp27
g3
F0.02260276824424853
sba(innWeight
NNWeight
p28
(dp29
g3
F-0.040085512181425975
sba(innWeight
NNWeight
p30
(dp31
g3
F4.88235396883141e-05
sba(innWeight
NNWeight
p32
(dp33
g3
F-0.04570160718768301
sba(innWeight
NNWeight
p34
(dp35
g3
F-0.04549127052940465
sba(innWeight
NNWeight
p36
(dp37
g3
F0.04062429181574742
sba(innWeight
NNWeight
p38
(dp39
g3
F-0.0164275201419268
sba(innWeight
NNWeight
p40
(dp41
g3
F0.030600430730862452
sba(innWeight
NNWeight
p42
(dp43
g3
F-0.001059062773981767
sba(innWeight
NNWeight
p44
(dp45
g3
F-0.048926539122668124
sba(innWeight
NNWeight
p46
(dp47
g3
F-0.04802870983173657
sba(innWeight
NNWeight
p48
(dp49
g3
F-0.025720111494531364
sba(innWeight
NNWeight
p50
(dp51
g3
F0.04094482337854745
sba(innWeight
NNWeight
p52
(dp53
g3
F-0.03941339926653582
sba(innWeight
NNWeight
p54
(dp55
g3
F-0.019502636339513404
sba(innWeight
NNWeight
p56
(dp57
g3
F-0.013696340009693588
sba(innWeight
NNWeight
p58
(dp59
g3
F0.04816526798467446
sba(innWeight
NNWeight
p60
(dp61
g3
F-0.02128057478668849
sba(innWeight
NNWeight
p62
(dp63
g3
F0.04358527013594274
sba(innWeight
NNWeight
p64
(dp65
g3
F-0.01966765254441475
sba(innWeight
NNWeight
p66
(dp67
g3
F-0.01624399021034232
sba(innWeight
NNWeight
p68
(dp69
g3
F0.036264731888149285
sba(innWeight
NNWeight
p70
(dp71
g3
F-0.003777693790399617
sba(innWeight
NNWeight
p72
(dp73
g3
F0.008250268905836867
sba(innWeight
NNWeight
p74
(dp75
g3
F0.030570334329594065
sba(innWeight
NNWeight
p76
(dp77
g3
F-9.100656346501258e-05
sba(innWeight
NNWeight
p78
(dp79
g3
F-0.011082265980426043
sba(innWeight
NNWeight
p80
(dp81
g3
F-0.02214436610866082
sba(innWeight
NNWeight
p82
(dp83
g3
F-0.015352803254033653
sba(innWeight
NNWeight
p84
(dp85
g3
F-0.03604109377874842
sba(innWeight
NNWeight
p86
(dp87
g3
F0.03666465024732594
sba(innWeight
NNWeight
p88
(dp89
g3
F0.02028297244176841
sba(innWeight
NNWeight
p90
(dp91
g3
F-0.001655356281026954
sba(innWeight
NNWeight
p92
(dp93
g3
F-0.0014554639770984702
sba(innWeight
NNWeight
p94
(dp95
g3
F0.011061388255098226
sba(innWeight
NNWeight
p96
(dp97
g3
F0.0043339130516961925
sba(innWeight
NNWeight
p98
(dp99
g3
F0.022605792043561935
sba(innWeight
NNWeight
p100
(dp101
g3
F0.039697902875121954
sba(innWeight
NNWeight
p102
(dp103
g3
F-0.04055358802757095
sba(innWeight
NNWeight
p104
(dp105
g3
F-0.01920872227467473
sba(innWeight
NNWeight
p106
(dp107
g3
F-0.005533693906967375
sba(innWeight
NNWeight
p108
(dp109
g3
F-0.01692213412245518
sba(innWeight
NNWeight
p110
(dp111
g3
F-0.008632976907187595
sba(innWeight
NNWeight
p112
(dp113
g3
F-0.03699593305664328
sba(innWeight
NNWeight
p114
(dp115
g3
F0.0006959067568840683
sba(innWeight
NNWeight
p116
(dp117
g3
F-0.021415026498859416
sba(innWeight
NNWeight
p118
(dp119
g3
F-0.02092341321348448
sba(innWeight
NNWeight
p120
(dp121
g3
F-0.045162252196660035
sba(innWeight
NNWeight
p122
(dp123
g3
F-0.002452593327149744
sba(innWeight
NNWeight
p124
(dp125
g3
F0.04086992680787667
sba(innWeight
NNWeight
p126
(dp127
g3
F0.03613906296417312
sba(innWeight
NNWeight
p128
(dp129
g3
F-0.03420215412198624
sba(innWeight
NNWeight
p130
(dp131
g3
F-0.023203967520675085
sba(innWeight
NNWeight
p132
(dp133
g3
F-0.04951431675691731
sba(innWeight
NNWeight
p134
(dp135
g3
F0.021694577295755302
sba(innWeight
NNWeight
p136
(dp137
g3
F0.0231822472137337
sba(innWeight
NNWeight
p138
(dp139
g3
F0.005812342896878153
sba(innWeight
NNWeight
p140
(dp141
g3
F-0.032853683537349465
sba(innWeight
NNWeight
p142
(dp143
g3
F0.04071186187847806
sba(innWeight
NNWeight
p144
(dp145
g3
F-0.04633398899889303
sba(innWeight
NNWeight
p146
(dp147
g3
F-0.03890506530398176
sba(innWeight
NNWeight
p148
(dp149
g3
F-0.026466622470849535
sba(innWeight
NNWeight
p150
(dp151
g3
F0.001446378399277637
sba(innWeight
NNWeight
p152
(dp153
g3
F-0.03960445045095234
sba(innWeight
NNWeight
p154
(dp155
g3
F0.015230992014194068
sba(innWeight
NNWeight
p156
(dp157
g3
F0.043710245329878585
sba(innWeight
NNWeight
p158
(dp159
g3
F0.036524834404186246
sba(innWeight
NNWeight
p160
(dp161
g3
F0.041698119125532576
sba(innWeight
NNWeight
p162
(dp163
g3
F-0.010016723614935098
sba(innWeight
NNWeight
p164
(dp165
g3
F-0.025703594350891968
sba(innWeight
NNWeight
p166
(dp167
g3
F-0.017019677684085577
sba(innWeight
NNWeight
p168
(dp169
g3
F0.027478302824373125
sba(innWeight
NNWeight
p170
(dp171
g3
F0.039730249904836645
sba(innWeight
NNWeight
p172
(dp173
g3
F0.040847946622115744
sba(innWeight
NNWeight
p174
(dp175
g3
F-0.010101845519426656
sba(innWeight
NNWeight
p176
(dp177
g3
F-0.010252818690414112
sba(innWeight
NNWeight
p178
(dp179
g3
F0.03729422459672887
sba(innWeight
NNWeight
p180
(dp181
g3
F0.024902947929920163
sba(innWeight
NNWeight
p182
(dp183
g3
F0.04435161218510758
sba(innWeight
NNWeight
p184
(dp185
g3
F0.0452602388094603
sba(innWeight
NNWeight
p186
(dp187
g3
F0.011202066445135772
sba(innWeight
NNWeight
p188
(dp189
g3
F-0.0016109104922906294
sba(innWeight
NNWeight
p190
(dp191
g3
F0.007529854746067122
sba(innWeight
NNWeight
p192
(dp193
g3
F-0.035122091980779556
sba(innWeight
NNWeight
p194
(dp195
g3
F0.008757529162647926
sba(innWeight
NNWeight
p196
(dp197
g3
F0.0024094880907776896
sba(innWeight
NNWeight
p198
(dp199
g3
F-0.01841436462240308
sba(innWeight
NNWeight
p200
(dp201
g3
F0.039388504656063174
sba(innWeight
NNWeight
p202
(dp203
g3
F-0.03255717928655061
sba(innWeight
NNWeight
p204
(dp205
g3
F0.007015343186312195
sba(innWeight
NNWeight
p206
(dp207
g3
F0.047635459231181135
sba(innWeight
NNWeight
p208
(dp209
g3
F0.041800477254639756
sba(innWeight
NNWeight
p210
(dp211
g3
F-0.004443851894392048
sba(innWeight
NNWeight
p212
(dp213
g3
F0.02796044768550522
sba(innWeight
NNWeight
p214
(dp215
g3
F-0.03129070557569017
sba(innWeight
NNWeight
p216
(dp217
g3
F0.03556161598282869
sba(innWeight
NNWeight
p218
(dp219
g3
F-0.017871824507974265
sba(innWeight
NNWeight
p220
(dp221
g3
F0.03898238494744987
sba(innWeight
NNWeight
p222
(dp223
g3
F0.0497867110571564
sba(innWeight
NNWeight
p224
(dp225
g3
F-0.012117353279932764
sba(innWeight
NNWeight
p226
(dp227
g3
F0.011629268933731863
sba(innWeight
NNWeight
p228
(dp229
g3
F-0.0073592651916529975
sba(innWeight
NNWeight
p230
(dp231
g3
F0.018998605576508423
sba(innWeight
NNWeight
p232
(dp233
g3
F-0.014063722221506349
sba(innWeight
NNWeight
p234
(dp235
g3
F0.018941998977911913
sba(innWeight
NNWeight
p236
(dp237
g3
F-0.018794435580604466
sba(innWeight
NNWeight
p238
(dp239
g3
F-0.013831415488415589
sba(innWeight
NNWeight
p240
(dp241
g3
F-0.048622492378744366
sba(innWeight
NNWeight
p242
(dp243
g3
F0.01611867021235953
sba(innWeight
NNWeight
p244
(dp245
g3
F0.024967636876614543
sba(innWeight
NNWeight
p246
(dp247
g3
F-0.022128612820500482
sba(innWeight
NNWeight
p248
(dp249
g3
F0.03655606095823675
sba(innWeight
NNWeight
p250
(dp251
g3
F0.04973933816451175
sba(innWeight
NNWeight
p252
(dp253
g3
F0.017499249283133157
sba(innWeight
NNWeight
p254
(dp255
g3
F-0.01325928972924908
sba(innWeight
NNWeight
p256
(dp257
g3
F0.01133444516005302
sba(innWeight
NNWeight
p258
(dp259
g3
F-0.03694500681051641
sba(innWeight
NNWeight
p260
(dp261
g3
F-0.04292810080178422
sba(innWeight
NNWeight
p262
(dp263
g3
F-0.034963021182192425
sba(innWeight
NNWeight
p264
(dp265
g3
F0.031138401025753937
sba(innWeight
NNWeight
p266
(dp267
g3
F0.045591630119072135
sba(innWeight
NNWeight
p268
(dp269
g3
F-0.014275069574937349
sba(innWeight
NNWeight
p270
(dp271
g3
F-0.0034998346838671316
sba(innWeight
NNWeight
p272
(dp273
g3
F0.015062595993491313
sba(innWeight
NNWeight
p274
(dp275
g3
F0.04590537463454132
sba(innWeight
NNWeight
p276
(dp277
g3
F0.04823109280868353
sba(innWeight
NNWeight
p278
(dp279
g3
F-0.038315327877985264
sba(innWeight
NNWeight
p280
(dp281
g3
F-0.031081381406502007
sba(innWeight
NNWeight
p282
(dp283
g3
F0.005185656640252012
sba(innWeight
NNWeight
p284
(dp285
g3
F0.037264989444490915
sba(innWeight
NNWeight
p286
(dp287
g3
F0.044894119245001064
sba(innWeight
NNWeight
p288
(dp289
g3
F0.0028738402154085962
sba(innWeight
NNWeight
p290
(dp291
g3
F-0.020912862505337006
sba(innWeight
NNWeight
p292
(dp293
g3
F0.005268061443551364
sba(innWeight
NNWeight
p294
(dp295
g3
F-0.04871840387795565
sba(innWeight
NNWeight
p296
(dp297
g3
F-0.03294765937338118
sba(innWeight
NNWeight
p298
(dp299
g3
F0.03001311546267458
sba(innWeight
NNWeight
p300
(dp301
g3
F0.023348050959155143
sba(innWeight
NNWeight
p302
(dp303
g3
F-0.012392638567616477
sba(innWeight
NNWeight
p304
(dp305
g3
F0.025552098957858895
sba(innWeight
NNWeight
p306
(dp307
g3
F0.045190170241998354
sba(innWeight
NNWeight
p308
(dp309
g3
F0.022028773439716043
sba(innWeight
NNWeight
p310
(dp311
g3
F0.028498355085482985
sba(innWeight
NNWeight
p312
(dp313
g3
F0.00943313217143026
sba.