(lp0
(innWeight
NNWeight
p1
(dp2
S'val'
p3
F-0.03973966709521806
sba(innWeight
NNWeight
p4
(dp5
g3
F-0.04500478191906039
sba(innWeight
NNWeight
p6
(dp7
g3
F-0.027576366407367915
sba(innWeight
NNWeight
p8
(dp9
g3
F-0.027675420812917774
sba(innWeight
NNWeight
p10
(dp11
g3
F0.03808199212138924
sba(innWeight
NNWeight
p12
(dp13
g3
F-0.029993516558873626
sba(innWeight
NNWeight
p14
(dp15
g3
F-0.03323934228861194
sba(innWeight
NNWeight
p16
(dp17
g3
F0.029550687724288063
sba(innWeight
NNWeight
p18
(dp19
g3
F-0.010640754436614542
sba(innWeight
NNWeight
p20
(dp21
g3
F-0.044552482484670156
sba(innWeight
NNWeight
p22
(dp23
g3
F-0.04842307375595001
sba(innWeight
NNWeight
p24
(dp25
g3
F-0.03939323393540355
sba(innWeight
NNWeight
p26
(dp27
g3
F0.03251342092853178
sba(innWeight
NNWeight
p28
(dp29
g3
F0.037779770296785656
sba(innWeight
NNWeight
p30
(dp31
g3
F0.011014862109170444
sba(innWeight
NNWeight
p32
(dp33
g3
F0.01651561260190586
sba(innWeight
NNWeight
p34
(dp35
g3
F-0.028750487755344403
sba(innWeight
NNWeight
p36
(dp37
g3
F0.0011575266024125396
sba(innWeight
NNWeight
p38
(dp39
g3
F0.046772964851263844
sba(innWeight
NNWeight
p40
(dp41
g3
F-0.008412505932062565
sba(innWeight
NNWeight
p42
(dp43
g3
F0.048896534705286133
sba(innWeight
NNWeight
p44
(dp45
g3
F0.0022064798134615485
sba(innWeight
NNWeight
p46
(dp47
g3
F0.016838497820656575
sba(innWeight
NNWeight
p48
(dp49
g3
F-0.04347977860462578
sba(innWeight
NNWeight
p50
(dp51
g3
F-0.015884147563028573
sba(innWeight
NNWeight
p52
(dp53
g3
F0.026584236428977993
sba(innWeight
NNWeight
p54
(dp55
g3
F-0.013862364362991375
sba(innWeight
NNWeight
p56
(dp57
g3
F-0.02484766866253595
sba(innWeight
NNWeight
p58
(dp59
g3
F0.03207243952073111
sba(innWeight
NNWeight
p60
(dp61
g3
F0.04504090966810335
sba(innWeight
NNWeight
p62
(dp63
g3
F-0.028907058679911758
sba(innWeight
NNWeight
p64
(dp65
g3
F0.005003179980892425
sba(innWeight
NNWeight
p66
(dp67
g3
F0.026004029444367874
sba(innWeight
NNWeight
p68
(dp69
g3
F0.02975524511757166
sba(innWeight
NNWeight
p70
(dp71
g3
F-0.023192852099591377
sba(innWeight
NNWeight
p72
(dp73
g3
F0.0356781197963146
sba(innWeight
NNWeight
p74
(dp75
g3
F-0.04605987247723205
sba(innWeight
NNWeight
p76
(dp77
g3
F-0.0021492230837328987
sba(innWeight
NNWeight
p78
(dp79
g3
F-0.03037717900210071
sba(innWeight
NNWeight
p80
(dp81
g3
F-0.0026973271765213694
sba(innWeight
NNWeight
p82
(dp83
g3
F0.0031486052992674707
sba(innWeight
NNWeight
p84
(dp85
g3
F-0.027340015403193554
sba(innWeight
NNWeight
p86
(dp87
g3
F0.040453674959405744
sba(innWeight
NNWeight
p88
(dp89
g3
F-0.011917301585862516
sba(innWeight
NNWeight
p90
(dp91
g3
F0.010887257527366702
sba(innWeight
NNWeight
p92
(dp93
g3
F-0.008814138054779186
sba(innWeight
NNWeight
p94
(dp95
g3
F0.015808478475981925
sba(innWeight
NNWeight
p96
(dp97
g3
F-0.01362713608423296
sba(innWeight
NNWeight
p98
(dp99
g3
F-0.026136691496910825
sba(innWeight
NNWeight
p100
(dp101
g3
F0.022236273452590473
sba(innWeight
NNWeight
p102
(dp103
g3
F-0.013059144565964654
sba(innWeight
NNWeight
p104
(dp105
g3
F0.011241524055830865
sba(innWeight
NNWeight
p106
(dp107
g3
F0.03175495098332747
sba(innWeight
NNWeight
p108
(dp109
g3
F-0.034085011588672796
sba(innWeight
NNWeight
p110
(dp111
g3
F-0.014468071314602149
sba(innWeight
NNWeight
p112
(dp113
g3
F0.049189610620131954
sba(innWeight
NNWeight
p114
(dp115
g3
F0.04057273018516663
sba(innWeight
NNWeight
p116
(dp117
g3
F0.03406214691495736
sba(innWeight
NNWeight
p118
(dp119
g3
F0.011533017809384982
sba(innWeight
NNWeight
p120
(dp121
g3
F0.039013695936126316
sba(innWeight
NNWeight
p122
(dp123
g3
F0.017644696369539203
sba(innWeight
NNWeight
p124
(dp125
g3
F-0.029798152518394284
sba(innWeight
NNWeight
p126
(dp127
g3
F0.03625438817962832
sba(innWeight
NNWeight
p128
(dp129
g3
F0.01611667192643067
sba(innWeight
NNWeight
p130
(dp131
g3
F0.025725164088722344
sba(innWeight
NNWeight
p132
(dp133
g3
F0.0042623614982703955
sba(innWeight
NNWeight
p134
(dp135
g3
F-0.032820023904802334
sba(innWeight
NNWeight
p136
(dp137
g3
F-0.042826817577390534
sba(innWeight
NNWeight
p138
(dp139
g3
F0.032252744965900526
sba(innWeight
NNWeight
p140
(dp141
g3
F-0.03517013682854194
sba(innWeight
NNWeight
p142
(dp143
g3
F0.010488709476314952
sba(innWeight
NNWeight
p144
(dp145
g3
F-0.03193671858473148
sba(innWeight
NNWeight
p146
(dp147
g3
F0.01685726296835356
sba(innWeight
NNWeight
p148
(dp149
g3
F-0.0030416767772251775
sba(innWeight
NNWeight
p150
(dp151
g3
F0.04591858926395195
sba(innWeight
NNWeight
p152
(dp153
g3
F0.00782885684925222
sba(innWeight
NNWeight
p154
(dp155
g3
F0.04673311985162071
sba(innWeight
NNWeight
p156
(dp157
g3
F-0.0314114890486209
sba(innWeight
NNWeight
p158
(dp159
g3
F-0.010564856530546408
sba(innWeight
NNWeight
p160
(dp161
g3
F-0.03258729906614255
sba(innWeight
NNWeight
p162
(dp163
g3
F-0.01345003964914917
sba(innWeight
NNWeight
p164
(dp165
g3
F0.022759801144832628
sba(innWeight
NNWeight
p166
(dp167
g3
F0.02227002956817542
sba(innWeight
NNWeight
p168
(dp169
g3
F-0.02253509929920664
sba(innWeight
NNWeight
p170
(dp171
g3
F-0.026975688206490468
sba(innWeight
NNWeight
p172
(dp173
g3
F0.020290122091238462
sba(innWeight
NNWeight
p174
(dp175
g3
F-0.010390193615206223
sba(innWeight
NNWeight
p176
(dp177
g3
F0.023072539700782137
sba(innWeight
NNWeight
p178
(dp179
g3
F-0.0024765149189153626
sba(innWeight
NNWeight
p180
(dp181
g3
F0.002730232107496211
sba(innWeight
NNWeight
p182
(dp183
g3
F0.03583520784744613
sba(innWeight
NNWeight
p184
(dp185
g3
F0.025361010022699082
sba(innWeight
NNWeight
p186
(dp187
g3
F0.022027396998352423
sba(innWeight
NNWeight
p188
(dp189
g3
F0.015099642206041198
sba(innWeight
NNWeight
p190
(dp191
g3
F-0.027116868287196817
sba(innWeight
NNWeight
p192
(dp193
g3
F-0.04634696811467153
sba(innWeight
NNWeight
p194
(dp195
g3
F-0.040801063385023796
sba(innWeight
NNWeight
p196
(dp197
g3
F0.029552821820588937
sba(innWeight
NNWeight
p198
(dp199
g3
F0.03180710410082467
sba(innWeight
NNWeight
p200
(dp201
g3
F-0.04629505370696202
sba(innWeight
NNWeight
p202
(dp203
g3
F-7.118890242966414e-05
sba(innWeight
NNWeight
p204
(dp205
g3
F-0.044802810765528216
sba(innWeight
NNWeight
p206
(dp207
g3
F0.03240772158042302
sba(innWeight
NNWeight
p208
(dp209
g3
F-0.03019935509162307
sba(innWeight
NNWeight
p210
(dp211
g3
F-0.007067516392468476
sba(innWeight
NNWeight
p212
(dp213
g3
F-0.03691887137398108
sba(innWeight
NNWeight
p214
(dp215
g3
F-0.00664863990350183
sba(innWeight
NNWeight
p216
(dp217
g3
F-0.005647560846142397
sba(innWeight
NNWeight
p218
(dp219
g3
F-0.0016870387196554093
sba(innWeight
NNWeight
p220
(dp221
g3
F-0.004306472430433784
sba(innWeight
NNWeight
p222
(dp223
g3
F-0.03652834295630871
sba(innWeight
NNWeight
p224
(dp225
g3
F-0.03507627282716547
sba(innWeight
NNWeight
p226
(dp227
g3
F0.035907526470989194
sba(innWeight
NNWeight
p228
(dp229
g3
F0.012883283925852251
sba(innWeight
NNWeight
p230
(dp231
g3
F-0.027785041263563695
sba(innWeight
NNWeight
p232
(dp233
g3
F-0.03388743718476155
sba(innWeight
NNWeight
p234
(dp235
g3
F0.031783399918883175
sba(innWeight
NNWeight
p236
(dp237
g3
F-0.010106323748622149
sba(innWeight
NNWeight
p238
(dp239
g3
F0.019909970646278943
sba(innWeight
NNWeight
p240
(dp241
g3
F-0.03995711151123546
sba(innWeight
NNWeight
p242
(dp243
g3
F-0.005568518149036684
sba(innWeight
NNWeight
p244
(dp245
g3
F-0.017562371213607344
sba(innWeight
NNWeight
p246
(dp247
g3
F-0.03062811133517146
sba(innWeight
NNWeight
p248
(dp249
g3
F0.03444456385286456
sba(innWeight
NNWeight
p250
(dp251
g3
F0.022539158942191242
sba(innWeight
NNWeight
p252
(dp253
g3
F-0.04840948579347326
sba(innWeight
NNWeight
p254
(dp255
g3
F-0.019626002281859758
sba(innWeight
NNWeight
p256
(dp257
g3
F0.04462969116888045
sba(innWeight
NNWeight
p258
(dp259
g3
F0.033823989109705126
sba(innWeight
NNWeight
p260
(dp261
g3
F-0.022211476576533086
sba(innWeight
NNWeight
p262
(dp263
g3
F0.0017694438880104801
sba(innWeight
NNWeight
p264
(dp265
g3
F-0.007909525429662145
sba(innWeight
NNWeight
p266
(dp267
g3
F0.036428015846319294
sba(innWeight
NNWeight
p268
(dp269
g3
F0.014800826880642926
sba(innWeight
NNWeight
p270
(dp271
g3
F0.021658438250253265
sba(innWeight
NNWeight
p272
(dp273
g3
F0.020116626709634336
sba(innWeight
NNWeight
p274
(dp275
g3
F0.04823080179143328
sba(innWeight
NNWeight
p276
(dp277
g3
F0.03993928436319716
sba(innWeight
NNWeight
p278
(dp279
g3
F-0.027777368896091472
sba(innWeight
NNWeight
p280
(dp281
g3
F-0.03894056592749219
sba(innWeight
NNWeight
p282
(dp283
g3
F-0.038824346474848996
sba(innWeight
NNWeight
p284
(dp285
g3
F0.013756174201314919
sba(innWeight
NNWeight
p286
(dp287
g3
F0.024067490381749657
sba(innWeight
NNWeight
p288
(dp289
g3
F0.03427987991532079
sba(innWeight
NNWeight
p290
(dp291
g3
F-0.048737146170313564
sba(innWeight
NNWeight
p292
(dp293
g3
F-0.0044269016524073335
sba(innWeight
NNWeight
p294
(dp295
g3
F-0.007168146655511776
sba(innWeight
NNWeight
p296
(dp297
g3
F-0.011256368053815769
sba(innWeight
NNWeight
p298
(dp299
g3
F-0.020166065844869064
sba(innWeight
NNWeight
p300
(dp301
g3
F0.004255297411221737
sba(innWeight
NNWeight
p302
(dp303
g3
F-0.02307357516239278
sba(innWeight
NNWeight
p304
(dp305
g3
F0.020037283330070235
sba(innWeight
NNWeight
p306
(dp307
g3
F0.011688270708092653
sba(innWeight
NNWeight
p308
(dp309
g3
F-0.03691505833957189
sba(innWeight
NNWeight
p310
(dp311
g3
F0.04165551237301414
sba(innWeight
NNWeight
p312
(dp313
g3
F0.02104531881066135
sba.