(lp0
(innWeight
NNWeight
p1
(dp2
S'val'
p3
F-0.03435903038921704
sba(innWeight
NNWeight
p4
(dp5
g3
F0.008982066468494764
sba(innWeight
NNWeight
p6
(dp7
g3
F0.019621382548365755
sba(innWeight
NNWeight
p8
(dp9
g3
F0.016182690683373736
sba(innWeight
NNWeight
p10
(dp11
g3
F-0.04294913533882215
sba(innWeight
NNWeight
p12
(dp13
g3
F-0.056852109890460856
sba(innWeight
NNWeight
p14
(dp15
g3
F-2.0156763594470466e-05
sba(innWeight
NNWeight
p16
(dp17
g3
F-0.0377718319835769
sba(innWeight
NNWeight
p18
(dp19
g3
F0.04153470373400496
sba(innWeight
NNWeight
p20
(dp21
g3
F-0.057900511479753024
sba(innWeight
NNWeight
p22
(dp23
g3
F0.023273602452545117
sba(innWeight
NNWeight
p24
(dp25
g3
F-0.049898105494272676
sba(innWeight
NNWeight
p26
(dp27
g3
F0.02626248645956482
sba(innWeight
NNWeight
p28
(dp29
g3
F0.0025128962934029974
sba(innWeight
NNWeight
p30
(dp31
g3
F0.002757501763513509
sba(innWeight
NNWeight
p32
(dp33
g3
F-0.024703879710106555
sba(innWeight
NNWeight
p34
(dp35
g3
F-0.034501085079073804
sba(innWeight
NNWeight
p36
(dp37
g3
F0.060104935539691214
sba(innWeight
NNWeight
p38
(dp39
g3
F-0.04390269081379125
sba(innWeight
NNWeight
p40
(dp41
g3
F0.021684280583542204
sba(innWeight
NNWeight
p42
(dp43
g3
F0.05060029895482215
sba(innWeight
NNWeight
p44
(dp45
g3
F-0.08211987004066358
sba(innWeight
NNWeight
p46
(dp47
g3
F-0.048668340420453794
sba(innWeight
NNWeight
p48
(dp49
g3
F-0.0022523505978032736
sba(innWeight
NNWeight
p50
(dp51
g3
F0.04064440735183642
sba(innWeight
NNWeight
p52
(dp53
g3
F0.04307912042371955
sba(innWeight
NNWeight
p54
(dp55
g3
F0.017210327910604704
sba(innWeight
NNWeight
p56
(dp57
g3
F-0.02001244218834689
sba(innWeight
NNWeight
p58
(dp59
g3
F-0.06002980778212625
sba(innWeight
NNWeight
p60
(dp61
g3
F-0.04674367722116731
sba(innWeight
NNWeight
p62
(dp63
g3
F0.01108832453584405
sba(innWeight
NNWeight
p64
(dp65
g3
F-0.04458926631879211
sba(innWeight
NNWeight
p66
(dp67
g3
F0.0008863574926733731
sba(innWeight
NNWeight
p68
(dp69
g3
F-0.0016354246601505162
sba(innWeight
NNWeight
p70
(dp71
g3
F-0.07688018630573716
sba(innWeight
NNWeight
p72
(dp73
g3
F-0.03806232878965007
sba(innWeight
NNWeight
p74
(dp75
g3
F0.0029244583107820303
sba(innWeight
NNWeight
p76
(dp77
g3
F-0.05975581569274446
sba(innWeight
NNWeight
p78
(dp79
g3
F-0.018694378763568064
sba(innWeight
NNWeight
p80
(dp81
g3
F0.010247505260524455
sba(innWeight
NNWeight
p82
(dp83
g3
F0.003938315863046492
sba(innWeight
NNWeight
p84
(dp85
g3
F-0.03052157127579074
sba(innWeight
NNWeight
p86
(dp87
g3
F-0.06338947281580411
sba(innWeight
NNWeight
p88
(dp89
g3
F0.010395177205082085
sba(innWeight
NNWeight
p90
(dp91
g3
F-0.0288356771570993
sba(innWeight
NNWeight
p92
(dp93
g3
F0.010517670077711845
sba(innWeight
NNWeight
p94
(dp95
g3
F0.05046874750232185
sba(innWeight
NNWeight
p96
(dp97
g3
F0.004121401874927892
sba(innWeight
NNWeight
p98
(dp99
g3
F-0.0064099749939939
sba(innWeight
NNWeight
p100
(dp101
g3
F-0.019522344780002896
sba(innWeight
NNWeight
p102
(dp103
g3
F0.010496142716066697
sba(innWeight
NNWeight
p104
(dp105
g3
F0.04709358261480943
sba(innWeight
NNWeight
p106
(dp107
g3
F-0.04011232099446259
sba(innWeight
NNWeight
p108
(dp109
g3
F0.0440210672131956
sba(innWeight
NNWeight
p110
(dp111
g3
F-0.03964772336544525
sba(innWeight
NNWeight
p112
(dp113
g3
F-0.06443997976912234
sba(innWeight
NNWeight
p114
(dp115
g3
F-0.09099615155716399
sba(innWeight
NNWeight
p116
(dp117
g3
F-0.05397170707060656
sba(innWeight
NNWeight
p118
(dp119
g3
F0.02169361010648092
sba(innWeight
NNWeight
p120
(dp121
g3
F-0.02637342959907177
sba(innWeight
NNWeight
p122
(dp123
g3
F-0.01669753245469904
sba(innWeight
NNWeight
p124
(dp125
g3
F-0.04728532191171442
sba(innWeight
NNWeight
p126
(dp127
g3
F0.008514701621060317
sba(innWeight
NNWeight
p128
(dp129
g3
F-0.05655464324802504
sba(innWeight
NNWeight
p130
(dp131
g3
F-0.022148777383899688
sba(innWeight
NNWeight
p132
(dp133
g3
F0.04781844492471086
sba(innWeight
NNWeight
p134
(dp135
g3
F-0.0256305893033824
sba(innWeight
NNWeight
p136
(dp137
g3
F-0.015394396216202186
sba(innWeight
NNWeight
p138
(dp139
g3
F-0.0013903676783553528
sba(innWeight
NNWeight
p140
(dp141
g3
F0.06966494868972578
sba(innWeight
NNWeight
p142
(dp143
g3
F0.07151818817888808
sba(innWeight
NNWeight
p144
(dp145
g3
F0.008538419252100879
sba(innWeight
NNWeight
p146
(dp147
g3
F0.02899150335425019
sba(innWeight
NNWeight
p148
(dp149
g3
F-0.009718466023759725
sba(innWeight
NNWeight
p150
(dp151
g3
F-0.016556471305326857
sba(innWeight
NNWeight
p152
(dp153
g3
F0.010434741393832424
sba(innWeight
NNWeight
p154
(dp155
g3
F-0.04295716945898539
sba(innWeight
NNWeight
p156
(dp157
g3
F0.041781594895103635
sba(innWeight
NNWeight
p158
(dp159
g3
F0.027216143971986424
sba(innWeight
NNWeight
p160
(dp161
g3
F-0.03101428543772046
sba(innWeight
NNWeight
p162
(dp163
g3
F-0.07032209766330395
sba(innWeight
NNWeight
p164
(dp165
g3
F0.08627675030743188
sba(innWeight
NNWeight
p166
(dp167
g3
F-0.014223371416021263
sba(innWeight
NNWeight
p168
(dp169
g3
F-0.04680073541561319
sba(innWeight
NNWeight
p170
(dp171
g3
F-0.00512306240571721
sba(innWeight
NNWeight
p172
(dp173
g3
F0.04853026576124712
sba(innWeight
NNWeight
p174
(dp175
g3
F0.037163883093831264
sba(innWeight
NNWeight
p176
(dp177
g3
F0.06170471974569717
sba(innWeight
NNWeight
p178
(dp179
g3
F0.01264316001231979
sba(innWeight
NNWeight
p180
(dp181
g3
F0.006865323605755341
sba(innWeight
NNWeight
p182
(dp183
g3
F0.03588540968092782
sba(innWeight
NNWeight
p184
(dp185
g3
F-0.05633259987793401
sba(innWeight
NNWeight
p186
(dp187
g3
F-0.008505811116036351
sba(innWeight
NNWeight
p188
(dp189
g3
F0.032720151530278754
sba(innWeight
NNWeight
p190
(dp191
g3
F0.006102935521471388
sba(innWeight
NNWeight
p192
(dp193
g3
F0.006496215750439517
sba(innWeight
NNWeight
p194
(dp195
g3
F0.038559714114811516
sba(innWeight
NNWeight
p196
(dp197
g3
F-0.03687961708965791
sba(innWeight
NNWeight
p198
(dp199
g3
F-0.019169424412541734
sba(innWeight
NNWeight
p200
(dp201
g3
F-0.030719205489159424
sba(innWeight
NNWeight
p202
(dp203
g3
F-0.013353963987938259
sba(innWeight
NNWeight
p204
(dp205
g3
F-0.046914212604426866
sba(innWeight
NNWeight
p206
(dp207
g3
F0.003545574707930702
sba(innWeight
NNWeight
p208
(dp209
g3
F-0.005188276862029673
sba(innWeight
NNWeight
p210
(dp211
g3
F0.00281060457814399
sba(innWeight
NNWeight
p212
(dp213
g3
F0.0337560157086886
sba(innWeight
NNWeight
p214
(dp215
g3
F0.02567142389322313
sba(innWeight
NNWeight
p216
(dp217
g3
F0.023138643482707208
sba(innWeight
NNWeight
p218
(dp219
g3
F0.013938536423677969
sba(innWeight
NNWeight
p220
(dp221
g3
F0.04815673172936034
sba(innWeight
NNWeight
p222
(dp223
g3
F0.010368651624742755
sba(innWeight
NNWeight
p224
(dp225
g3
F0.02084948573884219
sba(innWeight
NNWeight
p226
(dp227
g3
F-0.024102537439076976
sba(innWeight
NNWeight
p228
(dp229
g3
F-0.019684533059972784
sba(innWeight
NNWeight
p230
(dp231
g3
F-0.00919141700452085
sba(innWeight
NNWeight
p232
(dp233
g3
F-0.0007773902313982369
sba(innWeight
NNWeight
p234
(dp235
g3
F-0.05657284543733336
sba(innWeight
NNWeight
p236
(dp237
g3
F-0.0638442379984992
sba(innWeight
NNWeight
p238
(dp239
g3
F0.07420992385453139
sba(innWeight
NNWeight
p240
(dp241
g3
F-0.014907693346942301
sba(innWeight
NNWeight
p242
(dp243
g3
F-0.0758863405514943
sba(innWeight
NNWeight
p244
(dp245
g3
F-0.021240078867540077
sba(innWeight
NNWeight
p246
(dp247
g3
F0.03136189154831398
sba(innWeight
NNWeight
p248
(dp249
g3
F0.04791510778941306
sba(innWeight
NNWeight
p250
(dp251
g3
F-0.03851163443844136
sba(innWeight
NNWeight
p252
(dp253
g3
F0.028322801139173674
sba(innWeight
NNWeight
p254
(dp255
g3
F0.043012358718813655
sba(innWeight
NNWeight
p256
(dp257
g3
F-0.0689646884394953
sba(innWeight
NNWeight
p258
(dp259
g3
F-0.011756127130888193
sba(innWeight
NNWeight
p260
(dp261
g3
F-0.0631886630181388
sba(innWeight
NNWeight
p262
(dp263
g3
F-0.03823182983847954
sba(innWeight
NNWeight
p264
(dp265
g3
F-0.052684188645486324
sba(innWeight
NNWeight
p266
(dp267
g3
F-0.04991513111939705
sba(innWeight
NNWeight
p268
(dp269
g3
F0.02210887167501619
sba(innWeight
NNWeight
p270
(dp271
g3
F0.052628969952169966
sba(innWeight
NNWeight
p272
(dp273
g3
F0.07346973746134959
sba(innWeight
NNWeight
p274
(dp275
g3
F-0.020810458825056687
sba(innWeight
NNWeight
p276
(dp277
g3
F-0.022741000023134207
sba(innWeight
NNWeight
p278
(dp279
g3
F0.0189198157020568
sba(innWeight
NNWeight
p280
(dp281
g3
F-0.043296764931129286
sba(innWeight
NNWeight
p282
(dp283
g3
F0.03777002565494501
sba(innWeight
NNWeight
p284
(dp285
g3
F0.004890216191093647
sba(innWeight
NNWeight
p286
(dp287
g3
F-0.04968929860692177
sba(innWeight
NNWeight
p288
(dp289
g3
F0.04183940146581886
sba(innWeight
NNWeight
p290
(dp291
g3
F-0.04048625375046082
sba(innWeight
NNWeight
p292
(dp293
g3
F-0.038639710075136724
sba(innWeight
NNWeight
p294
(dp295
g3
F-0.03464907864009304
sba(innWeight
NNWeight
p296
(dp297
g3
F-0.029307266955760882
sba(innWeight
NNWeight
p298
(dp299
g3
F0.043507940795658714
sba(innWeight
NNWeight
p300
(dp301
g3
F-0.01627073325021334
sba(innWeight
NNWeight
p302
(dp303
g3
F-0.05791651566396087
sba(innWeight
NNWeight
p304
(dp305
g3
F-0.02978937856644643
sba(innWeight
NNWeight
p306
(dp307
g3
F-0.012935439975468628
sba(innWeight
NNWeight
p308
(dp309
g3
F0.00019541484280278393
sba(innWeight
NNWeight
p310
(dp311
g3
F0.04029673549465534
sba(innWeight
NNWeight
p312
(dp313
g3
F0.000786160130284472
sba(innWeight
NNWeight
p314
(dp315
g3
F0.06893908845769393
sba(innWeight
NNWeight
p316
(dp317
g3
F0.01778428083927549
sba(innWeight
NNWeight
p318
(dp319
g3
F0.00582497406987587
sba(innWeight
NNWeight
p320
(dp321
g3
F-0.0342864840930944
sba(innWeight
NNWeight
p322
(dp323
g3
F-0.008510457815729908
sba(innWeight
NNWeight
p324
(dp325
g3
F-0.03253934868705761
sba(innWeight
NNWeight
p326
(dp327
g3
F-0.031891846436519336
sba(innWeight
NNWeight
p328
(dp329
g3
F-0.024047492777079803
sba(innWeight
NNWeight
p330
(dp331
g3
F-0.015582521840080904
sba(innWeight
NNWeight
p332
(dp333
g3
F0.0326931867488242
sba(innWeight
NNWeight
p334
(dp335
g3
F0.03635657107302356
sba(innWeight
NNWeight
p336
(dp337
g3
F0.027810086826515305
sba(innWeight
NNWeight
p338
(dp339
g3
F-0.014928882831219658
sba(innWeight
NNWeight
p340
(dp341
g3
F-0.016095549269968763
sba(innWeight
NNWeight
p342
(dp343
g3
F-0.014418883981655025
sba(innWeight
NNWeight
p344
(dp345
g3
F-0.07923100782791988
sba(innWeight
NNWeight
p346
(dp347
g3
F-0.022987999941931195
sba(innWeight
NNWeight
p348
(dp349
g3
F0.010101512692376247
sba(innWeight
NNWeight
p350
(dp351
g3
F0.022023017792754906
sba(innWeight
NNWeight
p352
(dp353
g3
F0.025514578716706354
sba(innWeight
NNWeight
p354
(dp355
g3
F-0.08455736414695926
sba(innWeight
NNWeight
p356
(dp357
g3
F0.05124990022110664
sba(innWeight
NNWeight
p358
(dp359
g3
F0.05106543510362858
sba(innWeight
NNWeight
p360
(dp361
g3
F-0.07852100057122512
sba(innWeight
NNWeight
p362
(dp363
g3
F0.025359408846075404
sba(innWeight
NNWeight
p364
(dp365
g3
F0.024734081106595522
sba(innWeight
NNWeight
p366
(dp367
g3
F0.014996735940870073
sba(innWeight
NNWeight
p368
(dp369
g3
F0.0028827237924809192
sba(innWeight
NNWeight
p370
(dp371
g3
F-0.024917737078075167
sba(innWeight
NNWeight
p372
(dp373
g3
F0.05859971080117662
sba(innWeight
NNWeight
p374
(dp375
g3
F-0.030641834307072482
sba(innWeight
NNWeight
p376
(dp377
g3
F0.03591061172135722
sba(innWeight
NNWeight
p378
(dp379
g3
F-0.0389046087851987
sba(innWeight
NNWeight
p380
(dp381
g3
F-0.03186569342533007
sba(innWeight
NNWeight
p382
(dp383
g3
F0.051423729970510486
sba(innWeight
NNWeight
p384
(dp385
g3
F0.025793541395637776
sba(innWeight
NNWeight
p386
(dp387
g3
F-0.0289937021313041
sba(innWeight
NNWeight
p388
(dp389
g3
F-0.03914448988580079
sba(innWeight
NNWeight
p390
(dp391
g3
F-0.005681345565608982
sba(innWeight
NNWeight
p392
(dp393
g3
F0.05866208908855672
sba(innWeight
NNWeight
p394
(dp395
g3
F0.07868959767458748
sba(innWeight
NNWeight
p396
(dp397
g3
F0.06136957215684548
sba(innWeight
NNWeight
p398
(dp399
g3
F0.07407734059588349
sba(innWeight
NNWeight
p400
(dp401
g3
F-0.02631179981152994
sba(innWeight
NNWeight
p402
(dp403
g3
F-0.041588698624013445
sba(innWeight
NNWeight
p404
(dp405
g3
F-0.008230857939535369
sba(innWeight
NNWeight
p406
(dp407
g3
F-0.06410778932839828
sba(innWeight
NNWeight
p408
(dp409
g3
F-0.0029806895014423884
sba(innWeight
NNWeight
p410
(dp411
g3
F0.0685444554306156
sba(innWeight
NNWeight
p412
(dp413
g3
F-0.002683288753490941
sba(innWeight
NNWeight
p414
(dp415
g3
F-0.0045501180211282724
sba(innWeight
NNWeight
p416
(dp417
g3
F-0.02870609518379778
sba(innWeight
NNWeight
p418
(dp419
g3
F0.030890963682690016
sba(innWeight
NNWeight
p420
(dp421
g3
F-0.026636650034737832
sba(innWeight
NNWeight
p422
(dp423
g3
F0.059303521056798196
sba(innWeight
NNWeight
p424
(dp425
g3
F-0.020855794378120823
sba(innWeight
NNWeight
p426
(dp427
g3
F0.03208618405148308
sba(innWeight
NNWeight
p428
(dp429
g3
F-0.016844152705905006
sba(innWeight
NNWeight
p430
(dp431
g3
F-0.03894651965164479
sba(innWeight
NNWeight
p432
(dp433
g3
F0.035345666994533016
sba(innWeight
NNWeight
p434
(dp435
g3
F-0.042230336474273766
sba(innWeight
NNWeight
p436
(dp437
g3
F0.057838446589972316
sba(innWeight
NNWeight
p438
(dp439
g3
F-0.06647628705025146
sba(innWeight
NNWeight
p440
(dp441
g3
F0.06326128472093573
sba(innWeight
NNWeight
p442
(dp443
g3
F0.06530812550200829
sba(innWeight
NNWeight
p444
(dp445
g3
F0.0018661518253173968
sba(innWeight
NNWeight
p446
(dp447
g3
F0.019329628675038714
sba(innWeight
NNWeight
p448
(dp449
g3
F0.029606781529948615
sba(innWeight
NNWeight
p450
(dp451
g3
F-0.04373432789870401
sba(innWeight
NNWeight
p452
(dp453
g3
F0.02205022068677219
sba(innWeight
NNWeight
p454
(dp455
g3
F0.0065307214431459875
sba(innWeight
NNWeight
p456
(dp457
g3
F-0.019685312055492333
sba(innWeight
NNWeight
p458
(dp459
g3
F-0.026926604943154877
sba(innWeight
NNWeight
p460
(dp461
g3
F0.06659228551694181
sba(innWeight
NNWeight
p462
(dp463
g3
F-0.022920323280022796
sba(innWeight
NNWeight
p464
(dp465
g3
F0.0018240093172835592
sba(innWeight
NNWeight
p466
(dp467
g3
F-0.025148071206452304
sba(innWeight
NNWeight
p468
(dp469
g3
F0.041039902348138764
sba(innWeight
NNWeight
p470
(dp471
g3
F0.03775063199625267
sba(innWeight
NNWeight
p472
(dp473
g3
F-0.031958308060758604
sba(innWeight
NNWeight
p474
(dp475
g3
F0.0004693865910617852
sba(innWeight
NNWeight
p476
(dp477
g3
F-0.04285340969962267
sba(innWeight
NNWeight
p478
(dp479
g3
F-0.02695531039506763
sba(innWeight
NNWeight
p480
(dp481
g3
F0.06845715343632454
sba(innWeight
NNWeight
p482
(dp483
g3
F-0.04200014229044186
sba(innWeight
NNWeight
p484
(dp485
g3
F-0.02877741962837929
sba(innWeight
NNWeight
p486
(dp487
g3
F0.0399433538652524
sba(innWeight
NNWeight
p488
(dp489
g3
F-0.03589672470529671
sba(innWeight
NNWeight
p490
(dp491
g3
F0.030421663029575798
sba(innWeight
NNWeight
p492
(dp493
g3
F-0.026114054622456202
sba(innWeight
NNWeight
p494
(dp495
g3
F-0.05148250123202541
sba(innWeight
NNWeight
p496
(dp497
g3
F-0.0031492625394128467
sba(innWeight
NNWeight
p498
(dp499
g3
F0.05808662165093267
sba(innWeight
NNWeight
p500
(dp501
g3
F0.016625896790399115
sba(innWeight
NNWeight
p502
(dp503
g3
F0.03691272864204353
sba(innWeight
NNWeight
p504
(dp505
g3
F-0.002300519525999397
sba(innWeight
NNWeight
p506
(dp507
g3
F0.005025873949227277
sba(innWeight
NNWeight
p508
(dp509
g3
F0.009487492738277467
sba(innWeight
NNWeight
p510
(dp511
g3
F-0.005222565220053661
sba(innWeight
NNWeight
p512
(dp513
g3
F0.010908157853669236
sba(innWeight
NNWeight
p514
(dp515
g3
F-0.017203365855673967
sba(innWeight
NNWeight
p516
(dp517
g3
F-0.022082122096529596
sba(innWeight
NNWeight
p518
(dp519
g3
F0.014984878700748255
sba(innWeight
NNWeight
p520
(dp521
g3
F-0.008654284285533503
sba(innWeight
NNWeight
p522
(dp523
g3
F-0.006313099730834439
sba(innWeight
NNWeight
p524
(dp525
g3
F-0.04056979427150448
sba(innWeight
NNWeight
p526
(dp527
g3
F0.026178594146653737
sba(innWeight
NNWeight
p528
(dp529
g3
F-0.0021126252683135133
sba(innWeight
NNWeight
p530
(dp531
g3
F0.020680015288878147
sba(innWeight
NNWeight
p532
(dp533
g3
F-0.020839410859033618
sba(innWeight
NNWeight
p534
(dp535
g3
F-0.011013637525864586
sba(innWeight
NNWeight
p536
(dp537
g3
F-0.035486659004347665
sba(innWeight
NNWeight
p538
(dp539
g3
F0.027729712177685297
sba(innWeight
NNWeight
p540
(dp541
g3
F-0.03535998850203168
sba(innWeight
NNWeight
p542
(dp543
g3
F-0.07197814531095435
sba(innWeight
NNWeight
p544
(dp545
g3
F0.049963154119957026
sba(innWeight
NNWeight
p546
(dp547
g3
F0.004351147053341217
sba(innWeight
NNWeight
p548
(dp549
g3
F0.026894292946016193
sba(innWeight
NNWeight
p550
(dp551
g3
F0.042844557917208696
sba(innWeight
NNWeight
p552
(dp553
g3
F-0.020622145090506104
sba(innWeight
NNWeight
p554
(dp555
g3
F0.04673937551608568
sba(innWeight
NNWeight
p556
(dp557
g3
F-0.05182272368225546
sba(innWeight
NNWeight
p558
(dp559
g3
F-0.09089818264372522
sba(innWeight
NNWeight
p560
(dp561
g3
F-0.07014467557262309
sba(innWeight
NNWeight
p562
(dp563
g3
F0.034516356442500035
sba(innWeight
NNWeight
p564
(dp565
g3
F0.023804542836733642
sba(innWeight
NNWeight
p566
(dp567
g3
F-0.053503600312831585
sba(innWeight
NNWeight
p568
(dp569
g3
F0.021630240651826074
sba(innWeight
NNWeight
p570
(dp571
g3
F-0.025394446661115407
sba(innWeight
NNWeight
p572
(dp573
g3
F0.00507188499709375
sba(innWeight
NNWeight
p574
(dp575
g3
F0.05087515048392066
sba(innWeight
NNWeight
p576
(dp577
g3
F-0.0026430932987072963
sba(innWeight
NNWeight
p578
(dp579
g3
F-0.01913986010670569
sba(innWeight
NNWeight
p580
(dp581
g3
F-0.07917967088140705
sba(innWeight
NNWeight
p582
(dp583
g3
F0.020322924161182844
sba(innWeight
NNWeight
p584
(dp585
g3
F0.02500920548406231
sba(innWeight
NNWeight
p586
(dp587
g3
F0.0037917313198971626
sba(innWeight
NNWeight
p588
(dp589
g3
F-0.03161547972563218
sba(innWeight
NNWeight
p590
(dp591
g3
F0.04148582379084059
sba(innWeight
NNWeight
p592
(dp593
g3
F0.0594253113428257
sba(innWeight
NNWeight
p594
(dp595
g3
F0.02362442117372966
sba(innWeight
NNWeight
p596
(dp597
g3
F0.015170975041731514
sba(innWeight
NNWeight
p598
(dp599
g3
F-0.018823775799742218
sba(innWeight
NNWeight
p600
(dp601
g3
F0.004315092728881773
sba(innWeight
NNWeight
p602
(dp603
g3
F-0.013618319898092908
sba(innWeight
NNWeight
p604
(dp605
g3
F0.01279851268693074
sba(innWeight
NNWeight
p606
(dp607
g3
F0.008403848419210049
sba(innWeight
NNWeight
p608
(dp609
g3
F-0.06582189869763558
sba(innWeight
NNWeight
p610
(dp611
g3
F0.0666903588593929
sba(innWeight
NNWeight
p612
(dp613
g3
F0.014928677530229622
sba(innWeight
NNWeight
p614
(dp615
g3
F-0.06760100941948319
sba(innWeight
NNWeight
p616
(dp617
g3
F0.007687475463895929
sba(innWeight
NNWeight
p618
(dp619
g3
F-0.019874939520480858
sba(innWeight
NNWeight
p620
(dp621
g3
F0.004928566727643532
sba(innWeight
NNWeight
p622
(dp623
g3
F-0.04710449211375226
sba(innWeight
NNWeight
p624
(dp625
g3
F-0.004875467515183251
sba(innWeight
NNWeight
p626
(dp627
g3
F-0.10162207165833095
sba(innWeight
NNWeight
p628
(dp629
g3
F0.06938192173513898
sba(innWeight
NNWeight
p630
(dp631
g3
F0.10547296802783379
sba(innWeight
NNWeight
p632
(dp633
g3
F0.03526337429473919
sba(innWeight
NNWeight
p634
(dp635
g3
F-0.00891328797920127
sba(innWeight
NNWeight
p636
(dp637
g3
F-0.015056453520115812
sba(innWeight
NNWeight
p638
(dp639
g3
F0.043716691354672835
sba(innWeight
NNWeight
p640
(dp641
g3
F-0.016646162006449097
sba(innWeight
NNWeight
p642
(dp643
g3
F0.05456691700082386
sba(innWeight
NNWeight
p644
(dp645
g3
F0.004381365678145692
sba(innWeight
NNWeight
p646
(dp647
g3
F-0.020822710497083195
sba(innWeight
NNWeight
p648
(dp649
g3
F0.06923926214462167
sba(innWeight
NNWeight
p650
(dp651
g3
F-0.00647042869759145
sba(innWeight
NNWeight
p652
(dp653
g3
F0.014566637685911535
sba(innWeight
NNWeight
p654
(dp655
g3
F-0.017135909093850703
sba(innWeight
NNWeight
p656
(dp657
g3
F0.0011591639417212886
sba(innWeight
NNWeight
p658
(dp659
g3
F0.08396221175194774
sba(innWeight
NNWeight
p660
(dp661
g3
F-0.00037917163725595995
sba(innWeight
NNWeight
p662
(dp663
g3
F-0.02316127159707609
sba(innWeight
NNWeight
p664
(dp665
g3
F-0.03256796280012037
sba(innWeight
NNWeight
p666
(dp667
g3
F-0.044777542644267844
sba(innWeight
NNWeight
p668
(dp669
g3
F0.0610210052451862
sba(innWeight
NNWeight
p670
(dp671
g3
F0.026212817133740105
sba(innWeight
NNWeight
p672
(dp673
g3
F-0.0032948940193088102
sba(innWeight
NNWeight
p674
(dp675
g3
F0.010862878277875854
sba(innWeight
NNWeight
p676
(dp677
g3
F0.023457600671474375
sba(innWeight
NNWeight
p678
(dp679
g3
F-0.042180386415381
sba(innWeight
NNWeight
p680
(dp681
g3
F-0.035612332230852174
sba(innWeight
NNWeight
p682
(dp683
g3
F0.04750123504460481
sba(innWeight
NNWeight
p684
(dp685
g3
F-0.047824023467450516
sba(innWeight
NNWeight
p686
(dp687
g3
F-0.017258345118782815
sba(innWeight
NNWeight
p688
(dp689
g3
F0.012791734270839449
sba(innWeight
NNWeight
p690
(dp691
g3
F0.03313339575863511
sba(innWeight
NNWeight
p692
(dp693
g3
F0.05858262293184417
sba(innWeight
NNWeight
p694
(dp695
g3
F0.027677466165434875
sba(innWeight
NNWeight
p696
(dp697
g3
F-0.029781388272756473
sba(innWeight
NNWeight
p698
(dp699
g3
F0.04080243877122224
sba(innWeight
NNWeight
p700
(dp701
g3
F-0.0307596198375388
sba(innWeight
NNWeight
p702
(dp703
g3
F-0.004398166617214171
sba(innWeight
NNWeight
p704
(dp705
g3
F-0.033421798556608324
sba(innWeight
NNWeight
p706
(dp707
g3
F0.028383897148507566
sba(innWeight
NNWeight
p708
(dp709
g3
F0.03229694648853429
sba(innWeight
NNWeight
p710
(dp711
g3
F0.014482356539410393
sba(innWeight
NNWeight
p712
(dp713
g3
F0.010996507433512777
sba(innWeight
NNWeight
p714
(dp715
g3
F-0.059099409879680306
sba(innWeight
NNWeight
p716
(dp717
g3
F0.048004384298108924
sba(innWeight
NNWeight
p718
(dp719
g3
F-0.017951452449796568
sba(innWeight
NNWeight
p720
(dp721
g3
F-0.04256810263712143
sba(innWeight
NNWeight
p722
(dp723
g3
F-0.005485341377651439
sba(innWeight
NNWeight
p724
(dp725
g3
F-0.027983015584646876
sba(innWeight
NNWeight
p726
(dp727
g3
F0.045448526206706044
sba(innWeight
NNWeight
p728
(dp729
g3
F-0.04010176849484899
sba(innWeight
NNWeight
p730
(dp731
g3
F0.003543199133553977
sba(innWeight
NNWeight
p732
(dp733
g3
F0.03066979501738574
sba(innWeight
NNWeight
p734
(dp735
g3
F-0.03135731159400323
sba(innWeight
NNWeight
p736
(dp737
g3
F0.0742324345185363
sba(innWeight
NNWeight
p738
(dp739
g3
F0.03377369049818596
sba(innWeight
NNWeight
p740
(dp741
g3
F-0.023741523771247577
sba(innWeight
NNWeight
p742
(dp743
g3
F-0.011225071436755172
sba(innWeight
NNWeight
p744
(dp745
g3
F-0.08355208896560598
sba(innWeight
NNWeight
p746
(dp747
g3
F-0.027455610579677065
sba(innWeight
NNWeight
p748
(dp749
g3
F0.02711277249388442
sba(innWeight
NNWeight
p750
(dp751
g3
F0.02253987503383954
sba(innWeight
NNWeight
p752
(dp753
g3
F0.0054219614111649436
sba(innWeight
NNWeight
p754
(dp755
g3
F0.013380663409204071
sba(innWeight
NNWeight
p756
(dp757
g3
F0.03634017469038272
sba(innWeight
NNWeight
p758
(dp759
g3
F0.02785424407384477
sba(innWeight
NNWeight
p760
(dp761
g3
F0.01872907845574764
sba(innWeight
NNWeight
p762
(dp763
g3
F-0.017965433088830005
sba(innWeight
NNWeight
p764
(dp765
g3
F0.020281495218469055
sba(innWeight
NNWeight
p766
(dp767
g3
F-0.005952727177357941
sba(innWeight
NNWeight
p768
(dp769
g3
F0.029640459135463735
sba(innWeight
NNWeight
p770
(dp771
g3
F-0.020513819480957724
sba(innWeight
NNWeight
p772
(dp773
g3
F-0.013116965032555336
sba(innWeight
NNWeight
p774
(dp775
g3
F-0.006684776475444282
sba(innWeight
NNWeight
p776
(dp777
g3
F0.025506911390042075
sba(innWeight
NNWeight
p778
(dp779
g3
F0.0320737039229496
sba(innWeight
NNWeight
p780
(dp781
g3
F-0.008747719287020473
sba(innWeight
NNWeight
p782
(dp783
g3
F-0.027044974944778102
sba(innWeight
NNWeight
p784
(dp785
g3
F-0.006245797017851758
sba(innWeight
NNWeight
p786
(dp787
g3
F-0.005389956913624232
sba(innWeight
NNWeight
p788
(dp789
g3
F0.059561800102672764
sba(innWeight
NNWeight
p790
(dp791
g3
F0.013392438452991361
sba(innWeight
NNWeight
p792
(dp793
g3
F0.017851325992258006
sba(innWeight
NNWeight
p794
(dp795
g3
F-0.03390220799674498
sba(innWeight
NNWeight
p796
(dp797
g3
F-0.022134931916485884
sba(innWeight
NNWeight
p798
(dp799
g3
F0.005680644827362974
sba(innWeight
NNWeight
p800
(dp801
g3
F0.031124599414558397
sba(innWeight
NNWeight
p802
(dp803
g3
F-0.018034890784765133
sba(innWeight
NNWeight
p804
(dp805
g3
F0.014079341200042242
sba(innWeight
NNWeight
p806
(dp807
g3
F-0.030873254896157148
sba(innWeight
NNWeight
p808
(dp809
g3
F0.043415739305571806
sba(innWeight
NNWeight
p810
(dp811
g3
F-0.0028029183745911295
sba(innWeight
NNWeight
p812
(dp813
g3
F-0.011757219162186625
sba(innWeight
NNWeight
p814
(dp815
g3
F0.011692409778912094
sba(innWeight
NNWeight
p816
(dp817
g3
F-0.02736750408922475
sba(innWeight
NNWeight
p818
(dp819
g3
F-0.0022634333667535932
sba(innWeight
NNWeight
p820
(dp821
g3
F0.054463839800081806
sba(innWeight
NNWeight
p822
(dp823
g3
F0.020952882895534677
sba(innWeight
NNWeight
p824
(dp825
g3
F0.026762800696136825
sba(innWeight
NNWeight
p826
(dp827
g3
F-0.023113274120928194
sba(innWeight
NNWeight
p828
(dp829
g3
F0.03493593351052537
sba(innWeight
NNWeight
p830
(dp831
g3
F0.019402989508999546
sba(innWeight
NNWeight
p832
(dp833
g3
F0.03464023553783279
sba(innWeight
NNWeight
p834
(dp835
g3
F-0.03584500689131673
sba(innWeight
NNWeight
p836
(dp837
g3
F-0.04084043573592769
sba(innWeight
NNWeight
p838
(dp839
g3
F-0.030109787620323094
sba(innWeight
NNWeight
p840
(dp841
g3
F0.011451429956866871
sba(innWeight
NNWeight
p842
(dp843
g3
F-0.01671008449741226
sba(innWeight
NNWeight
p844
(dp845
g3
F0.0004815331913404822
sba(innWeight
NNWeight
p846
(dp847
g3
F0.048481525973685206
sba(innWeight
NNWeight
p848
(dp849
g3
F-0.030397859773295097
sba(innWeight
NNWeight
p850
(dp851
g3
F-0.04851682933848412
sba(innWeight
NNWeight
p852
(dp853
g3
F-0.07004805473907946
sba(innWeight
NNWeight
p854
(dp855
g3
F0.04702962918570074
sba(innWeight
NNWeight
p856
(dp857
g3
F0.045360664779045906
sba(innWeight
NNWeight
p858
(dp859
g3
F-0.06886500473742382
sba(innWeight
NNWeight
p860
(dp861
g3
F-0.03076974039766789
sba(innWeight
NNWeight
p862
(dp863
g3
F0.029681715985436476
sba(innWeight
NNWeight
p864
(dp865
g3
F0.005637703031368232
sba(innWeight
NNWeight
p866
(dp867
g3
F-0.058765549355899845
sba(innWeight
NNWeight
p868
(dp869
g3
F-0.02061622712211291
sba(innWeight
NNWeight
p870
(dp871
g3
F0.05699741005545019
sba(innWeight
NNWeight
p872
(dp873
g3
F-0.027954250443849863
sba(innWeight
NNWeight
p874
(dp875
g3
F0.032402955050020825
sba(innWeight
NNWeight
p876
(dp877
g3
F-0.054046924576024134
sba(innWeight
NNWeight
p878
(dp879
g3
F-0.03939426052772771
sba(innWeight
NNWeight
p880
(dp881
g3
F-0.005961902473211777
sba(innWeight
NNWeight
p882
(dp883
g3
F-0.04472805589532205
sba(innWeight
NNWeight
p884
(dp885
g3
F0.015156489788037296
sba(innWeight
NNWeight
p886
(dp887
g3
F-0.01927138650566296
sba(innWeight
NNWeight
p888
(dp889
g3
F0.01440640938400968
sba(innWeight
NNWeight
p890
(dp891
g3
F0.02754111334872116
sba(innWeight
NNWeight
p892
(dp893
g3
F-0.006139147569861073
sba(innWeight
NNWeight
p894
(dp895
g3
F-0.087706210841339
sba(innWeight
NNWeight
p896
(dp897
g3
F0.07136018183724008
sba(innWeight
NNWeight
p898
(dp899
g3
F0.025195161282819064
sba(innWeight
NNWeight
p900
(dp901
g3
F0.041795169947974574
sba(innWeight
NNWeight
p902
(dp903
g3
F-0.0013137020364457736
sba(innWeight
NNWeight
p904
(dp905
g3
F0.054926272726679826
sba(innWeight
NNWeight
p906
(dp907
g3
F-0.005729788693142787
sba(innWeight
NNWeight
p908
(dp909
g3
F-0.023145237999899673
sba(innWeight
NNWeight
p910
(dp911
g3
F0.024250314357056105
sba(innWeight
NNWeight
p912
(dp913
g3
F-0.0122870397550957
sba(innWeight
NNWeight
p914
(dp915
g3
F-0.0387632394362509
sba(innWeight
NNWeight
p916
(dp917
g3
F0.02099271412713903
sba(innWeight
NNWeight
p918
(dp919
g3
F-0.006911150017774338
sba(innWeight
NNWeight
p920
(dp921
g3
F0.0352139452184058
sba(innWeight
NNWeight
p922
(dp923
g3
F-0.03647910066334786
sba(innWeight
NNWeight
p924
(dp925
g3
F-0.03893210843765846
sba(innWeight
NNWeight
p926
(dp927
g3
F-0.028119619750489495
sba(innWeight
NNWeight
p928
(dp929
g3
F0.01729483844324504
sba(innWeight
NNWeight
p930
(dp931
g3
F-0.0110275150727021
sba(innWeight
NNWeight
p932
(dp933
g3
F0.009221114929729948
sba(innWeight
NNWeight
p934
(dp935
g3
F-0.04307698904323375
sba(innWeight
NNWeight
p936
(dp937
g3
F-0.032536772279436625
sba(innWeight
NNWeight
p938
(dp939
g3
F-0.07089892209807833
sba(innWeight
NNWeight
p940
(dp941
g3
F-0.012937769231263982
sba(innWeight
NNWeight
p942
(dp943
g3
F-0.029343119887576492
sba(innWeight
NNWeight
p944
(dp945
g3
F-0.02228716035862957
sba(innWeight
NNWeight
p946
(dp947
g3
F-0.02473893716350618
sba(innWeight
NNWeight
p948
(dp949
g3
F-0.022784414396959315
sba(innWeight
NNWeight
p950
(dp951
g3
F-0.06951132180397618
sba(innWeight
NNWeight
p952
(dp953
g3
F-0.03391002662414763
sba(innWeight
NNWeight
p954
(dp955
g3
F0.02904717078180404
sba(innWeight
NNWeight
p956
(dp957
g3
F0.007379692024994224
sba(innWeight
NNWeight
p958
(dp959
g3
F0.030740308293521642
sba(innWeight
NNWeight
p960
(dp961
g3
F0.020616500383838957
sba(innWeight
NNWeight
p962
(dp963
g3
F-0.06319264342110115
sba(innWeight
NNWeight
p964
(dp965
g3
F0.018756959594291606
sba(innWeight
NNWeight
p966
(dp967
g3
F0.0020059565472394614
sba(innWeight
NNWeight
p968
(dp969
g3
F-0.059537687861785926
sba(innWeight
NNWeight
p970
(dp971
g3
F0.04090694401023943
sba(innWeight
NNWeight
p972
(dp973
g3
F0.015112188195689387
sba(innWeight
NNWeight
p974
(dp975
g3
F-0.05294260743545769
sba(innWeight
NNWeight
p976
(dp977
g3
F-0.00880880682513824
sba(innWeight
NNWeight
p978
(dp979
g3
F-0.030936643417417028
sba(innWeight
NNWeight
p980
(dp981
g3
F0.02544396058009586
sba(innWeight
NNWeight
p982
(dp983
g3
F-0.0025172263160310026
sba(innWeight
NNWeight
p984
(dp985
g3
F-0.004704856321643964
sba(innWeight
NNWeight
p986
(dp987
g3
F-0.02254149741634918
sba(innWeight
NNWeight
p988
(dp989
g3
F-0.006774807062552856
sba(innWeight
NNWeight
p990
(dp991
g3
F-0.00268154051092928
sba(innWeight
NNWeight
p992
(dp993
g3
F0.039864334874847446
sba(innWeight
NNWeight
p994
(dp995
g3
F0.059265117161647826
sba(innWeight
NNWeight
p996
(dp997
g3
F-0.014794506765538184
sba(innWeight
NNWeight
p998
(dp999
g3
F0.01384797533118929
sba(innWeight
NNWeight
p1000
(dp1001
g3
F0.06812674490953555
sba(innWeight
NNWeight
p1002
(dp1003
g3
F-0.01242069338352066
sba(innWeight
NNWeight
p1004
(dp1005
g3
F0.020502066435985056
sba(innWeight
NNWeight
p1006
(dp1007
g3
F-0.015325822404361155
sba(innWeight
NNWeight
p1008
(dp1009
g3
F-0.0029343606486903675
sba(innWeight
NNWeight
p1010
(dp1011
g3
F-0.004476619093748633
sba(innWeight
NNWeight
p1012
(dp1013
g3
F-0.07105457980454218
sba(innWeight
NNWeight
p1014
(dp1015
g3
F0.029962216003773183
sba(innWeight
NNWeight
p1016
(dp1017
g3
F0.01660504342898731
sba(innWeight
NNWeight
p1018
(dp1019
g3
F-0.02449945617671526
sba(innWeight
NNWeight
p1020
(dp1021
g3
F0.011224651731502468
sba(innWeight
NNWeight
p1022
(dp1023
g3
F-0.052679402052031775
sba(innWeight
NNWeight
p1024
(dp1025
g3
F-0.015206609057787573
sba(innWeight
NNWeight
p1026
(dp1027
g3
F0.028979860689518133
sba(innWeight
NNWeight
p1028
(dp1029
g3
F0.02651271954713658
sba(innWeight
NNWeight
p1030
(dp1031
g3
F-0.04583550505570743
sba(innWeight
NNWeight
p1032
(dp1033
g3
F0.006198483953025239
sba(innWeight
NNWeight
p1034
(dp1035
g3
F0.04228820590255083
sba(innWeight
NNWeight
p1036
(dp1037
g3
F-0.02955987936611588
sba(innWeight
NNWeight
p1038
(dp1039
g3
F0.026874405208483117
sba(innWeight
NNWeight
p1040
(dp1041
g3
F-0.048283177317714414
sba(innWeight
NNWeight
p1042
(dp1043
g3
F0.013177877868393376
sba(innWeight
NNWeight
p1044
(dp1045
g3
F0.0008505375487614738
sba(innWeight
NNWeight
p1046
(dp1047
g3
F0.03630460982339726
sba(innWeight
NNWeight
p1048
(dp1049
g3
F-0.04244699570896076
sba(innWeight
NNWeight
p1050
(dp1051
g3
F-0.04194348903989984
sba(innWeight
NNWeight
p1052
(dp1053
g3
F0.027721042290820053
sba(innWeight
NNWeight
p1054
(dp1055
g3
F-0.023067333941207024
sba(innWeight
NNWeight
p1056
(dp1057
g3
F0.01132353177734606
sba(innWeight
NNWeight
p1058
(dp1059
g3
F-0.03248692673036533
sba(innWeight
NNWeight
p1060
(dp1061
g3
F-0.029831702068901157
sba(innWeight
NNWeight
p1062
(dp1063
g3
F-0.03165449904081875
sba(innWeight
NNWeight
p1064
(dp1065
g3
F0.005077381938917694
sba(innWeight
NNWeight
p1066
(dp1067
g3
F0.04618319717326165
sba(innWeight
NNWeight
p1068
(dp1069
g3
F0.006997026205223004
sba(innWeight
NNWeight
p1070
(dp1071
g3
F-0.044116769479399943
sba(innWeight
NNWeight
p1072
(dp1073
g3
F-0.03445229635622543
sba(innWeight
NNWeight
p1074
(dp1075
g3
F0.027005992658500413
sba(innWeight
NNWeight
p1076
(dp1077
g3
F-0.05088692999164509
sba(innWeight
NNWeight
p1078
(dp1079
g3
F0.012462701411669157
sba(innWeight
NNWeight
p1080
(dp1081
g3
F-0.0028896476034240936
sba(innWeight
NNWeight
p1082
(dp1083
g3
F0.01441465616680452
sba(innWeight
NNWeight
p1084
(dp1085
g3
F0.007112922079601371
sba(innWeight
NNWeight
p1086
(dp1087
g3
F-0.047989936604788015
sba(innWeight
NNWeight
p1088
(dp1089
g3
F0.014097309837796753
sba(innWeight
NNWeight
p1090
(dp1091
g3
F-0.06722091381060397
sba(innWeight
NNWeight
p1092
(dp1093
g3
F0.010594820609788167
sba(innWeight
NNWeight
p1094
(dp1095
g3
F0.049424256801594124
sba(innWeight
NNWeight
p1096
(dp1097
g3
F0.03895650705475461
sba(innWeight
NNWeight
p1098
(dp1099
g3
F0.0502695997830236
sba(innWeight
NNWeight
p1100
(dp1101
g3
F0.010810459721235888
sba(innWeight
NNWeight
p1102
(dp1103
g3
F-0.007808014868880172
sba(innWeight
NNWeight
p1104
(dp1105
g3
F0.031181424382819612
sba(innWeight
NNWeight
p1106
(dp1107
g3
F0.06197409048665759
sba(innWeight
NNWeight
p1108
(dp1109
g3
F0.0406265984180197
sba(innWeight
NNWeight
p1110
(dp1111
g3
F-0.011260386182795122
sba(innWeight
NNWeight
p1112
(dp1113
g3
F-0.033601587970697046
sba(innWeight
NNWeight
p1114
(dp1115
g3
F-0.05360526968413975
sba(innWeight
NNWeight
p1116
(dp1117
g3
F-0.01925569352221576
sba(innWeight
NNWeight
p1118
(dp1119
g3
F-0.03341265836099484
sba(innWeight
NNWeight
p1120
(dp1121
g3
F-0.05280835098529419
sba(innWeight
NNWeight
p1122
(dp1123
g3
F0.013825830887942458
sba(innWeight
NNWeight
p1124
(dp1125
g3
F0.011509532280756792
sba(innWeight
NNWeight
p1126
(dp1127
g3
F-0.03516671970811945
sba(innWeight
NNWeight
p1128
(dp1129
g3
F0.016631165390936457
sba(innWeight
NNWeight
p1130
(dp1131
g3
F-0.03090055911710003
sba(innWeight
NNWeight
p1132
(dp1133
g3
F-0.06037804276681041
sba(innWeight
NNWeight
p1134
(dp1135
g3
F-0.0571610555533576
sba(innWeight
NNWeight
p1136
(dp1137
g3
F-0.005870436598218548
sba(innWeight
NNWeight
p1138
(dp1139
g3
F0.039537708481888444
sba(innWeight
NNWeight
p1140
(dp1141
g3
F-0.021355394132518142
sba(innWeight
NNWeight
p1142
(dp1143
g3
F0.009493186599135622
sba(innWeight
NNWeight
p1144
(dp1145
g3
F-0.001499339564838957
sba(innWeight
NNWeight
p1146
(dp1147
g3
F-0.017731270158807277
sba(innWeight
NNWeight
p1148
(dp1149
g3
F-0.05947281965292293
sba(innWeight
NNWeight
p1150
(dp1151
g3
F0.012321313004498997
sba(innWeight
NNWeight
p1152
(dp1153
g3
F-0.007024424453435822
sba(innWeight
NNWeight
p1154
(dp1155
g3
F0.05718832517391586
sba(innWeight
NNWeight
p1156
(dp1157
g3
F0.049163203389830656
sba(innWeight
NNWeight
p1158
(dp1159
g3
F-0.003488328939362526
sba(innWeight
NNWeight
p1160
(dp1161
g3
F0.027437949050722426
sba(innWeight
NNWeight
p1162
(dp1163
g3
F0.06347215813578694
sba(innWeight
NNWeight
p1164
(dp1165
g3
F0.011071230651295177
sba(innWeight
NNWeight
p1166
(dp1167
g3
F-0.0030339531783904116
sba(innWeight
NNWeight
p1168
(dp1169
g3
F0.010708559757596698
sba(innWeight
NNWeight
p1170
(dp1171
g3
F0.04139056862078279
sba(innWeight
NNWeight
p1172
(dp1173
g3
F-0.0435746739532417
sba(innWeight
NNWeight
p1174
(dp1175
g3
F-0.017642185955819695
sba(innWeight
NNWeight
p1176
(dp1177
g3
F-0.05229861596416777
sba(innWeight
NNWeight
p1178
(dp1179
g3
F-0.042397345470142914
sba(innWeight
NNWeight
p1180
(dp1181
g3
F0.023716518517050738
sba(innWeight
NNWeight
p1182
(dp1183
g3
F0.03555575485372845
sba(innWeight
NNWeight
p1184
(dp1185
g3
F-0.010163214408594062
sba(innWeight
NNWeight
p1186
(dp1187
g3
F0.022901953679827884
sba(innWeight
NNWeight
p1188
(dp1189
g3
F-0.05207164231380875
sba(innWeight
NNWeight
p1190
(dp1191
g3
F0.04172238522436328
sba(innWeight
NNWeight
p1192
(dp1193
g3
F-0.026867406130371887
sba(innWeight
NNWeight
p1194
(dp1195
g3
F0.038308234937424634
sba(innWeight
NNWeight
p1196
(dp1197
g3
F-0.02659115892590766
sba(innWeight
NNWeight
p1198
(dp1199
g3
F-0.0786745628187937
sba(innWeight
NNWeight
p1200
(dp1201
g3
F0.04101762630303949
sba(innWeight
NNWeight
p1202
(dp1203
g3
F0.018348224421370646
sba(innWeight
NNWeight
p1204
(dp1205
g3
F0.050691523893077274
sba(innWeight
NNWeight
p1206
(dp1207
g3
F0.04568856028755164
sba(innWeight
NNWeight
p1208
(dp1209
g3
F-0.043029604839916524
sba(innWeight
NNWeight
p1210
(dp1211
g3
F-0.007786759182978738
sba(innWeight
NNWeight
p1212
(dp1213
g3
F0.03322155952350538
sba(innWeight
NNWeight
p1214
(dp1215
g3
F-0.008297731333601493
sba(innWeight
NNWeight
p1216
(dp1217
g3
F-0.03379629125183535
sba(innWeight
NNWeight
p1218
(dp1219
g3
F0.013788112555930739
sba(innWeight
NNWeight
p1220
(dp1221
g3
F-0.017170484202396294
sba(innWeight
NNWeight
p1222
(dp1223
g3
F-0.0641358178437466
sba(innWeight
NNWeight
p1224
(dp1225
g3
F0.03608435502635406
sba(innWeight
NNWeight
p1226
(dp1227
g3
F-0.05214553441654886
sba(innWeight
NNWeight
p1228
(dp1229
g3
F-0.012600525060928416
sba(innWeight
NNWeight
p1230
(dp1231
g3
F0.015457188120350731
sba(innWeight
NNWeight
p1232
(dp1233
g3
F0.0019876012909993144
sba(innWeight
NNWeight
p1234
(dp1235
g3
F-0.0035603560596827507
sba(innWeight
NNWeight
p1236
(dp1237
g3
F0.02607510038314416
sba(innWeight
NNWeight
p1238
(dp1239
g3
F0.04023083308961867
sba(innWeight
NNWeight
p1240
(dp1241
g3
F0.0016905584372243702
sba(innWeight
NNWeight
p1242
(dp1243
g3
F-0.0493181087002263
sba(innWeight
NNWeight
p1244
(dp1245
g3
F0.0030591056643060064
sba(innWeight
NNWeight
p1246
(dp1247
g3
F-0.018804087659720893
sba(innWeight
NNWeight
p1248
(dp1249
g3
F0.022971745846052157
sba(innWeight
NNWeight
p1250
(dp1251
g3
F-0.06032596738373279
sba(innWeight
NNWeight
p1252
(dp1253
g3
F-0.0066766238692327826
sba(innWeight
NNWeight
p1254
(dp1255
g3
F-0.07009327568699171
sba(innWeight
NNWeight
p1256
(dp1257
g3
F0.00614166925438257
sba(innWeight
NNWeight
p1258
(dp1259
g3
F-0.03825705346468406
sba(innWeight
NNWeight
p1260
(dp1261
g3
F0.01580064797580167
sba(innWeight
NNWeight
p1262
(dp1263
g3
F-0.008525967222097268
sba(innWeight
NNWeight
p1264
(dp1265
g3
F-0.009928488815483348
sba(innWeight
NNWeight
p1266
(dp1267
g3
F-0.0025576298740640903
sba(innWeight
NNWeight
p1268
(dp1269
g3
F-0.03886323518816666
sba(innWeight
NNWeight
p1270
(dp1271
g3
F-0.019331521306763123
sba(innWeight
NNWeight
p1272
(dp1273
g3
F0.025079567380947982
sba(innWeight
NNWeight
p1274
(dp1275
g3
F0.01993206112170914
sba(innWeight
NNWeight
p1276
(dp1277
g3
F-0.05350969261846754
sba(innWeight
NNWeight
p1278
(dp1279
g3
F0.05230444602727641
sba(innWeight
NNWeight
p1280
(dp1281
g3
F-0.07613368042975314
sba(innWeight
NNWeight
p1282
(dp1283
g3
F-0.0003370256907398706
sba(innWeight
NNWeight
p1284
(dp1285
g3
F-0.00829801100137161
sba(innWeight
NNWeight
p1286
(dp1287
g3
F0.05772518177316124
sba(innWeight
NNWeight
p1288
(dp1289
g3
F0.02088606670112074
sba(innWeight
NNWeight
p1290
(dp1291
g3
F-0.03045763340620666
sba(innWeight
NNWeight
p1292
(dp1293
g3
F0.030766088294580655
sba(innWeight
NNWeight
p1294
(dp1295
g3
F0.07117938265905137
sba(innWeight
NNWeight
p1296
(dp1297
g3
F-0.07156679428236178
sba(innWeight
NNWeight
p1298
(dp1299
g3
F-0.017860795194136365
sba(innWeight
NNWeight
p1300
(dp1301
g3
F-0.014574823580764467
sba(innWeight
NNWeight
p1302
(dp1303
g3
F0.03197791782918348
sba(innWeight
NNWeight
p1304
(dp1305
g3
F-0.0342094035372468
sba(innWeight
NNWeight
p1306
(dp1307
g3
F0.03492145963000465
sba(innWeight
NNWeight
p1308
(dp1309
g3
F-0.009300166370508095
sba(innWeight
NNWeight
p1310
(dp1311
g3
F0.025448859309795943
sba(innWeight
NNWeight
p1312
(dp1313
g3
F-0.03090714659244444
sba(innWeight
NNWeight
p1314
(dp1315
g3
F-0.01925651929566954
sba(innWeight
NNWeight
p1316
(dp1317
g3
F-0.00039539127120683047
sba(innWeight
NNWeight
p1318
(dp1319
g3
F-0.05568934078980508
sba(innWeight
NNWeight
p1320
(dp1321
g3
F-0.031272181251430727
sba(innWeight
NNWeight
p1322
(dp1323
g3
F-0.04059577182473502
sba(innWeight
NNWeight
p1324
(dp1325
g3
F0.019656456011416433
sba(innWeight
NNWeight
p1326
(dp1327
g3
F0.018167871976809788
sba(innWeight
NNWeight
p1328
(dp1329
g3
F-0.052388007087909416
sba(innWeight
NNWeight
p1330
(dp1331
g3
F-0.0015595027658184871
sba(innWeight
NNWeight
p1332
(dp1333
g3
F-0.027432597182165896
sba(innWeight
NNWeight
p1334
(dp1335
g3
F0.034942774456750016
sba(innWeight
NNWeight
p1336
(dp1337
g3
F-0.06762096735397227
sba(innWeight
NNWeight
p1338
(dp1339
g3
F-0.030820287739555835
sba(innWeight
NNWeight
p1340
(dp1341
g3
F-0.046488917684198265
sba(innWeight
NNWeight
p1342
(dp1343
g3
F-0.03048966308562649
sba(innWeight
NNWeight
p1344
(dp1345
g3
F0.03854622887136471
sba(innWeight
NNWeight
p1346
(dp1347
g3
F0.04249606812417423
sba(innWeight
NNWeight
p1348
(dp1349
g3
F0.023365384634748403
sba(innWeight
NNWeight
p1350
(dp1351
g3
F-0.06244231194307875
sba(innWeight
NNWeight
p1352
(dp1353
g3
F-0.009935521058820927
sba(innWeight
NNWeight
p1354
(dp1355
g3
F0.05436203685996786
sba(innWeight
NNWeight
p1356
(dp1357
g3
F-0.0013682656740883197
sba(innWeight
NNWeight
p1358
(dp1359
g3
F0.040071106232585293
sba(innWeight
NNWeight
p1360
(dp1361
g3
F-0.07137445026774437
sba(innWeight
NNWeight
p1362
(dp1363
g3
F0.025566444470926746
sba(innWeight
NNWeight
p1364
(dp1365
g3
F-0.04443401695206636
sba(innWeight
NNWeight
p1366
(dp1367
g3
F0.023276691545196824
sba(innWeight
NNWeight
p1368
(dp1369
g3
F0.015692702952490128
sba(innWeight
NNWeight
p1370
(dp1371
g3
F0.053020880043920034
sba(innWeight
NNWeight
p1372
(dp1373
g3
F-0.03855419897739004
sba(innWeight
NNWeight
p1374
(dp1375
g3
F-0.02591409611075287
sba(innWeight
NNWeight
p1376
(dp1377
g3
F-0.07734265187230321
sba(innWeight
NNWeight
p1378
(dp1379
g3
F-0.04860381085808616
sba(innWeight
NNWeight
p1380
(dp1381
g3
F-0.07395365242320133
sba(innWeight
NNWeight
p1382
(dp1383
g3
F-0.015866147073105547
sba(innWeight
NNWeight
p1384
(dp1385
g3
F0.02634388134638995
sba(innWeight
NNWeight
p1386
(dp1387
g3
F-0.03844088419977416
sba(innWeight
NNWeight
p1388
(dp1389
g3
F-0.012811423090076279
sba(innWeight
NNWeight
p1390
(dp1391
g3
F-0.08185942916149937
sba(innWeight
NNWeight
p1392
(dp1393
g3
F0.0839767488195625
sba(innWeight
NNWeight
p1394
(dp1395
g3
F0.016741791847382694
sba(innWeight
NNWeight
p1396
(dp1397
g3
F0.05454343366372453
sba(innWeight
NNWeight
p1398
(dp1399
g3
F-0.01909527990462346
sba(innWeight
NNWeight
p1400
(dp1401
g3
F-0.045792899892124025
sba(innWeight
NNWeight
p1402
(dp1403
g3
F-0.01050344750207863
sba(innWeight
NNWeight
p1404
(dp1405
g3
F-0.02655843073584671
sba(innWeight
NNWeight
p1406
(dp1407
g3
F-0.032608932778082314
sba(innWeight
NNWeight
p1408
(dp1409
g3
F-0.018417078049940517
sba(innWeight
NNWeight
p1410
(dp1411
g3
F0.012126666347674236
sba(innWeight
NNWeight
p1412
(dp1413
g3
F-0.02848747715663748
sba(innWeight
NNWeight
p1414
(dp1415
g3
F0.01536801966483263
sba(innWeight
NNWeight
p1416
(dp1417
g3
F0.025008789479068674
sba(innWeight
NNWeight
p1418
(dp1419
g3
F0.04246705677978349
sba(innWeight
NNWeight
p1420
(dp1421
g3
F0.025614004729129614
sba(innWeight
NNWeight
p1422
(dp1423
g3
F-0.03446488377711659
sba(innWeight
NNWeight
p1424
(dp1425
g3
F0.04218533462588932
sba(innWeight
NNWeight
p1426
(dp1427
g3
F0.061275724734055736
sba(innWeight
NNWeight
p1428
(dp1429
g3
F-0.0441463750642712
sba(innWeight
NNWeight
p1430
(dp1431
g3
F0.021813472546365995
sba(innWeight
NNWeight
p1432
(dp1433
g3
F0.06948387851117889
sba(innWeight
NNWeight
p1434
(dp1435
g3
F0.00040070968559940403
sba(innWeight
NNWeight
p1436
(dp1437
g3
F0.029318385580697166
sba(innWeight
NNWeight
p1438
(dp1439
g3
F0.03528853129363387
sba(innWeight
NNWeight
p1440
(dp1441
g3
F-0.04207782739973836
sba(innWeight
NNWeight
p1442
(dp1443
g3
F0.057447169502478454
sba(innWeight
NNWeight
p1444
(dp1445
g3
F-0.04370902452612791
sba(innWeight
NNWeight
p1446
(dp1447
g3
F0.02202702035925968
sba(innWeight
NNWeight
p1448
(dp1449
g3
F-0.033717094001331015
sba(innWeight
NNWeight
p1450
(dp1451
g3
F0.02158829217951197
sba(innWeight
NNWeight
p1452
(dp1453
g3
F-0.04275552337028851
sba(innWeight
NNWeight
p1454
(dp1455
g3
F0.052335926182479175
sba(innWeight
NNWeight
p1456
(dp1457
g3
F0.045437821734170034
sba(innWeight
NNWeight
p1458
(dp1459
g3
F0.034293540471882086
sba(innWeight
NNWeight
p1460
(dp1461
g3
F0.03251289490640044
sba(innWeight
NNWeight
p1462
(dp1463
g3
F0.00892078673794822
sba(innWeight
NNWeight
p1464
(dp1465
g3
F-0.05595730881932905
sba(innWeight
NNWeight
p1466
(dp1467
g3
F-0.01471604938937224
sba(innWeight
NNWeight
p1468
(dp1469
g3
F0.011655069229277327
sba(innWeight
NNWeight
p1470
(dp1471
g3
F0.016259718220587825
sba(innWeight
NNWeight
p1472
(dp1473
g3
F-0.011753790957998417
sba(innWeight
NNWeight
p1474
(dp1475
g3
F-0.027388627564509428
sba(innWeight
NNWeight
p1476
(dp1477
g3
F-0.046788060157455305
sba(innWeight
NNWeight
p1478
(dp1479
g3
F-0.021973718223748755
sba(innWeight
NNWeight
p1480
(dp1481
g3
F-0.04126998679020734
sba(innWeight
NNWeight
p1482
(dp1483
g3
F-0.015129864729216411
sba(innWeight
NNWeight
p1484
(dp1485
g3
F-0.08537049480245802
sba(innWeight
NNWeight
p1486
(dp1487
g3
F0.060092606200302594
sba(innWeight
NNWeight
p1488
(dp1489
g3
F0.025692163802365837
sba(innWeight
NNWeight
p1490
(dp1491
g3
F0.021447875860919022
sba(innWeight
NNWeight
p1492
(dp1493
g3
F-0.06993607123214164
sba(innWeight
NNWeight
p1494
(dp1495
g3
F0.03199389628975982
sba(innWeight
NNWeight
p1496
(dp1497
g3
F0.026743570704281395
sba(innWeight
NNWeight
p1498
(dp1499
g3
F-0.05370189590926074
sba(innWeight
NNWeight
p1500
(dp1501
g3
F-0.030975485909712164
sba(innWeight
NNWeight
p1502
(dp1503
g3
F0.04091704852642285
sba(innWeight
NNWeight
p1504
(dp1505
g3
F0.0220754266252399
sba(innWeight
NNWeight
p1506
(dp1507
g3
F-0.012898524178759616
sba(innWeight
NNWeight
p1508
(dp1509
g3
F-0.018019252267279406
sba(innWeight
NNWeight
p1510
(dp1511
g3
F-0.04898537801301141
sba(innWeight
NNWeight
p1512
(dp1513
g3
F-0.06230699772774114
sba(innWeight
NNWeight
p1514
(dp1515
g3
F0.009719831250602239
sba(innWeight
NNWeight
p1516
(dp1517
g3
F0.03647854065030157
sba(innWeight
NNWeight
p1518
(dp1519
g3
F0.07229938627204534
sba(innWeight
NNWeight
p1520
(dp1521
g3
F0.004251491701017016
sba(innWeight
NNWeight
p1522
(dp1523
g3
F-0.006530873571753207
sba(innWeight
NNWeight
p1524
(dp1525
g3
F0.02144922528542752
sba(innWeight
NNWeight
p1526
(dp1527
g3
F0.054035867910988286
sba(innWeight
NNWeight
p1528
(dp1529
g3
F-0.04202838038698472
sba(innWeight
NNWeight
p1530
(dp1531
g3
F-0.03983372913543728
sba(innWeight
NNWeight
p1532
(dp1533
g3
F-0.006763488799003572
sba(innWeight
NNWeight
p1534
(dp1535
g3
F0.04557027799316181
sba(innWeight
NNWeight
p1536
(dp1537
g3
F-0.01622673746190823
sba(innWeight
NNWeight
p1538
(dp1539
g3
F-0.012125492215874287
sba(innWeight
NNWeight
p1540
(dp1541
g3
F-0.06214907557828106
sba(innWeight
NNWeight
p1542
(dp1543
g3
F0.04297730011652636
sba(innWeight
NNWeight
p1544
(dp1545
g3
F0.027714922692599498
sba(innWeight
NNWeight
p1546
(dp1547
g3
F-0.06086864065981535
sba(innWeight
NNWeight
p1548
(dp1549
g3
F-0.0664391621990397
sba(innWeight
NNWeight
p1550
(dp1551
g3
F0.022453500981209896
sba(innWeight
NNWeight
p1552
(dp1553
g3
F-0.019902817356833205
sba(innWeight
NNWeight
p1554
(dp1555
g3
F-0.01709898331502395
sba(innWeight
NNWeight
p1556
(dp1557
g3
F-0.010970723081695279
sba(innWeight
NNWeight
p1558
(dp1559
g3
F-0.028274568893901866
sba(innWeight
NNWeight
p1560
(dp1561
g3
F0.08060739015388674
sba(innWeight
NNWeight
p1562
(dp1563
g3
F0.034750253676721514
sba(innWeight
NNWeight
p1564
(dp1565
g3
F-0.026553342926406525
sba(innWeight
NNWeight
p1566
(dp1567
g3
F-0.0605720380470534
sba(innWeight
NNWeight
p1568
(dp1569
g3
F-0.0054369495052983136
sba(innWeight
NNWeight
p1570
(dp1571
g3
F-0.06668879384605976
sba(innWeight
NNWeight
p1572
(dp1573
g3
F-0.013975397885259857
sba(innWeight
NNWeight
p1574
(dp1575
g3
F-0.042799054716596625
sba(innWeight
NNWeight
p1576
(dp1577
g3
F-0.019934494674791272
sba(innWeight
NNWeight
p1578
(dp1579
g3
F0.046394577579021795
sba(innWeight
NNWeight
p1580
(dp1581
g3
F0.029741320139397228
sba(innWeight
NNWeight
p1582
(dp1583
g3
F0.06712553465249799
sba(innWeight
NNWeight
p1584
(dp1585
g3
F0.06268156003676527
sba(innWeight
NNWeight
p1586
(dp1587
g3
F0.009986942233824436
sba(innWeight
NNWeight
p1588
(dp1589
g3
F0.04839100525376802
sba(innWeight
NNWeight
p1590
(dp1591
g3
F0.0030733643170038263
sba(innWeight
NNWeight
p1592
(dp1593
g3
F0.013858112193870259
sba(innWeight
NNWeight
p1594
(dp1595
g3
F-0.023891059216852705
sba(innWeight
NNWeight
p1596
(dp1597
g3
F0.03252913344419566
sba(innWeight
NNWeight
p1598
(dp1599
g3
F0.02016286911809115
sba(innWeight
NNWeight
p1600
(dp1601
g3
F-0.02090679030179225
sba(innWeight
NNWeight
p1602
(dp1603
g3
F-0.013178537798535707
sba(innWeight
NNWeight
p1604
(dp1605
g3
F-0.03048992498620827
sba(innWeight
NNWeight
p1606
(dp1607
g3
F0.014764138527558509
sba(innWeight
NNWeight
p1608
(dp1609
g3
F0.020632037965305956
sba(innWeight
NNWeight
p1610
(dp1611
g3
F-0.05305256638031916
sba(innWeight
NNWeight
p1612
(dp1613
g3
F0.014302623466180728
sba(innWeight
NNWeight
p1614
(dp1615
g3
F0.11467229479210127
sba(innWeight
NNWeight
p1616
(dp1617
g3
F-0.033605401000480546
sba(innWeight
NNWeight
p1618
(dp1619
g3
F-0.022968507671347053
sba(innWeight
NNWeight
p1620
(dp1621
g3
F-0.04511648033950646
sba(innWeight
NNWeight
p1622
(dp1623
g3
F-0.011593719906475503
sba(innWeight
NNWeight
p1624
(dp1625
g3
F-0.010526489340236533
sba(innWeight
NNWeight
p1626
(dp1627
g3
F-0.021764497476304035
sba(innWeight
NNWeight
p1628
(dp1629
g3
F0.012535325344165597
sba(innWeight
NNWeight
p1630
(dp1631
g3
F0.015490771726495918
sba(innWeight
NNWeight
p1632
(dp1633
g3
F0.03895620524486864
sba(innWeight
NNWeight
p1634
(dp1635
g3
F-0.011947536596023196
sba(innWeight
NNWeight
p1636
(dp1637
g3
F-0.012563719881698422
sba(innWeight
NNWeight
p1638
(dp1639
g3
F0.01748497375775515
sba(innWeight
NNWeight
p1640
(dp1641
g3
F-0.026153935235669036
sba(innWeight
NNWeight
p1642
(dp1643
g3
F0.010338931736897159
sba(innWeight
NNWeight
p1644
(dp1645
g3
F0.0056495035697198045
sba(innWeight
NNWeight
p1646
(dp1647
g3
F-0.05134332204674515
sba(innWeight
NNWeight
p1648
(dp1649
g3
F-0.03880679494249073
sba(innWeight
NNWeight
p1650
(dp1651
g3
F0.005209791800853874
sba(innWeight
NNWeight
p1652
(dp1653
g3
F0.0495431461788639
sba(innWeight
NNWeight
p1654
(dp1655
g3
F0.019786623941070166
sba(innWeight
NNWeight
p1656
(dp1657
g3
F0.007159214275569855
sba(innWeight
NNWeight
p1658
(dp1659
g3
F0.04843363857057737
sba(innWeight
NNWeight
p1660
(dp1661
g3
F-0.03485088125847701
sba(innWeight
NNWeight
p1662
(dp1663
g3
F0.04336197801070262
sba(innWeight
NNWeight
p1664
(dp1665
g3
F0.029108500245863186
sba(innWeight
NNWeight
p1666
(dp1667
g3
F-0.05173481555941502
sba(innWeight
NNWeight
p1668
(dp1669
g3
F0.04597577996545119
sba(innWeight
NNWeight
p1670
(dp1671
g3
F0.01989718026804201
sba(innWeight
NNWeight
p1672
(dp1673
g3
F-0.023365033315057637
sba(innWeight
NNWeight
p1674
(dp1675
g3
F-0.05276364259769614
sba(innWeight
NNWeight
p1676
(dp1677
g3
F0.025549074013969556
sba(innWeight
NNWeight
p1678
(dp1679
g3
F-0.03659400184419978
sba(innWeight
NNWeight
p1680
(dp1681
g3
F-0.07120742980971002
sba(innWeight
NNWeight
p1682
(dp1683
g3
F-0.040872533423693964
sba(innWeight
NNWeight
p1684
(dp1685
g3
F-0.014066355666751068
sba(innWeight
NNWeight
p1686
(dp1687
g3
F-0.020295088125609356
sba(innWeight
NNWeight
p1688
(dp1689
g3
F0.06132164266937514
sba(innWeight
NNWeight
p1690
(dp1691
g3
F-0.05529634826273055
sba(innWeight
NNWeight
p1692
(dp1693
g3
F-0.06634874196129231
sba(innWeight
NNWeight
p1694
(dp1695
g3
F0.012060583457471437
sba(innWeight
NNWeight
p1696
(dp1697
g3
F-0.010949657641389767
sba(innWeight
NNWeight
p1698
(dp1699
g3
F-0.011056923773822567
sba(innWeight
NNWeight
p1700
(dp1701
g3
F-0.010706650326762669
sba(innWeight
NNWeight
p1702
(dp1703
g3
F-0.0034685355788296518
sba(innWeight
NNWeight
p1704
(dp1705
g3
F-0.04577847594172088
sba(innWeight
NNWeight
p1706
(dp1707
g3
F-0.06004854069587538
sba(innWeight
NNWeight
p1708
(dp1709
g3
F0.02889247873337065
sba(innWeight
NNWeight
p1710
(dp1711
g3
F-0.006257094272525254
sba(innWeight
NNWeight
p1712
(dp1713
g3
F-0.010837132930334111
sba(innWeight
NNWeight
p1714
(dp1715
g3
F0.03057964565449612
sba(innWeight
NNWeight
p1716
(dp1717
g3
F-0.04145921878261909
sba(innWeight
NNWeight
p1718
(dp1719
g3
F-0.0501243393207046
sba(innWeight
NNWeight
p1720
(dp1721
g3
F-0.003974531896075862
sba(innWeight
NNWeight
p1722
(dp1723
g3
F0.007241562630296721
sba(innWeight
NNWeight
p1724
(dp1725
g3
F0.010859707843700972
sba(innWeight
NNWeight
p1726
(dp1727
g3
F-0.03322620992728637
sba(innWeight
NNWeight
p1728
(dp1729
g3
F0.007435471285084179
sba(innWeight
NNWeight
p1730
(dp1731
g3
F-0.011734378390386073
sba(innWeight
NNWeight
p1732
(dp1733
g3
F-0.04164747560882334
sba(innWeight
NNWeight
p1734
(dp1735
g3
F-0.03512350515601611
sba(innWeight
NNWeight
p1736
(dp1737
g3
F0.010052877849614674
sba(innWeight
NNWeight
p1738
(dp1739
g3
F-0.021955500754491868
sba(innWeight
NNWeight
p1740
(dp1741
g3
F-0.027182640406261865
sba(innWeight
NNWeight
p1742
(dp1743
g3
F0.060955008022467165
sba(innWeight
NNWeight
p1744
(dp1745
g3
F0.06262173865459554
sba(innWeight
NNWeight
p1746
(dp1747
g3
F-0.00230079505754064
sba(innWeight
NNWeight
p1748
(dp1749
g3
F-0.03494186034876609
sba(innWeight
NNWeight
p1750
(dp1751
g3
F-0.04359874572836964
sba(innWeight
NNWeight
p1752
(dp1753
g3
F0.04211560130673223
sba(innWeight
NNWeight
p1754
(dp1755
g3
F-0.049520491607553216
sba(innWeight
NNWeight
p1756
(dp1757
g3
F-0.03846231776383838
sba(innWeight
NNWeight
p1758
(dp1759
g3
F0.042273116175876126
sba(innWeight
NNWeight
p1760
(dp1761
g3
F0.041326985521785646
sba(innWeight
NNWeight
p1762
(dp1763
g3
F0.0076963445815382715
sba(innWeight
NNWeight
p1764
(dp1765
g3
F-0.03513805431400184
sba(innWeight
NNWeight
p1766
(dp1767
g3
F-0.0024387258068015167
sba(innWeight
NNWeight
p1768
(dp1769
g3
F0.03470806897239642
sba(innWeight
NNWeight
p1770
(dp1771
g3
F-0.07718252029827047
sba(innWeight
NNWeight
p1772
(dp1773
g3
F0.018386923718272722
sba(innWeight
NNWeight
p1774
(dp1775
g3
F0.05217416863693016
sba(innWeight
NNWeight
p1776
(dp1777
g3
F-0.0019782545659888903
sba(innWeight
NNWeight
p1778
(dp1779
g3
F-0.007452373198703039
sba(innWeight
NNWeight
p1780
(dp1781
g3
F0.03544857458482527
sba(innWeight
NNWeight
p1782
(dp1783
g3
F-0.020451947523594086
sba(innWeight
NNWeight
p1784
(dp1785
g3
F0.027135476990206214
sba(innWeight
NNWeight
p1786
(dp1787
g3
F0.012264522881506954
sba(innWeight
NNWeight
p1788
(dp1789
g3
F0.053648021248640036
sba(innWeight
NNWeight
p1790
(dp1791
g3
F0.02234792359278813
sba(innWeight
NNWeight
p1792
(dp1793
g3
F-0.050565652403031354
sba(innWeight
NNWeight
p1794
(dp1795
g3
F-0.004611268631175334
sba(innWeight
NNWeight
p1796
(dp1797
g3
F0.015944015584799128
sba(innWeight
NNWeight
p1798
(dp1799
g3
F0.04313111796660351
sba(innWeight
NNWeight
p1800
(dp1801
g3
F-0.014717487214857276
sba(innWeight
NNWeight
p1802
(dp1803
g3
F-0.023395058777884635
sba(innWeight
NNWeight
p1804
(dp1805
g3
F-0.07033608456413243
sba(innWeight
NNWeight
p1806
(dp1807
g3
F-0.010039609551112253
sba(innWeight
NNWeight
p1808
(dp1809
g3
F-0.00736193798107678
sba(innWeight
NNWeight
p1810
(dp1811
g3
F0.03315516018975912
sba(innWeight
NNWeight
p1812
(dp1813
g3
F0.055970489450167124
sba(innWeight
NNWeight
p1814
(dp1815
g3
F-0.0015196535710036777
sba(innWeight
NNWeight
p1816
(dp1817
g3
F0.007424204288390303
sba(innWeight
NNWeight
p1818
(dp1819
g3
F0.05791304124764912
sba(innWeight
NNWeight
p1820
(dp1821
g3
F-0.049880647837153194
sba(innWeight
NNWeight
p1822
(dp1823
g3
F-0.022722994696802983
sba(innWeight
NNWeight
p1824
(dp1825
g3
F-0.020156729729368852
sba(innWeight
NNWeight
p1826
(dp1827
g3
F-0.020331600099226015
sba(innWeight
NNWeight
p1828
(dp1829
g3
F-0.019354805985029627
sba(innWeight
NNWeight
p1830
(dp1831
g3
F0.0464237706428122
sba(innWeight
NNWeight
p1832
(dp1833
g3
F-0.011011956276313241
sba(innWeight
NNWeight
p1834
(dp1835
g3
F0.014074581447852702
sba(innWeight
NNWeight
p1836
(dp1837
g3
F-0.026957965354517565
sba(innWeight
NNWeight
p1838
(dp1839
g3
F0.033724937649585
sba(innWeight
NNWeight
p1840
(dp1841
g3
F-0.024929138551111653
sba(innWeight
NNWeight
p1842
(dp1843
g3
F0.0021007271019861883
sba(innWeight
NNWeight
p1844
(dp1845
g3
F-0.028123396040942196
sba(innWeight
NNWeight
p1846
(dp1847
g3
F-0.02621946054677947
sba(innWeight
NNWeight
p1848
(dp1849
g3
F-0.09027386716855688
sba(innWeight
NNWeight
p1850
(dp1851
g3
F-0.011128835013273218
sba(innWeight
NNWeight
p1852
(dp1853
g3
F-0.022411110329891206
sba(innWeight
NNWeight
p1854
(dp1855
g3
F0.060930080710077834
sba(innWeight
NNWeight
p1856
(dp1857
g3
F0.00495264081864529
sba(innWeight
NNWeight
p1858
(dp1859
g3
F-0.05078927842678972
sba(innWeight
NNWeight
p1860
(dp1861
g3
F-0.05766884325754211
sba(innWeight
NNWeight
p1862
(dp1863
g3
F-0.023222712849611457
sba(innWeight
NNWeight
p1864
(dp1865
g3
F0.06257441457994158
sba(innWeight
NNWeight
p1866
(dp1867
g3
F-0.00154040295701053
sba(innWeight
NNWeight
p1868
(dp1869
g3
F-0.006338970672029266
sba(innWeight
NNWeight
p1870
(dp1871
g3
F0.03158494173050857
sba(innWeight
NNWeight
p1872
(dp1873
g3
F-0.004052254030725213
sba(innWeight
NNWeight
p1874
(dp1875
g3
F-0.007522632819223428
sba(innWeight
NNWeight
p1876
(dp1877
g3
F-0.0378128325793799
sba(innWeight
NNWeight
p1878
(dp1879
g3
F-0.03991996707209973
sba(innWeight
NNWeight
p1880
(dp1881
g3
F-0.001258158106131887
sba(innWeight
NNWeight
p1882
(dp1883
g3
F0.029896549654068214
sba(innWeight
NNWeight
p1884
(dp1885
g3
F-0.01586635105819716
sba(innWeight
NNWeight
p1886
(dp1887
g3
F-0.00012985382950495618
sba(innWeight
NNWeight
p1888
(dp1889
g3
F-0.03571320158905094
sba(innWeight
NNWeight
p1890
(dp1891
g3
F0.026806772238402134
sba(innWeight
NNWeight
p1892
(dp1893
g3
F-0.022269513594051608
sba(innWeight
NNWeight
p1894
(dp1895
g3
F-0.061366590763564405
sba(innWeight
NNWeight
p1896
(dp1897
g3
F0.0006280747647974484
sba(innWeight
NNWeight
p1898
(dp1899
g3
F-0.016104586521193648
sba(innWeight
NNWeight
p1900
(dp1901
g3
F-0.0212757847246883
sba(innWeight
NNWeight
p1902
(dp1903
g3
F0.020272686802108097
sba(innWeight
NNWeight
p1904
(dp1905
g3
F-0.027094193919289192
sba(innWeight
NNWeight
p1906
(dp1907
g3
F-0.015698004002037472
sba(innWeight
NNWeight
p1908
(dp1909
g3
F-0.013944918320167334
sba(innWeight
NNWeight
p1910
(dp1911
g3
F0.051664686125309264
sba(innWeight
NNWeight
p1912
(dp1913
g3
F0.03012927716461846
sba(innWeight
NNWeight
p1914
(dp1915
g3
F0.029002204877612823
sba(innWeight
NNWeight
p1916
(dp1917
g3
F0.008052068255923028
sba(innWeight
NNWeight
p1918
(dp1919
g3
F0.0520622708413531
sba(innWeight
NNWeight
p1920
(dp1921
g3
F-0.07426552619016612
sba(innWeight
NNWeight
p1922
(dp1923
g3
F-0.030523058206841775
sba(innWeight
NNWeight
p1924
(dp1925
g3
F0.0283102840081067
sba(innWeight
NNWeight
p1926
(dp1927
g3
F-0.025062318139553758
sba(innWeight
NNWeight
p1928
(dp1929
g3
F-0.04143587313784358
sba(innWeight
NNWeight
p1930
(dp1931
g3
F-0.020486777316805465
sba(innWeight
NNWeight
p1932
(dp1933
g3
F-0.007689477235864957
sba(innWeight
NNWeight
p1934
(dp1935
g3
F0.0021793769373656432
sba(innWeight
NNWeight
p1936
(dp1937
g3
F0.02962568092824207
sba(innWeight
NNWeight
p1938
(dp1939
g3
F-0.012100367322723989
sba(innWeight
NNWeight
p1940
(dp1941
g3
F-0.019515279670788567
sba(innWeight
NNWeight
p1942
(dp1943
g3
F-0.010213219588353712
sba(innWeight
NNWeight
p1944
(dp1945
g3
F-0.05603260043057085
sba(innWeight
NNWeight
p1946
(dp1947
g3
F-0.00907966180649223
sba(innWeight
NNWeight
p1948
(dp1949
g3
F0.008720403479959764
sba(innWeight
NNWeight
p1950
(dp1951
g3
F0.023627360486480755
sba(innWeight
NNWeight
p1952
(dp1953
g3
F-0.08667701502264702
sba(innWeight
NNWeight
p1954
(dp1955
g3
F0.04787025614515662
sba(innWeight
NNWeight
p1956
(dp1957
g3
F-0.02225208559689998
sba(innWeight
NNWeight
p1958
(dp1959
g3
F-0.0010639886815205133
sba(innWeight
NNWeight
p1960
(dp1961
g3
F0.028892083567595598
sba(innWeight
NNWeight
p1962
(dp1963
g3
F0.007535508197792713
sba(innWeight
NNWeight
p1964
(dp1965
g3
F0.032894562055560274
sba(innWeight
NNWeight
p1966
(dp1967
g3
F0.009299821610741731
sba(innWeight
NNWeight
p1968
(dp1969
g3
F-0.016683323499372262
sba(innWeight
NNWeight
p1970
(dp1971
g3
F0.03855143756470979
sba(innWeight
NNWeight
p1972
(dp1973
g3
F-0.020388990583136563
sba(innWeight
NNWeight
p1974
(dp1975
g3
F0.022413364656618133
sba(innWeight
NNWeight
p1976
(dp1977
g3
F-0.029551135222770378
sba(innWeight
NNWeight
p1978
(dp1979
g3
F-0.052016345990984245
sba(innWeight
NNWeight
p1980
(dp1981
g3
F0.019495090611731835
sba(innWeight
NNWeight
p1982
(dp1983
g3
F-0.02949917859327924
sba(innWeight
NNWeight
p1984
(dp1985
g3
F-0.030052221293126347
sba(innWeight
NNWeight
p1986
(dp1987
g3
F0.004719065298392432
sba(innWeight
NNWeight
p1988
(dp1989
g3
F-0.038301631319197914
sba(innWeight
NNWeight
p1990
(dp1991
g3
F0.013973187126255572
sba(innWeight
NNWeight
p1992
(dp1993
g3
F-0.010425551084909583
sba(innWeight
NNWeight
p1994
(dp1995
g3
F-0.0336457871264034
sba(innWeight
NNWeight
p1996
(dp1997
g3
F0.007966561010650826
sba(innWeight
NNWeight
p1998
(dp1999
g3
F0.017903418290049676
sba(innWeight
NNWeight
p2000
(dp2001
g3
F0.042040133913845465
sba(innWeight
NNWeight
p2002
(dp2003
g3
F0.014043912997098635
sba(innWeight
NNWeight
p2004
(dp2005
g3
F0.030974627921680143
sba(innWeight
NNWeight
p2006
(dp2007
g3
F0.033828080804402465
sba(innWeight
NNWeight
p2008
(dp2009
g3
F-0.043806848001197995
sba(innWeight
NNWeight
p2010
(dp2011
g3
F-0.0051029516729822096
sba(innWeight
NNWeight
p2012
(dp2013
g3
F-0.038977367340906705
sba(innWeight
NNWeight
p2014
(dp2015
g3
F-0.03512112187641389
sba(innWeight
NNWeight
p2016
(dp2017
g3
F-0.025217085400051957
sba(innWeight
NNWeight
p2018
(dp2019
g3
F0.01466507853666407
sba(innWeight
NNWeight
p2020
(dp2021
g3
F-0.008387392662463007
sba.