(lp0
(innWeight
NNWeight
p1
(dp2
S'val'
p3
F-0.007735476218586309
sba(innWeight
NNWeight
p4
(dp5
g3
F0.025556670597512803
sba(innWeight
NNWeight
p6
(dp7
g3
F0.03594871881773926
sba(innWeight
NNWeight
p8
(dp9
g3
F0.018622970587792824
sba(innWeight
NNWeight
p10
(dp11
g3
F-0.043365691743114804
sba(innWeight
NNWeight
p12
(dp13
g3
F0.007624643672336666
sba(innWeight
NNWeight
p14
(dp15
g3
F0.043089714588169695
sba(innWeight
NNWeight
p16
(dp17
g3
F0.003101141729271792
sba(innWeight
NNWeight
p18
(dp19
g3
F0.01777066824632617
sba(innWeight
NNWeight
p20
(dp21
g3
F-0.0134043411979564
sba(innWeight
NNWeight
p22
(dp23
g3
F-0.03506555188469253
sba(innWeight
NNWeight
p24
(dp25
g3
F-0.02793758360844456
sba(innWeight
NNWeight
p26
(dp27
g3
F-0.0028403302285410635
sba(innWeight
NNWeight
p28
(dp29
g3
F-0.02982262217499266
sba(innWeight
NNWeight
p30
(dp31
g3
F0.029302685480716194
sba(innWeight
NNWeight
p32
(dp33
g3
F-0.02795971177867383
sba(innWeight
NNWeight
p34
(dp35
g3
F-0.031705013154803736
sba(innWeight
NNWeight
p36
(dp37
g3
F-0.03637380599550647
sba(innWeight
NNWeight
p38
(dp39
g3
F-0.007685064312673624
sba(innWeight
NNWeight
p40
(dp41
g3
F0.030043621957075054
sba(innWeight
NNWeight
p42
(dp43
g3
F-0.030423063349578505
sba(innWeight
NNWeight
p44
(dp45
g3
F-0.035530724637491726
sba(innWeight
NNWeight
p46
(dp47
g3
F-0.033898337842470844
sba(innWeight
NNWeight
p48
(dp49
g3
F-0.017031515163918796
sba(innWeight
NNWeight
p50
(dp51
g3
F0.020615192213377872
sba(innWeight
NNWeight
p52
(dp53
g3
F-0.025612213266894262
sba(innWeight
NNWeight
p54
(dp55
g3
F-0.030898893912985104
sba(innWeight
NNWeight
p56
(dp57
g3
F0.00422301990399038
sba(innWeight
NNWeight
p58
(dp59
g3
F0.013933374607941956
sba(innWeight
NNWeight
p60
(dp61
g3
F0.01880710519988805
sba(innWeight
NNWeight
p62
(dp63
g3
F0.031031721215324243
sba(innWeight
NNWeight
p64
(dp65
g3
F-0.021064312587558864
sba(innWeight
NNWeight
p66
(dp67
g3
F-0.034464121217571565
sba(innWeight
NNWeight
p68
(dp69
g3
F-0.014288213132607731
sba(innWeight
NNWeight
p70
(dp71
g3
F0.041685297619311404
sba(innWeight
NNWeight
p72
(dp73
g3
F-0.045961328819623934
sba(innWeight
NNWeight
p74
(dp75
g3
F0.00465466709453947
sba(innWeight
NNWeight
p76
(dp77
g3
F0.033593302284077656
sba(innWeight
NNWeight
p78
(dp79
g3
F-0.040401725537794086
sba(innWeight
NNWeight
p80
(dp81
g3
F-0.031283690838464925
sba(innWeight
NNWeight
p82
(dp83
g3
F0.014165909987686758
sba(innWeight
NNWeight
p84
(dp85
g3
F0.04286831512187007
sba(innWeight
NNWeight
p86
(dp87
g3
F0.02756845802657077
sba(innWeight
NNWeight
p88
(dp89
g3
F-0.012449603828347259
sba(innWeight
NNWeight
p90
(dp91
g3
F-0.030013874711674195
sba(innWeight
NNWeight
p92
(dp93
g3
F-0.026962986046238587
sba(innWeight
NNWeight
p94
(dp95
g3
F0.03564784132857591
sba(innWeight
NNWeight
p96
(dp97
g3
F-0.03525851104415547
sba(innWeight
NNWeight
p98
(dp99
g3
F-0.027053024512524004
sba(innWeight
NNWeight
p100
(dp101
g3
F0.001774732311951053
sba(innWeight
NNWeight
p102
(dp103
g3
F0.0058703296619729475
sba(innWeight
NNWeight
p104
(dp105
g3
F-0.007347575649756739
sba(innWeight
NNWeight
p106
(dp107
g3
F0.028996123120595633
sba(innWeight
NNWeight
p108
(dp109
g3
F-0.009502361582402193
sba(innWeight
NNWeight
p110
(dp111
g3
F0.038194866945006824
sba(innWeight
NNWeight
p112
(dp113
g3
F-0.004663369119464225
sba(innWeight
NNWeight
p114
(dp115
g3
F0.0023845901291188235
sba(innWeight
NNWeight
p116
(dp117
g3
F-0.0448088476006478
sba(innWeight
NNWeight
p118
(dp119
g3
F-0.03055580661514717
sba(innWeight
NNWeight
p120
(dp121
g3
F-0.043352542641805825
sba(innWeight
NNWeight
p122
(dp123
g3
F0.017503102656265562
sba(innWeight
NNWeight
p124
(dp125
g3
F-0.030005671396889803
sba(innWeight
NNWeight
p126
(dp127
g3
F-0.003039859240169409
sba(innWeight
NNWeight
p128
(dp129
g3
F0.045316816675838485
sba(innWeight
NNWeight
p130
(dp131
g3
F0.04353693724943343
sba(innWeight
NNWeight
p132
(dp133
g3
F-0.04169782494202697
sba(innWeight
NNWeight
p134
(dp135
g3
F0.03168339953747428
sba(innWeight
NNWeight
p136
(dp137
g3
F0.02076066743795966
sba(innWeight
NNWeight
p138
(dp139
g3
F-0.04358347498143614
sba(innWeight
NNWeight
p140
(dp141
g3
F0.02681047024200839
sba(innWeight
NNWeight
p142
(dp143
g3
F-0.016414248280345628
sba(innWeight
NNWeight
p144
(dp145
g3
F-0.03688786152956358
sba(innWeight
NNWeight
p146
(dp147
g3
F-0.015028164990627622
sba(innWeight
NNWeight
p148
(dp149
g3
F-0.01653341217318249
sba(innWeight
NNWeight
p150
(dp151
g3
F0.015843144669031386
sba(innWeight
NNWeight
p152
(dp153
g3
F0.014257595591294251
sba(innWeight
NNWeight
p154
(dp155
g3
F-0.0032605008350593653
sba(innWeight
NNWeight
p156
(dp157
g3
F-0.005574833178476103
sba(innWeight
NNWeight
p158
(dp159
g3
F0.022577376374027517
sba(innWeight
NNWeight
p160
(dp161
g3
F-0.041240890141690065
sba(innWeight
NNWeight
p162
(dp163
g3
F-0.02494263362519699
sba(innWeight
NNWeight
p164
(dp165
g3
F-0.03944390866861325
sba(innWeight
NNWeight
p166
(dp167
g3
F0.03881025129724154
sba(innWeight
NNWeight
p168
(dp169
g3
F-0.03484177744258202
sba(innWeight
NNWeight
p170
(dp171
g3
F0.0037596398171842243
sba(innWeight
NNWeight
p172
(dp173
g3
F-0.05046257719260023
sba(innWeight
NNWeight
p174
(dp175
g3
F0.023678677060320275
sba(innWeight
NNWeight
p176
(dp177
g3
F0.04231428626378455
sba(innWeight
NNWeight
p178
(dp179
g3
F-0.0045439130208009375
sba(innWeight
NNWeight
p180
(dp181
g3
F-0.0200283544369992
sba(innWeight
NNWeight
p182
(dp183
g3
F0.05021524310909714
sba(innWeight
NNWeight
p184
(dp185
g3
F-0.012515650765372146
sba(innWeight
NNWeight
p186
(dp187
g3
F0.0471393756306502
sba(innWeight
NNWeight
p188
(dp189
g3
F0.014644119085505204
sba(innWeight
NNWeight
p190
(dp191
g3
F0.02478302462520573
sba(innWeight
NNWeight
p192
(dp193
g3
F-0.03808081382642054
sba(innWeight
NNWeight
p194
(dp195
g3
F-0.049026334471921826
sba(innWeight
NNWeight
p196
(dp197
g3
F-0.04384536681402985
sba(innWeight
NNWeight
p198
(dp199
g3
F-0.011922136360958948
sba(innWeight
NNWeight
p200
(dp201
g3
F0.04621467257122882
sba(innWeight
NNWeight
p202
(dp203
g3
F0.012907866671894997
sba(innWeight
NNWeight
p204
(dp205
g3
F0.011502077628040085
sba(innWeight
NNWeight
p206
(dp207
g3
F-0.038966012319461785
sba(innWeight
NNWeight
p208
(dp209
g3
F-0.016818828906282824
sba(innWeight
NNWeight
p210
(dp211
g3
F-0.045738062457923494
sba(innWeight
NNWeight
p212
(dp213
g3
F-0.001813445850858034
sba(innWeight
NNWeight
p214
(dp215
g3
F-0.04134307424726862
sba(innWeight
NNWeight
p216
(dp217
g3
F-0.05436834821836373
sba(innWeight
NNWeight
p218
(dp219
g3
F0.005268198520818135
sba(innWeight
NNWeight
p220
(dp221
g3
F0.03132337126495888
sba(innWeight
NNWeight
p222
(dp223
g3
F0.04490460932701643
sba(innWeight
NNWeight
p224
(dp225
g3
F0.003919280207383779
sba(innWeight
NNWeight
p226
(dp227
g3
F-0.025099020743795983
sba(innWeight
NNWeight
p228
(dp229
g3
F-0.029565505849292194
sba(innWeight
NNWeight
p230
(dp231
g3
F-0.03858063578481812
sba(innWeight
NNWeight
p232
(dp233
g3
F0.035070649747802884
sba(innWeight
NNWeight
p234
(dp235
g3
F-0.03979538077863875
sba(innWeight
NNWeight
p236
(dp237
g3
F-0.008815620147904345
sba(innWeight
NNWeight
p238
(dp239
g3
F-0.008036183983925457
sba(innWeight
NNWeight
p240
(dp241
g3
F-0.03108089948657086
sba(innWeight
NNWeight
p242
(dp243
g3
F0.04832909743215298
sba(innWeight
NNWeight
p244
(dp245
g3
F-0.02316024868148457
sba(innWeight
NNWeight
p246
(dp247
g3
F-0.03480680260755883
sba(innWeight
NNWeight
p248
(dp249
g3
F0.0316123707344234
sba(innWeight
NNWeight
p250
(dp251
g3
F-0.006005255963948957
sba(innWeight
NNWeight
p252
(dp253
g3
F-0.02779595496089617
sba(innWeight
NNWeight
p254
(dp255
g3
F0.01209894265155291
sba(innWeight
NNWeight
p256
(dp257
g3
F0.04489598075924395
sba(innWeight
NNWeight
p258
(dp259
g3
F-0.0071075526620215
sba(innWeight
NNWeight
p260
(dp261
g3
F-0.04962743713829074
sba(innWeight
NNWeight
p262
(dp263
g3
F0.038740851301749396
sba(innWeight
NNWeight
p264
(dp265
g3
F0.045755214098196786
sba(innWeight
NNWeight
p266
(dp267
g3
F-0.03595617931586231
sba(innWeight
NNWeight
p268
(dp269
g3
F0.04816486891777451
sba(innWeight
NNWeight
p270
(dp271
g3
F-0.048556749918446065
sba(innWeight
NNWeight
p272
(dp273
g3
F0.009800290976279527
sba(innWeight
NNWeight
p274
(dp275
g3
F-0.03839630820044301
sba(innWeight
NNWeight
p276
(dp277
g3
F0.019974953044393173
sba(innWeight
NNWeight
p278
(dp279
g3
F-0.01348622232313243
sba(innWeight
NNWeight
p280
(dp281
g3
F-0.038342519021341705
sba(innWeight
NNWeight
p282
(dp283
g3
F0.001579699660180931
sba(innWeight
NNWeight
p284
(dp285
g3
F-0.03534138585251866
sba(innWeight
NNWeight
p286
(dp287
g3
F-0.0037530672460082517
sba(innWeight
NNWeight
p288
(dp289
g3
F-0.018854164762212192
sba(innWeight
NNWeight
p290
(dp291
g3
F0.034068344017084584
sba(innWeight
NNWeight
p292
(dp293
g3
F0.0030510910863319985
sba(innWeight
NNWeight
p294
(dp295
g3
F0.030720661387425255
sba(innWeight
NNWeight
p296
(dp297
g3
F-0.012945516194935412
sba(innWeight
NNWeight
p298
(dp299
g3
F0.015187764501957517
sba(innWeight
NNWeight
p300
(dp301
g3
F-0.020082462693043836
sba(innWeight
NNWeight
p302
(dp303
g3
F-0.028270856954968615
sba(innWeight
NNWeight
p304
(dp305
g3
F0.033579066671165725
sba(innWeight
NNWeight
p306
(dp307
g3
F0.012845957731185806
sba(innWeight
NNWeight
p308
(dp309
g3
F0.0032699355871638382
sba(innWeight
NNWeight
p310
(dp311
g3
F-0.05122984126843221
sba(innWeight
NNWeight
p312
(dp313
g3
F0.02193087649930536
sba(innWeight
NNWeight
p314
(dp315
g3
F0.017478206461728676
sba(innWeight
NNWeight
p316
(dp317
g3
F0.034582509445206515
sba(innWeight
NNWeight
p318
(dp319
g3
F-0.013819413952958938
sba(innWeight
NNWeight
p320
(dp321
g3
F0.009238412984049267
sba(innWeight
NNWeight
p322
(dp323
g3
F-0.0009029733036333978
sba(innWeight
NNWeight
p324
(dp325
g3
F-0.03750067310188696
sba(innWeight
NNWeight
p326
(dp327
g3
F0.012863962281870228
sba(innWeight
NNWeight
p328
(dp329
g3
F-0.01063768053971514
sba(innWeight
NNWeight
p330
(dp331
g3
F0.042854193526422314
sba(innWeight
NNWeight
p332
(dp333
g3
F0.005132709145404385
sba(innWeight
NNWeight
p334
(dp335
g3
F0.017433084652139014
sba(innWeight
NNWeight
p336
(dp337
g3
F-0.0015479741804550026
sba(innWeight
NNWeight
p338
(dp339
g3
F0.03664833701540322
sba(innWeight
NNWeight
p340
(dp341
g3
F-0.027084065372189617
sba(innWeight
NNWeight
p342
(dp343
g3
F-0.006332205786824696
sba(innWeight
NNWeight
p344
(dp345
g3
F0.011107229269456627
sba(innWeight
NNWeight
p346
(dp347
g3
F0.016957607674916796
sba(innWeight
NNWeight
p348
(dp349
g3
F0.03676704441065611
sba(innWeight
NNWeight
p350
(dp351
g3
F0.046589409451078756
sba(innWeight
NNWeight
p352
(dp353
g3
F0.050177662859784394
sba(innWeight
NNWeight
p354
(dp355
g3
F-0.021178012274740893
sba(innWeight
NNWeight
p356
(dp357
g3
F-0.017278371272333566
sba(innWeight
NNWeight
p358
(dp359
g3
F0.036992589215436286
sba(innWeight
NNWeight
p360
(dp361
g3
F0.0015982787206865153
sba(innWeight
NNWeight
p362
(dp363
g3
F-0.015441126932562948
sba(innWeight
NNWeight
p364
(dp365
g3
F-0.01055501109746063
sba(innWeight
NNWeight
p366
(dp367
g3
F0.0044645369071000625
sba(innWeight
NNWeight
p368
(dp369
g3
F-0.02664190353231332
sba(innWeight
NNWeight
p370
(dp371
g3
F-0.027179372537036454
sba(innWeight
NNWeight
p372
(dp373
g3
F0.005083763695531933
sba(innWeight
NNWeight
p374
(dp375
g3
F-0.01379584938295931
sba(innWeight
NNWeight
p376
(dp377
g3
F0.01835633908464525
sba(innWeight
NNWeight
p378
(dp379
g3
F-0.029905491649260978
sba(innWeight
NNWeight
p380
(dp381
g3
F0.023965215886832
sba(innWeight
NNWeight
p382
(dp383
g3
F0.04288620173608354
sba(innWeight
NNWeight
p384
(dp385
g3
F-0.01793756667328195
sba(innWeight
NNWeight
p386
(dp387
g3
F0.03337752093929884
sba(innWeight
NNWeight
p388
(dp389
g3
F0.0023107610994128613
sba(innWeight
NNWeight
p390
(dp391
g3
F-0.022031812612695725
sba(innWeight
NNWeight
p392
(dp393
g3
F0.042993485628305336
sba(innWeight
NNWeight
p394
(dp395
g3
F-0.015817946821464358
sba(innWeight
NNWeight
p396
(dp397
g3
F-0.02228794950872549
sba(innWeight
NNWeight
p398
(dp399
g3
F-0.028199031243610437
sba(innWeight
NNWeight
p400
(dp401
g3
F0.017779251768837136
sba(innWeight
NNWeight
p402
(dp403
g3
F0.01702613894536587
sba(innWeight
NNWeight
p404
(dp405
g3
F-0.0035527076116255453
sba(innWeight
NNWeight
p406
(dp407
g3
F0.0220603317134357
sba(innWeight
NNWeight
p408
(dp409
g3
F-0.01530364506826724
sba(innWeight
NNWeight
p410
(dp411
g3
F0.04643554134371685
sba(innWeight
NNWeight
p412
(dp413
g3
F-0.006638608627605794
sba(innWeight
NNWeight
p414
(dp415
g3
F-0.005252612510846197
sba(innWeight
NNWeight
p416
(dp417
g3
F0.047503771590000014
sba(innWeight
NNWeight
p418
(dp419
g3
F0.00715801610822903
sba(innWeight
NNWeight
p420
(dp421
g3
F0.022065251309910175
sba(innWeight
NNWeight
p422
(dp423
g3
F-0.03966931078262611
sba(innWeight
NNWeight
p424
(dp425
g3
F-0.033157348121910304
sba(innWeight
NNWeight
p426
(dp427
g3
F-0.003796989055343223
sba(innWeight
NNWeight
p428
(dp429
g3
F-0.014441991612458672
sba(innWeight
NNWeight
p430
(dp431
g3
F-0.04899702520142902
sba(innWeight
NNWeight
p432
(dp433
g3
F0.002597340749433194
sba(innWeight
NNWeight
p434
(dp435
g3
F-0.013559291036041242
sba(innWeight
NNWeight
p436
(dp437
g3
F0.004255862083478807
sba(innWeight
NNWeight
p438
(dp439
g3
F0.008814168238194212
sba(innWeight
NNWeight
p440
(dp441
g3
F-0.015407068864084997
sba(innWeight
NNWeight
p442
(dp443
g3
F-0.03173608912776892
sba(innWeight
NNWeight
p444
(dp445
g3
F0.008494523350365882
sba(innWeight
NNWeight
p446
(dp447
g3
F0.03911564362680723
sba(innWeight
NNWeight
p448
(dp449
g3
F-0.03068565966931103
sba(innWeight
NNWeight
p450
(dp451
g3
F-0.04750686108110127
sba(innWeight
NNWeight
p452
(dp453
g3
F-0.02403658776095526
sba(innWeight
NNWeight
p454
(dp455
g3
F0.010808464156386808
sba(innWeight
NNWeight
p456
(dp457
g3
F0.04251191683319632
sba(innWeight
NNWeight
p458
(dp459
g3
F0.023337500042721258
sba(innWeight
NNWeight
p460
(dp461
g3
F0.006766333943613626
sba(innWeight
NNWeight
p462
(dp463
g3
F-0.0438380794790613
sba(innWeight
NNWeight
p464
(dp465
g3
F0.006853919961872934
sba(innWeight
NNWeight
p466
(dp467
g3
F-0.04518888695399677
sba(innWeight
NNWeight
p468
(dp469
g3
F-0.0002769795837510125
sba(innWeight
NNWeight
p470
(dp471
g3
F0.019583485452795733
sba(innWeight
NNWeight
p472
(dp473
g3
F0.004609992877236989
sba(innWeight
NNWeight
p474
(dp475
g3
F-0.039190526970162794
sba(innWeight
NNWeight
p476
(dp477
g3
F-0.03621864632651695
sba(innWeight
NNWeight
p478
(dp479
g3
F-0.02723573780085186
sba(innWeight
NNWeight
p480
(dp481
g3
F0.0316677310663989
sba(innWeight
NNWeight
p482
(dp483
g3
F-0.015371076931973857
sba(innWeight
NNWeight
p484
(dp485
g3
F-0.038975026651717176
sba(innWeight
NNWeight
p486
(dp487
g3
F0.019289241764283597
sba(innWeight
NNWeight
p488
(dp489
g3
F0.016123147393864723
sba(innWeight
NNWeight
p490
(dp491
g3
F0.03201573069849733
sba(innWeight
NNWeight
p492
(dp493
g3
F-0.007433881019890611
sba(innWeight
NNWeight
p494
(dp495
g3
F-0.03441371602827104
sba(innWeight
NNWeight
p496
(dp497
g3
F0.02006842284084041
sba(innWeight
NNWeight
p498
(dp499
g3
F0.028555077572561437
sba(innWeight
NNWeight
p500
(dp501
g3
F-0.003722231584821112
sba(innWeight
NNWeight
p502
(dp503
g3
F-0.025549832349794473
sba(innWeight
NNWeight
p504
(dp505
g3
F-0.030620688885039053
sba(innWeight
NNWeight
p506
(dp507
g3
F-0.012973686055456523
sba(innWeight
NNWeight
p508
(dp509
g3
F-0.057755092794534425
sba(innWeight
NNWeight
p510
(dp511
g3
F-0.04166709482627181
sba(innWeight
NNWeight
p512
(dp513
g3
F-0.0014277758694135646
sba(innWeight
NNWeight
p514
(dp515
g3
F0.007584401908973507
sba(innWeight
NNWeight
p516
(dp517
g3
F0.02908703255562087
sba(innWeight
NNWeight
p518
(dp519
g3
F0.037765342165149804
sba(innWeight
NNWeight
p520
(dp521
g3
F-0.05206241640756094
sba(innWeight
NNWeight
p522
(dp523
g3
F-0.0449992032348206
sba(innWeight
NNWeight
p524
(dp525
g3
F-0.041342451861075505
sba(innWeight
NNWeight
p526
(dp527
g3
F-0.011620444162294349
sba(innWeight
NNWeight
p528
(dp529
g3
F0.02144663978645704
sba(innWeight
NNWeight
p530
(dp531
g3
F0.019537316527391442
sba(innWeight
NNWeight
p532
(dp533
g3
F-0.009170986456453725
sba(innWeight
NNWeight
p534
(dp535
g3
F-0.022538405175606496
sba(innWeight
NNWeight
p536
(dp537
g3
F-0.03368741536423268
sba(innWeight
NNWeight
p538
(dp539
g3
F0.023343874067236692
sba(innWeight
NNWeight
p540
(dp541
g3
F0.0157202952699485
sba(innWeight
NNWeight
p542
(dp543
g3
F0.011550461864587181
sba(innWeight
NNWeight
p544
(dp545
g3
F0.040771531077269586
sba(innWeight
NNWeight
p546
(dp547
g3
F0.042658120144406224
sba(innWeight
NNWeight
p548
(dp549
g3
F-0.03473626475088106
sba(innWeight
NNWeight
p550
(dp551
g3
F0.035044416925559284
sba(innWeight
NNWeight
p552
(dp553
g3
F0.045052366513980466
sba(innWeight
NNWeight
p554
(dp555
g3
F-0.004526495963850967
sba(innWeight
NNWeight
p556
(dp557
g3
F0.0022296342460444464
sba(innWeight
NNWeight
p558
(dp559
g3
F-0.003662143550622281
sba(innWeight
NNWeight
p560
(dp561
g3
F0.008626936955656937
sba(innWeight
NNWeight
p562
(dp563
g3
F0.009088702305768125
sba(innWeight
NNWeight
p564
(dp565
g3
F-0.013588847567629018
sba(innWeight
NNWeight
p566
(dp567
g3
F0.01238804416362367
sba(innWeight
NNWeight
p568
(dp569
g3
F0.0452884282107596
sba(innWeight
NNWeight
p570
(dp571
g3
F0.03362178014088019
sba(innWeight
NNWeight
p572
(dp573
g3
F-0.01978916068954235
sba(innWeight
NNWeight
p574
(dp575
g3
F-0.012691482102655098
sba(innWeight
NNWeight
p576
(dp577
g3
F0.029801218875522083
sba(innWeight
NNWeight
p578
(dp579
g3
F0.05202867573500787
sba(innWeight
NNWeight
p580
(dp581
g3
F0.014846549143056923
sba(innWeight
NNWeight
p582
(dp583
g3
F0.04508237264129935
sba(innWeight
NNWeight
p584
(dp585
g3
F0.035233582454005735
sba(innWeight
NNWeight
p586
(dp587
g3
F0.011528130829071835
sba(innWeight
NNWeight
p588
(dp589
g3
F0.022952384644782043
sba(innWeight
NNWeight
p590
(dp591
g3
F-0.012220457350086335
sba(innWeight
NNWeight
p592
(dp593
g3
F0.01487414293490787
sba(innWeight
NNWeight
p594
(dp595
g3
F0.0034766088399226795
sba(innWeight
NNWeight
p596
(dp597
g3
F0.0209575961004057
sba(innWeight
NNWeight
p598
(dp599
g3
F-0.036445796133028015
sba(innWeight
NNWeight
p600
(dp601
g3
F0.025682038611476648
sba(innWeight
NNWeight
p602
(dp603
g3
F-0.0019803174108201263
sba(innWeight
NNWeight
p604
(dp605
g3
F0.013203892819762841
sba(innWeight
NNWeight
p606
(dp607
g3
F-0.024377536982389213
sba(innWeight
NNWeight
p608
(dp609
g3
F0.03749666303564759
sba(innWeight
NNWeight
p610
(dp611
g3
F-0.048146897386241685
sba(innWeight
NNWeight
p612
(dp613
g3
F-0.047918810676210066
sba(innWeight
NNWeight
p614
(dp615
g3
F0.01717171850764657
sba(innWeight
NNWeight
p616
(dp617
g3
F0.02546106353305961
sba(innWeight
NNWeight
p618
(dp619
g3
F0.0029901928761184074
sba(innWeight
NNWeight
p620
(dp621
g3
F0.03854831293111949
sba(innWeight
NNWeight
p622
(dp623
g3
F-0.03084266382249294
sba(innWeight
NNWeight
p624
(dp625
g3
F-0.04172426296363849
sba(innWeight
NNWeight
p626
(dp627
g3
F-0.02115803058979028
sba(innWeight
NNWeight
p628
(dp629
g3
F0.026311338914359297
sba(innWeight
NNWeight
p630
(dp631
g3
F-0.04016309228358686
sba(innWeight
NNWeight
p632
(dp633
g3
F-0.0016779868370210952
sba(innWeight
NNWeight
p634
(dp635
g3
F-0.018091088405613805
sba(innWeight
NNWeight
p636
(dp637
g3
F-0.04042169641975639
sba(innWeight
NNWeight
p638
(dp639
g3
F0.04556664969984843
sba(innWeight
NNWeight
p640
(dp641
g3
F0.029246575914106
sba(innWeight
NNWeight
p642
(dp643
g3
F-0.020602722492391142
sba(innWeight
NNWeight
p644
(dp645
g3
F0.024218011140061512
sba(innWeight
NNWeight
p646
(dp647
g3
F-0.033631972889085156
sba(innWeight
NNWeight
p648
(dp649
g3
F0.015166275975044552
sba(innWeight
NNWeight
p650
(dp651
g3
F-0.03404610574042192
sba(innWeight
NNWeight
p652
(dp653
g3
F0.010376373428732067
sba(innWeight
NNWeight
p654
(dp655
g3
F0.030200934514875207
sba(innWeight
NNWeight
p656
(dp657
g3
F-0.0345759561168634
sba(innWeight
NNWeight
p658
(dp659
g3
F0.025635030880426266
sba(innWeight
NNWeight
p660
(dp661
g3
F0.004697267483982186
sba(innWeight
NNWeight
p662
(dp663
g3
F0.018077979152114086
sba(innWeight
NNWeight
p664
(dp665
g3
F0.024367313915208737
sba(innWeight
NNWeight
p666
(dp667
g3
F-0.03246274617837895
sba(innWeight
NNWeight
p668
(dp669
g3
F-0.023191922630472102
sba(innWeight
NNWeight
p670
(dp671
g3
F0.0216635714275317
sba(innWeight
NNWeight
p672
(dp673
g3
F0.025285912706434988
sba(innWeight
NNWeight
p674
(dp675
g3
F0.0340009620446136
sba(innWeight
NNWeight
p676
(dp677
g3
F0.018034497899357214
sba(innWeight
NNWeight
p678
(dp679
g3
F0.021071928322643266
sba(innWeight
NNWeight
p680
(dp681
g3
F-0.03339674908789861
sba(innWeight
NNWeight
p682
(dp683
g3
F-0.043840318528291254
sba(innWeight
NNWeight
p684
(dp685
g3
F0.025475904164519857
sba(innWeight
NNWeight
p686
(dp687
g3
F0.03516789718613252
sba(innWeight
NNWeight
p688
(dp689
g3
F0.050605581698040865
sba(innWeight
NNWeight
p690
(dp691
g3
F-0.03833774518880569
sba(innWeight
NNWeight
p692
(dp693
g3
F0.008615945835433129
sba(innWeight
NNWeight
p694
(dp695
g3
F-0.04015104883960005
sba(innWeight
NNWeight
p696
(dp697
g3
F0.016158027400332425
sba(innWeight
NNWeight
p698
(dp699
g3
F-0.03599580503066874
sba(innWeight
NNWeight
p700
(dp701
g3
F-0.005241193285171647
sba(innWeight
NNWeight
p702
(dp703
g3
F-0.041480573066329456
sba(innWeight
NNWeight
p704
(dp705
g3
F0.0010524496237434484
sba(innWeight
NNWeight
p706
(dp707
g3
F0.029823826947851493
sba(innWeight
NNWeight
p708
(dp709
g3
F0.001622171004400502
sba(innWeight
NNWeight
p710
(dp711
g3
F-0.02113919648930585
sba(innWeight
NNWeight
p712
(dp713
g3
F-0.004457803041164278
sba(innWeight
NNWeight
p714
(dp715
g3
F0.004847289464218268
sba(innWeight
NNWeight
p716
(dp717
g3
F0.027874821307656287
sba(innWeight
NNWeight
p718
(dp719
g3
F-0.026226676492096958
sba(innWeight
NNWeight
p720
(dp721
g3
F0.041728577157366976
sba(innWeight
NNWeight
p722
(dp723
g3
F0.015225741375139195
sba(innWeight
NNWeight
p724
(dp725
g3
F0.028380149012729665
sba(innWeight
NNWeight
p726
(dp727
g3
F-0.00961270336978874
sba(innWeight
NNWeight
p728
(dp729
g3
F0.04103075201104751
sba(innWeight
NNWeight
p730
(dp731
g3
F-0.029100974274058323
sba(innWeight
NNWeight
p732
(dp733
g3
F0.014104772776980043
sba(innWeight
NNWeight
p734
(dp735
g3
F0.036566166057264
sba(innWeight
NNWeight
p736
(dp737
g3
F-0.016492676295323708
sba(innWeight
NNWeight
p738
(dp739
g3
F-0.014987063616527962
sba(innWeight
NNWeight
p740
(dp741
g3
F0.023712819445375427
sba(innWeight
NNWeight
p742
(dp743
g3
F0.0012228049712552753
sba(innWeight
NNWeight
p744
(dp745
g3
F-0.010504260878997598
sba(innWeight
NNWeight
p746
(dp747
g3
F-0.048145428812015154
sba(innWeight
NNWeight
p748
(dp749
g3
F-0.039509925561260616
sba(innWeight
NNWeight
p750
(dp751
g3
F-0.022911988812152607
sba(innWeight
NNWeight
p752
(dp753
g3
F0.008264884507223923
sba(innWeight
NNWeight
p754
(dp755
g3
F-0.01355074977727169
sba(innWeight
NNWeight
p756
(dp757
g3
F-0.014217536872499737
sba(innWeight
NNWeight
p758
(dp759
g3
F-0.011725083022676617
sba(innWeight
NNWeight
p760
(dp761
g3
F0.04393307942339163
sba(innWeight
NNWeight
p762
(dp763
g3
F0.0486405980962651
sba(innWeight
NNWeight
p764
(dp765
g3
F0.010917765318546288
sba(innWeight
NNWeight
p766
(dp767
g3
F-0.036453846428279084
sba(innWeight
NNWeight
p768
(dp769
g3
F-0.0020247349323367697
sba(innWeight
NNWeight
p770
(dp771
g3
F0.03816979895606438
sba(innWeight
NNWeight
p772
(dp773
g3
F-0.011077708228791111
sba(innWeight
NNWeight
p774
(dp775
g3
F-0.004541205572702353
sba(innWeight
NNWeight
p776
(dp777
g3
F-0.011319753320905125
sba(innWeight
NNWeight
p778
(dp779
g3
F-0.038299103605548133
sba(innWeight
NNWeight
p780
(dp781
g3
F-0.04380306516083411
sba(innWeight
NNWeight
p782
(dp783
g3
F0.0012565401303410322
sba(innWeight
NNWeight
p784
(dp785
g3
F-0.02800607093085271
sba(innWeight
NNWeight
p786
(dp787
g3
F-0.010791176028188142
sba(innWeight
NNWeight
p788
(dp789
g3
F-0.044526832904933845
sba(innWeight
NNWeight
p790
(dp791
g3
F0.002095543868810541
sba(innWeight
NNWeight
p792
(dp793
g3
F-0.03036551133982799
sba(innWeight
NNWeight
p794
(dp795
g3
F-0.028778961546659737
sba(innWeight
NNWeight
p796
(dp797
g3
F0.005930914853179224
sba(innWeight
NNWeight
p798
(dp799
g3
F0.037511511470651036
sba(innWeight
NNWeight
p800
(dp801
g3
F0.005959467993628451
sba(innWeight
NNWeight
p802
(dp803
g3
F-0.04161856105386885
sba(innWeight
NNWeight
p804
(dp805
g3
F-0.044134354024242005
sba(innWeight
NNWeight
p806
(dp807
g3
F0.02003571695477979
sba(innWeight
NNWeight
p808
(dp809
g3
F-0.017994819203939486
sba(innWeight
NNWeight
p810
(dp811
g3
F-0.048128344553930134
sba(innWeight
NNWeight
p812
(dp813
g3
F-0.01576615629412396
sba(innWeight
NNWeight
p814
(dp815
g3
F-0.029143874640441634
sba(innWeight
NNWeight
p816
(dp817
g3
F-0.01215958822561391
sba(innWeight
NNWeight
p818
(dp819
g3
F-0.023905955509348216
sba(innWeight
NNWeight
p820
(dp821
g3
F-0.05057375494915745
sba(innWeight
NNWeight
p822
(dp823
g3
F-0.035240067004709795
sba(innWeight
NNWeight
p824
(dp825
g3
F-0.011282745606485196
sba(innWeight
NNWeight
p826
(dp827
g3
F-0.046913064594805036
sba(innWeight
NNWeight
p828
(dp829
g3
F0.015394067582987352
sba(innWeight
NNWeight
p830
(dp831
g3
F0.032720989906298154
sba(innWeight
NNWeight
p832
(dp833
g3
F0.04053548724864502
sba(innWeight
NNWeight
p834
(dp835
g3
F-0.026876118065676524
sba(innWeight
NNWeight
p836
(dp837
g3
F-0.006254196400686491
sba(innWeight
NNWeight
p838
(dp839
g3
F-0.018518213004340277
sba(innWeight
NNWeight
p840
(dp841
g3
F0.03484256748311386
sba(innWeight
NNWeight
p842
(dp843
g3
F0.022522137894977416
sba(innWeight
NNWeight
p844
(dp845
g3
F-0.0015298187529247935
sba(innWeight
NNWeight
p846
(dp847
g3
F0.011638798866103328
sba(innWeight
NNWeight
p848
(dp849
g3
F0.03484991938726119
sba(innWeight
NNWeight
p850
(dp851
g3
F0.006022463259681101
sba(innWeight
NNWeight
p852
(dp853
g3
F0.04952726183905344
sba(innWeight
NNWeight
p854
(dp855
g3
F-0.0337774080736846
sba(innWeight
NNWeight
p856
(dp857
g3
F0.04780791368443822
sba(innWeight
NNWeight
p858
(dp859
g3
F-0.028310258166902063
sba(innWeight
NNWeight
p860
(dp861
g3
F0.023363211146760737
sba(innWeight
NNWeight
p862
(dp863
g3
F0.0472907946714235
sba(innWeight
NNWeight
p864
(dp865
g3
F0.030359058661075224
sba(innWeight
NNWeight
p866
(dp867
g3
F0.0333594658309736
sba(innWeight
NNWeight
p868
(dp869
g3
F-0.05049534252681307
sba(innWeight
NNWeight
p870
(dp871
g3
F0.05137846020948441
sba(innWeight
NNWeight
p872
(dp873
g3
F-0.021586111948461262
sba(innWeight
NNWeight
p874
(dp875
g3
F-0.011461794643032562
sba(innWeight
NNWeight
p876
(dp877
g3
F-0.019894645564231424
sba(innWeight
NNWeight
p878
(dp879
g3
F0.028341691323329463
sba(innWeight
NNWeight
p880
(dp881
g3
F-0.043759270711040694
sba(innWeight
NNWeight
p882
(dp883
g3
F0.001361953295574007
sba(innWeight
NNWeight
p884
(dp885
g3
F0.025599171432666365
sba(innWeight
NNWeight
p886
(dp887
g3
F-0.042166459732285944
sba(innWeight
NNWeight
p888
(dp889
g3
F-0.05181173158361402
sba(innWeight
NNWeight
p890
(dp891
g3
F0.03794129549759201
sba(innWeight
NNWeight
p892
(dp893
g3
F-0.005905111584223027
sba(innWeight
NNWeight
p894
(dp895
g3
F-0.009059867595199514
sba(innWeight
NNWeight
p896
(dp897
g3
F0.0404470209008196
sba(innWeight
NNWeight
p898
(dp899
g3
F-0.03418507074377223
sba(innWeight
NNWeight
p900
(dp901
g3
F0.011474776716786948
sba(innWeight
NNWeight
p902
(dp903
g3
F0.03487393541688592
sba(innWeight
NNWeight
p904
(dp905
g3
F0.012371511914347866
sba(innWeight
NNWeight
p906
(dp907
g3
F0.007829479332285758
sba(innWeight
NNWeight
p908
(dp909
g3
F-0.03714999954182647
sba(innWeight
NNWeight
p910
(dp911
g3
F0.021631857485546406
sba(innWeight
NNWeight
p912
(dp913
g3
F-0.046109472906386055
sba(innWeight
NNWeight
p914
(dp915
g3
F-0.03323628147550747
sba(innWeight
NNWeight
p916
(dp917
g3
F-0.04734735506783673
sba(innWeight
NNWeight
p918
(dp919
g3
F0.009931265775800908
sba(innWeight
NNWeight
p920
(dp921
g3
F0.009309366180801968
sba(innWeight
NNWeight
p922
(dp923
g3
F-0.018430788342275854
sba(innWeight
NNWeight
p924
(dp925
g3
F0.009581275531269142
sba(innWeight
NNWeight
p926
(dp927
g3
F0.01658831334423168
sba(innWeight
NNWeight
p928
(dp929
g3
F-0.033249235023636685
sba(innWeight
NNWeight
p930
(dp931
g3
F-0.013105222669293677
sba(innWeight
NNWeight
p932
(dp933
g3
F-0.03398367628272837
sba(innWeight
NNWeight
p934
(dp935
g3
F0.027258339375764874
sba(innWeight
NNWeight
p936
(dp937
g3
F-0.02467768817750598
sba(innWeight
NNWeight
p938
(dp939
g3
F-0.02965902902699749
sba(innWeight
NNWeight
p940
(dp941
g3
F-0.017228671775332702
sba(innWeight
NNWeight
p942
(dp943
g3
F-0.028458995981664327
sba(innWeight
NNWeight
p944
(dp945
g3
F-0.04353887588887408
sba(innWeight
NNWeight
p946
(dp947
g3
F-0.027241663705185895
sba(innWeight
NNWeight
p948
(dp949
g3
F-0.041329259947844595
sba(innWeight
NNWeight
p950
(dp951
g3
F-0.029067602445005777
sba(innWeight
NNWeight
p952
(dp953
g3
F0.01857985364646125
sba(innWeight
NNWeight
p954
(dp955
g3
F0.020365394694562864
sba(innWeight
NNWeight
p956
(dp957
g3
F-0.023992654786645726
sba(innWeight
NNWeight
p958
(dp959
g3
F0.052827227850806555
sba(innWeight
NNWeight
p960
(dp961
g3
F-0.04326980942944829
sba(innWeight
NNWeight
p962
(dp963
g3
F-0.030445784516411663
sba(innWeight
NNWeight
p964
(dp965
g3
F0.0055260879035095205
sba(innWeight
NNWeight
p966
(dp967
g3
F-0.028007284971053977
sba(innWeight
NNWeight
p968
(dp969
g3
F-0.023082503091876812
sba(innWeight
NNWeight
p970
(dp971
g3
F0.006819642627043767
sba(innWeight
NNWeight
p972
(dp973
g3
F0.016579846994791893
sba(innWeight
NNWeight
p974
(dp975
g3
F-0.03130135024943984
sba(innWeight
NNWeight
p976
(dp977
g3
F0.011687761788949147
sba(innWeight
NNWeight
p978
(dp979
g3
F0.0322690473090373
sba(innWeight
NNWeight
p980
(dp981
g3
F-0.01177737049708528
sba(innWeight
NNWeight
p982
(dp983
g3
F0.013885524757035066
sba(innWeight
NNWeight
p984
(dp985
g3
F0.027635656233004666
sba(innWeight
NNWeight
p986
(dp987
g3
F-0.04773230208343321
sba(innWeight
NNWeight
p988
(dp989
g3
F0.01160206575610048
sba(innWeight
NNWeight
p990
(dp991
g3
F-0.0415790176489377
sba(innWeight
NNWeight
p992
(dp993
g3
F0.04650305588073336
sba(innWeight
NNWeight
p994
(dp995
g3
F-0.037618861770728144
sba(innWeight
NNWeight
p996
(dp997
g3
F0.029741878629729223
sba(innWeight
NNWeight
p998
(dp999
g3
F-0.020200684524190857
sba(innWeight
NNWeight
p1000
(dp1001
g3
F-0.012188988417130718
sba(innWeight
NNWeight
p1002
(dp1003
g3
F-0.049281656541415274
sba(innWeight
NNWeight
p1004
(dp1005
g3
F-0.005563179433106584
sba(innWeight
NNWeight
p1006
(dp1007
g3
F0.029502897298949848
sba(innWeight
NNWeight
p1008
(dp1009
g3
F0.026101836098032738
sba(innWeight
NNWeight
p1010
(dp1011
g3
F0.005357977860839316
sba(innWeight
NNWeight
p1012
(dp1013
g3
F-0.04361830359143803
sba(innWeight
NNWeight
p1014
(dp1015
g3
F0.025688674218442408
sba(innWeight
NNWeight
p1016
(dp1017
g3
F-0.013323585866194821
sba(innWeight
NNWeight
p1018
(dp1019
g3
F0.042797564781169986
sba(innWeight
NNWeight
p1020
(dp1021
g3
F-0.0397064687017687
sba(innWeight
NNWeight
p1022
(dp1023
g3
F0.026515305037768565
sba(innWeight
NNWeight
p1024
(dp1025
g3
F-0.04581093231875721
sba(innWeight
NNWeight
p1026
(dp1027
g3
F0.046954648658374974
sba(innWeight
NNWeight
p1028
(dp1029
g3
F-0.04718254169710629
sba(innWeight
NNWeight
p1030
(dp1031
g3
F-0.0027063570948238644
sba(innWeight
NNWeight
p1032
(dp1033
g3
F-0.037098195268222105
sba(innWeight
NNWeight
p1034
(dp1035
g3
F0.04868107928989825
sba(innWeight
NNWeight
p1036
(dp1037
g3
F0.041070352656842286
sba(innWeight
NNWeight
p1038
(dp1039
g3
F0.040620923016735484
sba(innWeight
NNWeight
p1040
(dp1041
g3
F0.049118265084057644
sba(innWeight
NNWeight
p1042
(dp1043
g3
F-0.009502110094878027
sba(innWeight
NNWeight
p1044
(dp1045
g3
F0.04661029221955978
sba(innWeight
NNWeight
p1046
(dp1047
g3
F0.03686225690832106
sba(innWeight
NNWeight
p1048
(dp1049
g3
F0.04074558277454272
sba(innWeight
NNWeight
p1050
(dp1051
g3
F-0.032182528711724695
sba(innWeight
NNWeight
p1052
(dp1053
g3
F-0.026635909960887178
sba(innWeight
NNWeight
p1054
(dp1055
g3
F0.03360313386687531
sba(innWeight
NNWeight
p1056
(dp1057
g3
F0.01165271528086199
sba(innWeight
NNWeight
p1058
(dp1059
g3
F0.04539324677709126
sba(innWeight
NNWeight
p1060
(dp1061
g3
F0.015249178516295796
sba(innWeight
NNWeight
p1062
(dp1063
g3
F0.004243578660682675
sba(innWeight
NNWeight
p1064
(dp1065
g3
F-0.020509588395121053
sba(innWeight
NNWeight
p1066
(dp1067
g3
F-0.021676444954812458
sba(innWeight
NNWeight
p1068
(dp1069
g3
F-0.03425602823452206
sba(innWeight
NNWeight
p1070
(dp1071
g3
F0.04524695992681451
sba(innWeight
NNWeight
p1072
(dp1073
g3
F-0.01994452576182721
sba(innWeight
NNWeight
p1074
(dp1075
g3
F0.0048293953842406
sba(innWeight
NNWeight
p1076
(dp1077
g3
F0.0055871005691106495
sba(innWeight
NNWeight
p1078
(dp1079
g3
F0.0003566770548327576
sba(innWeight
NNWeight
p1080
(dp1081
g3
F-0.0015440255918915497
sba(innWeight
NNWeight
p1082
(dp1083
g3
F0.02653455619649221
sba(innWeight
NNWeight
p1084
(dp1085
g3
F0.042133365205873276
sba(innWeight
NNWeight
p1086
(dp1087
g3
F0.005158155812417293
sba(innWeight
NNWeight
p1088
(dp1089
g3
F-0.003952078194417988
sba(innWeight
NNWeight
p1090
(dp1091
g3
F-0.04241554243878017
sba(innWeight
NNWeight
p1092
(dp1093
g3
F-0.01805308432352487
sba(innWeight
NNWeight
p1094
(dp1095
g3
F-0.022524348788555054
sba(innWeight
NNWeight
p1096
(dp1097
g3
F0.010387055052449775
sba(innWeight
NNWeight
p1098
(dp1099
g3
F0.04662737812325064
sba(innWeight
NNWeight
p1100
(dp1101
g3
F-0.024472584304716802
sba(innWeight
NNWeight
p1102
(dp1103
g3
F-0.026043138152421846
sba(innWeight
NNWeight
p1104
(dp1105
g3
F0.011316805662577686
sba(innWeight
NNWeight
p1106
(dp1107
g3
F0.04612302442401661
sba(innWeight
NNWeight
p1108
(dp1109
g3
F0.03408692278488019
sba(innWeight
NNWeight
p1110
(dp1111
g3
F-0.00635693085792065
sba(innWeight
NNWeight
p1112
(dp1113
g3
F0.03150117949203882
sba(innWeight
NNWeight
p1114
(dp1115
g3
F-0.03768727607500542
sba(innWeight
NNWeight
p1116
(dp1117
g3
F0.038157786786339694
sba(innWeight
NNWeight
p1118
(dp1119
g3
F0.007891004344102196
sba(innWeight
NNWeight
p1120
(dp1121
g3
F0.0014845167516816108
sba(innWeight
NNWeight
p1122
(dp1123
g3
F-0.007162760646324918
sba(innWeight
NNWeight
p1124
(dp1125
g3
F-0.02930953285074267
sba(innWeight
NNWeight
p1126
(dp1127
g3
F0.014977506515879863
sba(innWeight
NNWeight
p1128
(dp1129
g3
F0.04662104177145496
sba(innWeight
NNWeight
p1130
(dp1131
g3
F0.022446830604697945
sba(innWeight
NNWeight
p1132
(dp1133
g3
F-0.015393940501919525
sba(innWeight
NNWeight
p1134
(dp1135
g3
F0.005392504835031658
sba(innWeight
NNWeight
p1136
(dp1137
g3
F0.03539740518113523
sba(innWeight
NNWeight
p1138
(dp1139
g3
F-0.0199788014327751
sba(innWeight
NNWeight
p1140
(dp1141
g3
F0.007500523521011018
sba(innWeight
NNWeight
p1142
(dp1143
g3
F-0.04481225601091358
sba(innWeight
NNWeight
p1144
(dp1145
g3
F-0.026883357466899512
sba(innWeight
NNWeight
p1146
(dp1147
g3
F-0.0140472178041087
sba(innWeight
NNWeight
p1148
(dp1149
g3
F0.007433285626148598
sba(innWeight
NNWeight
p1150
(dp1151
g3
F-0.014598562228834114
sba(innWeight
NNWeight
p1152
(dp1153
g3
F0.041365225243737584
sba(innWeight
NNWeight
p1154
(dp1155
g3
F-0.03898521101215592
sba(innWeight
NNWeight
p1156
(dp1157
g3
F-0.04018134891105079
sba(innWeight
NNWeight
p1158
(dp1159
g3
F-0.007260757296882602
sba(innWeight
NNWeight
p1160
(dp1161
g3
F0.028888782088472183
sba(innWeight
NNWeight
p1162
(dp1163
g3
F0.026201512422051813
sba(innWeight
NNWeight
p1164
(dp1165
g3
F-0.0004917968749138071
sba(innWeight
NNWeight
p1166
(dp1167
g3
F0.019153753838659294
sba(innWeight
NNWeight
p1168
(dp1169
g3
F-0.036475256584867985
sba(innWeight
NNWeight
p1170
(dp1171
g3
F0.010488740584288938
sba(innWeight
NNWeight
p1172
(dp1173
g3
F0.011896164799032846
sba(innWeight
NNWeight
p1174
(dp1175
g3
F0.010517535192054556
sba(innWeight
NNWeight
p1176
(dp1177
g3
F0.0030411558833887894
sba(innWeight
NNWeight
p1178
(dp1179
g3
F-0.00042668509835819897
sba(innWeight
NNWeight
p1180
(dp1181
g3
F-0.012416808912755277
sba(innWeight
NNWeight
p1182
(dp1183
g3
F-0.024781723051862742
sba(innWeight
NNWeight
p1184
(dp1185
g3
F0.030663043334423414
sba(innWeight
NNWeight
p1186
(dp1187
g3
F-0.04004312999233443
sba(innWeight
NNWeight
p1188
(dp1189
g3
F0.03407487058440808
sba(innWeight
NNWeight
p1190
(dp1191
g3
F-0.020005639922759364
sba(innWeight
NNWeight
p1192
(dp1193
g3
F0.04238705689080386
sba(innWeight
NNWeight
p1194
(dp1195
g3
F-0.03975165574383439
sba(innWeight
NNWeight
p1196
(dp1197
g3
F-0.052320044165174655
sba(innWeight
NNWeight
p1198
(dp1199
g3
F0.038685680412078184
sba(innWeight
NNWeight
p1200
(dp1201
g3
F-0.04523386420866857
sba(innWeight
NNWeight
p1202
(dp1203
g3
F-0.027025950600403675
sba(innWeight
NNWeight
p1204
(dp1205
g3
F0.03636671422558771
sba(innWeight
NNWeight
p1206
(dp1207
g3
F-0.024277186984871312
sba(innWeight
NNWeight
p1208
(dp1209
g3
F-0.010762179434326181
sba(innWeight
NNWeight
p1210
(dp1211
g3
F0.028324301414375738
sba(innWeight
NNWeight
p1212
(dp1213
g3
F0.015238651067928266
sba(innWeight
NNWeight
p1214
(dp1215
g3
F0.0032853439762021144
sba(innWeight
NNWeight
p1216
(dp1217
g3
F-0.022578060904495035
sba(innWeight
NNWeight
p1218
(dp1219
g3
F0.03681182048801879
sba(innWeight
NNWeight
p1220
(dp1221
g3
F0.02542293174265547
sba(innWeight
NNWeight
p1222
(dp1223
g3
F0.0167209767910204
sba(innWeight
NNWeight
p1224
(dp1225
g3
F-0.034613746267823244
sba(innWeight
NNWeight
p1226
(dp1227
g3
F-0.027890632696846666
sba(innWeight
NNWeight
p1228
(dp1229
g3
F-0.047769659889657694
sba(innWeight
NNWeight
p1230
(dp1231
g3
F-0.012122259779520068
sba(innWeight
NNWeight
p1232
(dp1233
g3
F0.0009453324179556458
sba(innWeight
NNWeight
p1234
(dp1235
g3
F0.005353184720988847
sba(innWeight
NNWeight
p1236
(dp1237
g3
F-0.0250835541487521
sba(innWeight
NNWeight
p1238
(dp1239
g3
F-0.038616793260384114
sba(innWeight
NNWeight
p1240
(dp1241
g3
F-0.004025503350326667
sba(innWeight
NNWeight
p1242
(dp1243
g3
F0.02120693217009897
sba(innWeight
NNWeight
p1244
(dp1245
g3
F-0.03284286475949918
sba(innWeight
NNWeight
p1246
(dp1247
g3
F-0.020111926053233836
sba(innWeight
NNWeight
p1248
(dp1249
g3
F0.0377317908630386
sba(innWeight
NNWeight
p1250
(dp1251
g3
F0.04288982772166732
sba(innWeight
NNWeight
p1252
(dp1253
g3
F0.04614233978903575
sba(innWeight
NNWeight
p1254
(dp1255
g3
F-0.04480711894911157
sba(innWeight
NNWeight
p1256
(dp1257
g3
F0.00023601614206391125
sba(innWeight
NNWeight
p1258
(dp1259
g3
F-0.046908188364684286
sba(innWeight
NNWeight
p1260
(dp1261
g3
F0.031609480974639996
sba(innWeight
NNWeight
p1262
(dp1263
g3
F0.013340380539664461
sba(innWeight
NNWeight
p1264
(dp1265
g3
F0.030741150973601958
sba(innWeight
NNWeight
p1266
(dp1267
g3
F0.02295093334165808
sba(innWeight
NNWeight
p1268
(dp1269
g3
F-0.03228155686010159
sba(innWeight
NNWeight
p1270
(dp1271
g3
F-0.012965907353435616
sba(innWeight
NNWeight
p1272
(dp1273
g3
F-0.04255825585717553
sba(innWeight
NNWeight
p1274
(dp1275
g3
F0.003844745895692105
sba(innWeight
NNWeight
p1276
(dp1277
g3
F-0.00881064862915046
sba(innWeight
NNWeight
p1278
(dp1279
g3
F0.04480096123132342
sba(innWeight
NNWeight
p1280
(dp1281
g3
F-0.05092978261084634
sba(innWeight
NNWeight
p1282
(dp1283
g3
F0.030064726015465056
sba(innWeight
NNWeight
p1284
(dp1285
g3
F0.011500008497593469
sba(innWeight
NNWeight
p1286
(dp1287
g3
F0.014192394552139973
sba(innWeight
NNWeight
p1288
(dp1289
g3
F-0.00888567898096828
sba(innWeight
NNWeight
p1290
(dp1291
g3
F0.009666177504183296
sba(innWeight
NNWeight
p1292
(dp1293
g3
F0.023914854444040234
sba(innWeight
NNWeight
p1294
(dp1295
g3
F-0.027510276595953564
sba(innWeight
NNWeight
p1296
(dp1297
g3
F0.028260621705193528
sba(innWeight
NNWeight
p1298
(dp1299
g3
F0.010664288224257287
sba(innWeight
NNWeight
p1300
(dp1301
g3
F-0.0360128459387416
sba(innWeight
NNWeight
p1302
(dp1303
g3
F-0.022110594068149185
sba(innWeight
NNWeight
p1304
(dp1305
g3
F0.004503572511740602
sba(innWeight
NNWeight
p1306
(dp1307
g3
F-0.02788410509244729
sba(innWeight
NNWeight
p1308
(dp1309
g3
F0.04023474394339017
sba(innWeight
NNWeight
p1310
(dp1311
g3
F0.014396713269936232
sba(innWeight
NNWeight
p1312
(dp1313
g3
F0.013419878746968707
sba(innWeight
NNWeight
p1314
(dp1315
g3
F-0.03170386522889922
sba(innWeight
NNWeight
p1316
(dp1317
g3
F-0.05091099075565421
sba(innWeight
NNWeight
p1318
(dp1319
g3
F-0.04670447697467542
sba(innWeight
NNWeight
p1320
(dp1321
g3
F0.041453073188267645
sba(innWeight
NNWeight
p1322
(dp1323
g3
F0.039921293647632444
sba(innWeight
NNWeight
p1324
(dp1325
g3
F-0.007422915541461821
sba(innWeight
NNWeight
p1326
(dp1327
g3
F-0.019488780756065607
sba(innWeight
NNWeight
p1328
(dp1329
g3
F0.007189309564516374
sba(innWeight
NNWeight
p1330
(dp1331
g3
F0.015193163171209863
sba(innWeight
NNWeight
p1332
(dp1333
g3
F0.013506352399617557
sba(innWeight
NNWeight
p1334
(dp1335
g3
F0.04151401718793083
sba(innWeight
NNWeight
p1336
(dp1337
g3
F-0.03833998500632
sba(innWeight
NNWeight
p1338
(dp1339
g3
F-0.012909475443388772
sba(innWeight
NNWeight
p1340
(dp1341
g3
F-0.014781315093736327
sba(innWeight
NNWeight
p1342
(dp1343
g3
F0.0217724621069333
sba(innWeight
NNWeight
p1344
(dp1345
g3
F0.03494213608076879
sba(innWeight
NNWeight
p1346
(dp1347
g3
F0.04272923253424116
sba(innWeight
NNWeight
p1348
(dp1349
g3
F-0.049007635084330856
sba(innWeight
NNWeight
p1350
(dp1351
g3
F-0.040832041680879616
sba(innWeight
NNWeight
p1352
(dp1353
g3
F-0.031867187837328545
sba(innWeight
NNWeight
p1354
(dp1355
g3
F-0.030146325361368527
sba(innWeight
NNWeight
p1356
(dp1357
g3
F0.03965704407367348
sba(innWeight
NNWeight
p1358
(dp1359
g3
F-0.040174382750777914
sba(innWeight
NNWeight
p1360
(dp1361
g3
F-0.02582775355307361
sba(innWeight
NNWeight
p1362
(dp1363
g3
F0.03521230770592267
sba(innWeight
NNWeight
p1364
(dp1365
g3
F-0.00039346580810997533
sba(innWeight
NNWeight
p1366
(dp1367
g3
F-0.015173815782076095
sba(innWeight
NNWeight
p1368
(dp1369
g3
F-0.04280724366743605
sba(innWeight
NNWeight
p1370
(dp1371
g3
F-0.0026504423366987004
sba(innWeight
NNWeight
p1372
(dp1373
g3
F-0.04177063927375574
sba(innWeight
NNWeight
p1374
(dp1375
g3
F0.0022057618904245055
sba(innWeight
NNWeight
p1376
(dp1377
g3
F-0.01643197990371273
sba(innWeight
NNWeight
p1378
(dp1379
g3
F-0.0064035020258740374
sba(innWeight
NNWeight
p1380
(dp1381
g3
F0.007462456805531433
sba(innWeight
NNWeight
p1382
(dp1383
g3
F-0.032008254146429556
sba(innWeight
NNWeight
p1384
(dp1385
g3
F-0.04862408794541812
sba(innWeight
NNWeight
p1386
(dp1387
g3
F0.04451996317601856
sba(innWeight
NNWeight
p1388
(dp1389
g3
F-0.028216576886204117
sba(innWeight
NNWeight
p1390
(dp1391
g3
F-0.020727439422220592
sba(innWeight
NNWeight
p1392
(dp1393
g3
F-0.0003290992934835885
sba(innWeight
NNWeight
p1394
(dp1395
g3
F0.01944153371113747
sba(innWeight
NNWeight
p1396
(dp1397
g3
F0.033050396120171084
sba(innWeight
NNWeight
p1398
(dp1399
g3
F-0.02551509274326637
sba(innWeight
NNWeight
p1400
(dp1401
g3
F-0.0221318378116114
sba(innWeight
NNWeight
p1402
(dp1403
g3
F0.03665696159906411
sba(innWeight
NNWeight
p1404
(dp1405
g3
F0.006438927306445084
sba(innWeight
NNWeight
p1406
(dp1407
g3
F-0.03885532619151814
sba(innWeight
NNWeight
p1408
(dp1409
g3
F-0.02262167919251242
sba(innWeight
NNWeight
p1410
(dp1411
g3
F-0.005137236152533402
sba(innWeight
NNWeight
p1412
(dp1413
g3
F-0.039623550546943186
sba(innWeight
NNWeight
p1414
(dp1415
g3
F-0.016863157312431164
sba(innWeight
NNWeight
p1416
(dp1417
g3
F0.011035190818061856
sba(innWeight
NNWeight
p1418
(dp1419
g3
F-0.021135676740402447
sba(innWeight
NNWeight
p1420
(dp1421
g3
F-0.0023850427623933836
sba(innWeight
NNWeight
p1422
(dp1423
g3
F0.020146716746764413
sba(innWeight
NNWeight
p1424
(dp1425
g3
F-0.02862063607256026
sba(innWeight
NNWeight
p1426
(dp1427
g3
F0.0007380684760211203
sba(innWeight
NNWeight
p1428
(dp1429
g3
F0.04118237769508259
sba(innWeight
NNWeight
p1430
(dp1431
g3
F0.003298876385457838
sba(innWeight
NNWeight
p1432
(dp1433
g3
F0.038408593563416346
sba(innWeight
NNWeight
p1434
(dp1435
g3
F0.011146487642404865
sba(innWeight
NNWeight
p1436
(dp1437
g3
F-0.04792635990762816
sba(innWeight
NNWeight
p1438
(dp1439
g3
F-0.02804259506258023
sba(innWeight
NNWeight
p1440
(dp1441
g3
F0.008051721666362156
sba(innWeight
NNWeight
p1442
(dp1443
g3
F0.012539034318244002
sba(innWeight
NNWeight
p1444
(dp1445
g3
F0.05356569320924279
sba(innWeight
NNWeight
p1446
(dp1447
g3
F-0.0266098774111694
sba(innWeight
NNWeight
p1448
(dp1449
g3
F0.009802344207555996
sba(innWeight
NNWeight
p1450
(dp1451
g3
F0.023430116328831185
sba(innWeight
NNWeight
p1452
(dp1453
g3
F0.022246552674665708
sba(innWeight
NNWeight
p1454
(dp1455
g3
F0.04507267458876168
sba(innWeight
NNWeight
p1456
(dp1457
g3
F-0.055535597436828475
sba(innWeight
NNWeight
p1458
(dp1459
g3
F0.012352355713156746
sba(innWeight
NNWeight
p1460
(dp1461
g3
F-0.030085235373057025
sba(innWeight
NNWeight
p1462
(dp1463
g3
F0.029461305113886335
sba(innWeight
NNWeight
p1464
(dp1465
g3
F-0.013199927564796207
sba(innWeight
NNWeight
p1466
(dp1467
g3
F-0.01233821473087395
sba(innWeight
NNWeight
p1468
(dp1469
g3
F0.028249559588474214
sba(innWeight
NNWeight
p1470
(dp1471
g3
F-0.045116536196184574
sba(innWeight
NNWeight
p1472
(dp1473
g3
F-0.039120220126749844
sba(innWeight
NNWeight
p1474
(dp1475
g3
F-0.03342870991056573
sba(innWeight
NNWeight
p1476
(dp1477
g3
F-0.015528922280513394
sba(innWeight
NNWeight
p1478
(dp1479
g3
F0.011412816216373493
sba(innWeight
NNWeight
p1480
(dp1481
g3
F-0.04614919809307662
sba(innWeight
NNWeight
p1482
(dp1483
g3
F-0.025924424772762265
sba(innWeight
NNWeight
p1484
(dp1485
g3
F0.021369351657653832
sba(innWeight
NNWeight
p1486
(dp1487
g3
F-0.0396916512189031
sba(innWeight
NNWeight
p1488
(dp1489
g3
F0.013205155833243208
sba(innWeight
NNWeight
p1490
(dp1491
g3
F0.03489746645573382
sba(innWeight
NNWeight
p1492
(dp1493
g3
F0.020245598800360476
sba(innWeight
NNWeight
p1494
(dp1495
g3
F-0.03253025504119691
sba(innWeight
NNWeight
p1496
(dp1497
g3
F-0.022127970764220555
sba(innWeight
NNWeight
p1498
(dp1499
g3
F0.03763575556926551
sba(innWeight
NNWeight
p1500
(dp1501
g3
F0.023233209063270917
sba(innWeight
NNWeight
p1502
(dp1503
g3
F0.00784010794937256
sba(innWeight
NNWeight
p1504
(dp1505
g3
F0.03171900038459204
sba(innWeight
NNWeight
p1506
(dp1507
g3
F0.038862035860185114
sba(innWeight
NNWeight
p1508
(dp1509
g3
F-0.009032047399237046
sba(innWeight
NNWeight
p1510
(dp1511
g3
F0.0505423526437413
sba(innWeight
NNWeight
p1512
(dp1513
g3
F-0.0429034227916742
sba(innWeight
NNWeight
p1514
(dp1515
g3
F-0.03114003709069897
sba(innWeight
NNWeight
p1516
(dp1517
g3
F-0.020536459671986716
sba(innWeight
NNWeight
p1518
(dp1519
g3
F-0.03132706960646856
sba(innWeight
NNWeight
p1520
(dp1521
g3
F0.002115240369795777
sba(innWeight
NNWeight
p1522
(dp1523
g3
F-0.03214265822092699
sba(innWeight
NNWeight
p1524
(dp1525
g3
F-0.037558327044368255
sba(innWeight
NNWeight
p1526
(dp1527
g3
F0.05119086111403319
sba(innWeight
NNWeight
p1528
(dp1529
g3
F0.008358825717158874
sba(innWeight
NNWeight
p1530
(dp1531
g3
F0.012337084413293856
sba(innWeight
NNWeight
p1532
(dp1533
g3
F-0.02956886742267433
sba(innWeight
NNWeight
p1534
(dp1535
g3
F-0.03593489514518717
sba(innWeight
NNWeight
p1536
(dp1537
g3
F0.039596863496186935
sba(innWeight
NNWeight
p1538
(dp1539
g3
F0.007159050826213293
sba(innWeight
NNWeight
p1540
(dp1541
g3
F0.04936074673212694
sba(innWeight
NNWeight
p1542
(dp1543
g3
F-0.003926954435473179
sba(innWeight
NNWeight
p1544
(dp1545
g3
F0.004603511251339475
sba(innWeight
NNWeight
p1546
(dp1547
g3
F0.008905530670002848
sba(innWeight
NNWeight
p1548
(dp1549
g3
F0.04111476776998325
sba(innWeight
NNWeight
p1550
(dp1551
g3
F-0.024347929511617773
sba(innWeight
NNWeight
p1552
(dp1553
g3
F-0.0136693667435211
sba(innWeight
NNWeight
p1554
(dp1555
g3
F0.010674163791412852
sba(innWeight
NNWeight
p1556
(dp1557
g3
F-0.031874857693792114
sba(innWeight
NNWeight
p1558
(dp1559
g3
F0.03973715206775855
sba(innWeight
NNWeight
p1560
(dp1561
g3
F0.046678534775087814
sba(innWeight
NNWeight
p1562
(dp1563
g3
F-0.011240422669250743
sba(innWeight
NNWeight
p1564
(dp1565
g3
F0.023472072173071828
sba(innWeight
NNWeight
p1566
(dp1567
g3
F-0.0012055106382258607
sba(innWeight
NNWeight
p1568
(dp1569
g3
F0.05187562178808217
sba(innWeight
NNWeight
p1570
(dp1571
g3
F0.030493271577900678
sba(innWeight
NNWeight
p1572
(dp1573
g3
F0.016072117021863952
sba(innWeight
NNWeight
p1574
(dp1575
g3
F0.01229244395206424
sba(innWeight
NNWeight
p1576
(dp1577
g3
F-0.02082759741364738
sba(innWeight
NNWeight
p1578
(dp1579
g3
F0.031485142746089094
sba(innWeight
NNWeight
p1580
(dp1581
g3
F-0.004895759597788311
sba(innWeight
NNWeight
p1582
(dp1583
g3
F0.03887552686275629
sba(innWeight
NNWeight
p1584
(dp1585
g3
F-0.022296369801562237
sba(innWeight
NNWeight
p1586
(dp1587
g3
F0.03473738635714561
sba(innWeight
NNWeight
p1588
(dp1589
g3
F0.03256766646313296
sba(innWeight
NNWeight
p1590
(dp1591
g3
F0.03484807843940088
sba(innWeight
NNWeight
p1592
(dp1593
g3
F0.03834211270903554
sba(innWeight
NNWeight
p1594
(dp1595
g3
F-0.016212146394879168
sba(innWeight
NNWeight
p1596
(dp1597
g3
F-0.03729681610166426
sba(innWeight
NNWeight
p1598
(dp1599
g3
F-0.04827334934852998
sba(innWeight
NNWeight
p1600
(dp1601
g3
F-0.020417367850280307
sba(innWeight
NNWeight
p1602
(dp1603
g3
F-0.017029990665667145
sba(innWeight
NNWeight
p1604
(dp1605
g3
F0.030279777786518216
sba(innWeight
NNWeight
p1606
(dp1607
g3
F-0.007052789528238469
sba(innWeight
NNWeight
p1608
(dp1609
g3
F0.02049282456050622
sba(innWeight
NNWeight
p1610
(dp1611
g3
F-0.025983813892832195
sba(innWeight
NNWeight
p1612
(dp1613
g3
F0.0452028346726882
sba(innWeight
NNWeight
p1614
(dp1615
g3
F-0.0428482804536785
sba(innWeight
NNWeight
p1616
(dp1617
g3
F-0.04623923662745283
sba(innWeight
NNWeight
p1618
(dp1619
g3
F0.000706230298316349
sba(innWeight
NNWeight
p1620
(dp1621
g3
F-0.03607951682555196
sba(innWeight
NNWeight
p1622
(dp1623
g3
F0.03469920222814022
sba(innWeight
NNWeight
p1624
(dp1625
g3
F0.01491231849550594
sba(innWeight
NNWeight
p1626
(dp1627
g3
F-0.018054956822045172
sba(innWeight
NNWeight
p1628
(dp1629
g3
F-0.03019770609488584
sba(innWeight
NNWeight
p1630
(dp1631
g3
F-0.0183835273873168
sba(innWeight
NNWeight
p1632
(dp1633
g3
F-0.0023998163816781053
sba(innWeight
NNWeight
p1634
(dp1635
g3
F0.037545342157169155
sba(innWeight
NNWeight
p1636
(dp1637
g3
F-0.04155348821982679
sba(innWeight
NNWeight
p1638
(dp1639
g3
F-0.03221801360474294
sba(innWeight
NNWeight
p1640
(dp1641
g3
F0.01083343769246451
sba(innWeight
NNWeight
p1642
(dp1643
g3
F0.04397533359305422
sba(innWeight
NNWeight
p1644
(dp1645
g3
F-0.051304465391070336
sba(innWeight
NNWeight
p1646
(dp1647
g3
F0.03332471720790028
sba(innWeight
NNWeight
p1648
(dp1649
g3
F-0.03661230075287715
sba(innWeight
NNWeight
p1650
(dp1651
g3
F-0.028609002215279858
sba(innWeight
NNWeight
p1652
(dp1653
g3
F0.009215905948396445
sba(innWeight
NNWeight
p1654
(dp1655
g3
F0.010853851859803821
sba(innWeight
NNWeight
p1656
(dp1657
g3
F0.014523399425600662
sba(innWeight
NNWeight
p1658
(dp1659
g3
F0.03027864370654922
sba(innWeight
NNWeight
p1660
(dp1661
g3
F0.03829821720525773
sba(innWeight
NNWeight
p1662
(dp1663
g3
F-0.013328802216601255
sba(innWeight
NNWeight
p1664
(dp1665
g3
F-0.044701499129122406
sba(innWeight
NNWeight
p1666
(dp1667
g3
F-0.011590066037557441
sba(innWeight
NNWeight
p1668
(dp1669
g3
F-0.01507948141443957
sba(innWeight
NNWeight
p1670
(dp1671
g3
F-0.0039728698256057664
sba(innWeight
NNWeight
p1672
(dp1673
g3
F-0.0001484854995336819
sba(innWeight
NNWeight
p1674
(dp1675
g3
F0.008075129580402494
sba(innWeight
NNWeight
p1676
(dp1677
g3
F-0.009286551850473125
sba(innWeight
NNWeight
p1678
(dp1679
g3
F-0.0001604542264845571
sba(innWeight
NNWeight
p1680
(dp1681
g3
F-0.027286558575275104
sba(innWeight
NNWeight
p1682
(dp1683
g3
F-0.0071850417042685225
sba(innWeight
NNWeight
p1684
(dp1685
g3
F0.04196987247420753
sba(innWeight
NNWeight
p1686
(dp1687
g3
F0.02066623075750234
sba(innWeight
NNWeight
p1688
(dp1689
g3
F-0.027393389600035335
sba(innWeight
NNWeight
p1690
(dp1691
g3
F-0.04741073436785547
sba(innWeight
NNWeight
p1692
(dp1693
g3
F0.021911755826009904
sba(innWeight
NNWeight
p1694
(dp1695
g3
F-0.02863063633514015
sba(innWeight
NNWeight
p1696
(dp1697
g3
F0.02295356759667654
sba(innWeight
NNWeight
p1698
(dp1699
g3
F-0.01512576262930372
sba(innWeight
NNWeight
p1700
(dp1701
g3
F0.010072347697129301
sba(innWeight
NNWeight
p1702
(dp1703
g3
F-0.0282413113853309
sba(innWeight
NNWeight
p1704
(dp1705
g3
F-0.010538303582577043
sba(innWeight
NNWeight
p1706
(dp1707
g3
F0.04077816038730734
sba(innWeight
NNWeight
p1708
(dp1709
g3
F0.046308919481097194
sba(innWeight
NNWeight
p1710
(dp1711
g3
F-0.005209858637882522
sba(innWeight
NNWeight
p1712
(dp1713
g3
F0.01753588853152703
sba(innWeight
NNWeight
p1714
(dp1715
g3
F0.04138200164347526
sba(innWeight
NNWeight
p1716
(dp1717
g3
F0.039282206834638095
sba(innWeight
NNWeight
p1718
(dp1719
g3
F-0.029147345159047974
sba(innWeight
NNWeight
p1720
(dp1721
g3
F0.033975655679255014
sba(innWeight
NNWeight
p1722
(dp1723
g3
F0.002233509705165682
sba(innWeight
NNWeight
p1724
(dp1725
g3
F0.04154530877361726
sba(innWeight
NNWeight
p1726
(dp1727
g3
F0.037811886373702516
sba(innWeight
NNWeight
p1728
(dp1729
g3
F-0.03697485756606445
sba(innWeight
NNWeight
p1730
(dp1731
g3
F0.03695360912612491
sba(innWeight
NNWeight
p1732
(dp1733
g3
F0.024465753761832052
sba(innWeight
NNWeight
p1734
(dp1735
g3
F0.006314845065153348
sba(innWeight
NNWeight
p1736
(dp1737
g3
F-0.021633813195508524
sba(innWeight
NNWeight
p1738
(dp1739
g3
F-0.01748620848556126
sba(innWeight
NNWeight
p1740
(dp1741
g3
F-0.022897074088358723
sba(innWeight
NNWeight
p1742
(dp1743
g3
F0.04528893310438719
sba(innWeight
NNWeight
p1744
(dp1745
g3
F0.039788740244426135
sba(innWeight
NNWeight
p1746
(dp1747
g3
F-0.039066943442548976
sba(innWeight
NNWeight
p1748
(dp1749
g3
F-2.2664037635294714e-05
sba(innWeight
NNWeight
p1750
(dp1751
g3
F-0.014922387371013413
sba(innWeight
NNWeight
p1752
(dp1753
g3
F0.027585526556084924
sba(innWeight
NNWeight
p1754
(dp1755
g3
F0.03195533348651969
sba(innWeight
NNWeight
p1756
(dp1757
g3
F-0.01847975278445553
sba(innWeight
NNWeight
p1758
(dp1759
g3
F0.02995582822138451
sba(innWeight
NNWeight
p1760
(dp1761
g3
F-0.017441775337423977
sba(innWeight
NNWeight
p1762
(dp1763
g3
F0.027110067942951233
sba(innWeight
NNWeight
p1764
(dp1765
g3
F-0.015283610891293263
sba(innWeight
NNWeight
p1766
(dp1767
g3
F-0.0166739834537044
sba(innWeight
NNWeight
p1768
(dp1769
g3
F-0.004569445211755141
sba(innWeight
NNWeight
p1770
(dp1771
g3
F0.0024731702943569817
sba(innWeight
NNWeight
p1772
(dp1773
g3
F-0.03880523412419205
sba(innWeight
NNWeight
p1774
(dp1775
g3
F-0.03261463106870245
sba(innWeight
NNWeight
p1776
(dp1777
g3
F-0.020148858672038385
sba(innWeight
NNWeight
p1778
(dp1779
g3
F0.0020676440027263513
sba(innWeight
NNWeight
p1780
(dp1781
g3
F0.0075722944682579275
sba(innWeight
NNWeight
p1782
(dp1783
g3
F-0.023744970385589488
sba(innWeight
NNWeight
p1784
(dp1785
g3
F0.03670042174301993
sba(innWeight
NNWeight
p1786
(dp1787
g3
F0.025430290716075114
sba(innWeight
NNWeight
p1788
(dp1789
g3
F0.0063933793177249985
sba(innWeight
NNWeight
p1790
(dp1791
g3
F-0.012212864494517675
sba(innWeight
NNWeight
p1792
(dp1793
g3
F-0.020997949796314364
sba(innWeight
NNWeight
p1794
(dp1795
g3
F0.022344790272242107
sba(innWeight
NNWeight
p1796
(dp1797
g3
F-0.0012897550506361397
sba(innWeight
NNWeight
p1798
(dp1799
g3
F0.03593984680369856
sba(innWeight
NNWeight
p1800
(dp1801
g3
F-0.029185629354642237
sba(innWeight
NNWeight
p1802
(dp1803
g3
F-0.013107219265516263
sba(innWeight
NNWeight
p1804
(dp1805
g3
F-0.029816019729251093
sba(innWeight
NNWeight
p1806
(dp1807
g3
F-0.0181449049601598
sba(innWeight
NNWeight
p1808
(dp1809
g3
F0.024846503118419475
sba(innWeight
NNWeight
p1810
(dp1811
g3
F-0.005624456627025246
sba(innWeight
NNWeight
p1812
(dp1813
g3
F0.023364038634071087
sba(innWeight
NNWeight
p1814
(dp1815
g3
F-0.04020472167551356
sba(innWeight
NNWeight
p1816
(dp1817
g3
F0.010424321694182205
sba(innWeight
NNWeight
p1818
(dp1819
g3
F-0.02479642186426743
sba(innWeight
NNWeight
p1820
(dp1821
g3
F-0.05546528899074506
sba(innWeight
NNWeight
p1822
(dp1823
g3
F0.016946834128035732
sba(innWeight
NNWeight
p1824
(dp1825
g3
F-0.02691480908388121
sba(innWeight
NNWeight
p1826
(dp1827
g3
F0.046031709153641416
sba(innWeight
NNWeight
p1828
(dp1829
g3
F-0.004550954584690488
sba(innWeight
NNWeight
p1830
(dp1831
g3
F-0.038746350848973266
sba(innWeight
NNWeight
p1832
(dp1833
g3
F-0.00021233967509480122
sba(innWeight
NNWeight
p1834
(dp1835
g3
F-0.017256002597160997
sba(innWeight
NNWeight
p1836
(dp1837
g3
F-0.04682582194398981
sba(innWeight
NNWeight
p1838
(dp1839
g3
F0.03560104327264393
sba(innWeight
NNWeight
p1840
(dp1841
g3
F0.03493764202181605
sba(innWeight
NNWeight
p1842
(dp1843
g3
F0.011706089444802547
sba(innWeight
NNWeight
p1844
(dp1845
g3
F0.020334485015969583
sba(innWeight
NNWeight
p1846
(dp1847
g3
F-0.015613513589595653
sba(innWeight
NNWeight
p1848
(dp1849
g3
F0.03799381349375815
sba(innWeight
NNWeight
p1850
(dp1851
g3
F-0.0237553625442278
sba(innWeight
NNWeight
p1852
(dp1853
g3
F-0.031985061427156895
sba(innWeight
NNWeight
p1854
(dp1855
g3
F-0.046197861995309564
sba(innWeight
NNWeight
p1856
(dp1857
g3
F-0.029145040097741482
sba(innWeight
NNWeight
p1858
(dp1859
g3
F-0.037734605860599346
sba(innWeight
NNWeight
p1860
(dp1861
g3
F-0.01801075180010602
sba(innWeight
NNWeight
p1862
(dp1863
g3
F-0.022335717793531922
sba(innWeight
NNWeight
p1864
(dp1865
g3
F0.012564821259061111
sba(innWeight
NNWeight
p1866
(dp1867
g3
F0.013913156160383876
sba(innWeight
NNWeight
p1868
(dp1869
g3
F-0.030051603241020727
sba(innWeight
NNWeight
p1870
(dp1871
g3
F-0.04921155512777179
sba(innWeight
NNWeight
p1872
(dp1873
g3
F0.002797796074109667
sba(innWeight
NNWeight
p1874
(dp1875
g3
F-0.005716764730065882
sba(innWeight
NNWeight
p1876
(dp1877
g3
F0.009060678244653514
sba(innWeight
NNWeight
p1878
(dp1879
g3
F-0.024003611480870116
sba(innWeight
NNWeight
p1880
(dp1881
g3
F-0.026605318957222707
sba(innWeight
NNWeight
p1882
(dp1883
g3
F0.02266461342201815
sba(innWeight
NNWeight
p1884
(dp1885
g3
F-0.04830285080167051
sba(innWeight
NNWeight
p1886
(dp1887
g3
F0.02795428905551239
sba(innWeight
NNWeight
p1888
(dp1889
g3
F0.045665838854434954
sba(innWeight
NNWeight
p1890
(dp1891
g3
F-0.01798257824800246
sba(innWeight
NNWeight
p1892
(dp1893
g3
F0.030911951051063924
sba(innWeight
NNWeight
p1894
(dp1895
g3
F0.004309307359416462
sba(innWeight
NNWeight
p1896
(dp1897
g3
F0.025767151892564177
sba(innWeight
NNWeight
p1898
(dp1899
g3
F-0.014196998474117846
sba(innWeight
NNWeight
p1900
(dp1901
g3
F0.03757309426771509
sba(innWeight
NNWeight
p1902
(dp1903
g3
F0.041453123168832005
sba(innWeight
NNWeight
p1904
(dp1905
g3
F-0.022432470194381767
sba(innWeight
NNWeight
p1906
(dp1907
g3
F0.03285227465411679
sba(innWeight
NNWeight
p1908
(dp1909
g3
F0.015986838905651474
sba(innWeight
NNWeight
p1910
(dp1911
g3
F-0.03735017435457882
sba(innWeight
NNWeight
p1912
(dp1913
g3
F0.022642612143219054
sba(innWeight
NNWeight
p1914
(dp1915
g3
F-0.03556730905050009
sba(innWeight
NNWeight
p1916
(dp1917
g3
F0.028299063381233436
sba(innWeight
NNWeight
p1918
(dp1919
g3
F0.03240230651221143
sba(innWeight
NNWeight
p1920
(dp1921
g3
F0.021298705005250527
sba(innWeight
NNWeight
p1922
(dp1923
g3
F-0.03154650057555868
sba(innWeight
NNWeight
p1924
(dp1925
g3
F-0.02968551399154838
sba(innWeight
NNWeight
p1926
(dp1927
g3
F-0.050869801927831144
sba(innWeight
NNWeight
p1928
(dp1929
g3
F0.01652124539480089
sba(innWeight
NNWeight
p1930
(dp1931
g3
F-0.006205940661051417
sba(innWeight
NNWeight
p1932
(dp1933
g3
F0.03582165333414627
sba(innWeight
NNWeight
p1934
(dp1935
g3
F0.0071361656344466375
sba(innWeight
NNWeight
p1936
(dp1937
g3
F0.024996564433004603
sba(innWeight
NNWeight
p1938
(dp1939
g3
F-0.04592343306712834
sba(innWeight
NNWeight
p1940
(dp1941
g3
F0.00013571839074538397
sba(innWeight
NNWeight
p1942
(dp1943
g3
F0.045870410652742444
sba(innWeight
NNWeight
p1944
(dp1945
g3
F-0.01477202392074713
sba(innWeight
NNWeight
p1946
(dp1947
g3
F-0.028639949167321568
sba(innWeight
NNWeight
p1948
(dp1949
g3
F-0.019032945721481353
sba(innWeight
NNWeight
p1950
(dp1951
g3
F-0.01868818208031925
sba(innWeight
NNWeight
p1952
(dp1953
g3
F-0.038145856957230086
sba(innWeight
NNWeight
p1954
(dp1955
g3
F0.02674376103082199
sba(innWeight
NNWeight
p1956
(dp1957
g3
F-0.0017398816847491731
sba(innWeight
NNWeight
p1958
(dp1959
g3
F-0.024517867140831092
sba(innWeight
NNWeight
p1960
(dp1961
g3
F-0.014746823561092654
sba(innWeight
NNWeight
p1962
(dp1963
g3
F-0.03641730397584195
sba(innWeight
NNWeight
p1964
(dp1965
g3
F0.03167278871832838
sba(innWeight
NNWeight
p1966
(dp1967
g3
F0.005043978795527741
sba(innWeight
NNWeight
p1968
(dp1969
g3
F0.02451406188334745
sba(innWeight
NNWeight
p1970
(dp1971
g3
F0.01845807073246229
sba(innWeight
NNWeight
p1972
(dp1973
g3
F-0.013397381730628485
sba(innWeight
NNWeight
p1974
(dp1975
g3
F0.04456650711450671
sba(innWeight
NNWeight
p1976
(dp1977
g3
F-0.01724934024045551
sba(innWeight
NNWeight
p1978
(dp1979
g3
F-0.040064309961467745
sba(innWeight
NNWeight
p1980
(dp1981
g3
F0.03702363242712726
sba(innWeight
NNWeight
p1982
(dp1983
g3
F0.025431732197206777
sba(innWeight
NNWeight
p1984
(dp1985
g3
F-0.00884797915895334
sba(innWeight
NNWeight
p1986
(dp1987
g3
F-0.03499204826529453
sba(innWeight
NNWeight
p1988
(dp1989
g3
F0.013515803392408345
sba(innWeight
NNWeight
p1990
(dp1991
g3
F-0.016385635074303
sba(innWeight
NNWeight
p1992
(dp1993
g3
F0.01654698923801676
sba(innWeight
NNWeight
p1994
(dp1995
g3
F-0.01863850954911589
sba(innWeight
NNWeight
p1996
(dp1997
g3
F-0.016408147360329087
sba(innWeight
NNWeight
p1998
(dp1999
g3
F0.005101437510332076
sba(innWeight
NNWeight
p2000
(dp2001
g3
F0.03280688234031664
sba(innWeight
NNWeight
p2002
(dp2003
g3
F-0.04015258366489838
sba(innWeight
NNWeight
p2004
(dp2005
g3
F-0.016090521833711166
sba(innWeight
NNWeight
p2006
(dp2007
g3
F-0.013813176072965852
sba(innWeight
NNWeight
p2008
(dp2009
g3
F-0.04383751942416889
sba(innWeight
NNWeight
p2010
(dp2011
g3
F-0.033127735912048775
sba(innWeight
NNWeight
p2012
(dp2013
g3
F-0.014263901231976198
sba(innWeight
NNWeight
p2014
(dp2015
g3
F-0.04932171119509508
sba(innWeight
NNWeight
p2016
(dp2017
g3
F0.03978507241597913
sba(innWeight
NNWeight
p2018
(dp2019
g3
F0.026216002714299233
sba(innWeight
NNWeight
p2020
(dp2021
g3
F-0.018696001272173867
sba.