(lp0
(innWeight
NNWeight
p1
(dp2
S'val'
p3
F0.02625602994150726
sba(innWeight
NNWeight
p4
(dp5
g3
F0.03238053433913681
sba(innWeight
NNWeight
p6
(dp7
g3
F0.059958959726731466
sba(innWeight
NNWeight
p8
(dp9
g3
F-0.023512567322625817
sba(innWeight
NNWeight
p10
(dp11
g3
F0.05121237442232969
sba(innWeight
NNWeight
p12
(dp13
g3
F0.0534252271535145
sba(innWeight
NNWeight
p14
(dp15
g3
F0.04936716015702842
sba(innWeight
NNWeight
p16
(dp17
g3
F0.03915037242860553
sba(innWeight
NNWeight
p18
(dp19
g3
F-0.04789844510372024
sba(innWeight
NNWeight
p20
(dp21
g3
F-0.031865648878062716
sba(innWeight
NNWeight
p22
(dp23
g3
F0.058218665677170024
sba(innWeight
NNWeight
p24
(dp25
g3
F0.051709804214808495
sba(innWeight
NNWeight
p26
(dp27
g3
F-0.0476865634636305
sba(innWeight
NNWeight
p28
(dp29
g3
F-0.005791450300717193
sba(innWeight
NNWeight
p30
(dp31
g3
F0.037603150780912024
sba(innWeight
NNWeight
p32
(dp33
g3
F-0.031814326263018534
sba(innWeight
NNWeight
p34
(dp35
g3
F-0.00975260548973483
sba(innWeight
NNWeight
p36
(dp37
g3
F0.02034797318687379
sba(innWeight
NNWeight
p38
(dp39
g3
F-0.0016573154565048599
sba(innWeight
NNWeight
p40
(dp41
g3
F0.02629016805468509
sba(innWeight
NNWeight
p42
(dp43
g3
F0.04197185248102756
sba(innWeight
NNWeight
p44
(dp45
g3
F-0.03047532958142622
sba(innWeight
NNWeight
p46
(dp47
g3
F-0.04716218531540532
sba(innWeight
NNWeight
p48
(dp49
g3
F0.042506610585571314
sba(innWeight
NNWeight
p50
(dp51
g3
F0.06142707556144888
sba(innWeight
NNWeight
p52
(dp53
g3
F0.04825215077132354
sba(innWeight
NNWeight
p54
(dp55
g3
F0.002673254232467736
sba(innWeight
NNWeight
p56
(dp57
g3
F0.050642205957069385
sba(innWeight
NNWeight
p58
(dp59
g3
F-0.047193373654888245
sba(innWeight
NNWeight
p60
(dp61
g3
F0.052160010591156644
sba(innWeight
NNWeight
p62
(dp63
g3
F-0.014793996520097923
sba(innWeight
NNWeight
p64
(dp65
g3
F-0.05018166690816907
sba(innWeight
NNWeight
p66
(dp67
g3
F0.046476167907941165
sba(innWeight
NNWeight
p68
(dp69
g3
F-0.049009894970423
sba(innWeight
NNWeight
p70
(dp71
g3
F0.03388601596645341
sba(innWeight
NNWeight
p72
(dp73
g3
F-0.017485923189065843
sba(innWeight
NNWeight
p74
(dp75
g3
F0.008652720102260671
sba(innWeight
NNWeight
p76
(dp77
g3
F0.03803841134441776
sba(innWeight
NNWeight
p78
(dp79
g3
F0.030995538194919618
sba(innWeight
NNWeight
p80
(dp81
g3
F-0.005754426982050435
sba(innWeight
NNWeight
p82
(dp83
g3
F-0.03762608253526928
sba(innWeight
NNWeight
p84
(dp85
g3
F0.03273502726643791
sba(innWeight
NNWeight
p86
(dp87
g3
F0.01699080155334459
sba(innWeight
NNWeight
p88
(dp89
g3
F0.005158219030724773
sba(innWeight
NNWeight
p90
(dp91
g3
F-0.0148361908375692
sba(innWeight
NNWeight
p92
(dp93
g3
F0.031043011281947898
sba(innWeight
NNWeight
p94
(dp95
g3
F-0.025399253796663735
sba(innWeight
NNWeight
p96
(dp97
g3
F0.022681783188061196
sba(innWeight
NNWeight
p98
(dp99
g3
F0.04462098773409092
sba(innWeight
NNWeight
p100
(dp101
g3
F-0.03625764618987087
sba(innWeight
NNWeight
p102
(dp103
g3
F-0.004803727447082549
sba(innWeight
NNWeight
p104
(dp105
g3
F-0.032421198743302425
sba(innWeight
NNWeight
p106
(dp107
g3
F0.01473368415388671
sba(innWeight
NNWeight
p108
(dp109
g3
F0.006710583004724607
sba(innWeight
NNWeight
p110
(dp111
g3
F-0.0024929134967298676
sba(innWeight
NNWeight
p112
(dp113
g3
F-0.0020274333561875147
sba(innWeight
NNWeight
p114
(dp115
g3
F0.04907415429857346
sba(innWeight
NNWeight
p116
(dp117
g3
F0.02527726628408107
sba(innWeight
NNWeight
p118
(dp119
g3
F0.03128659542515885
sba(innWeight
NNWeight
p120
(dp121
g3
F-0.0199971716040572
sba(innWeight
NNWeight
p122
(dp123
g3
F-0.042853961642728346
sba(innWeight
NNWeight
p124
(dp125
g3
F-0.004130087381022405
sba(innWeight
NNWeight
p126
(dp127
g3
F0.029595549309159204
sba(innWeight
NNWeight
p128
(dp129
g3
F-0.0020633427808293557
sba(innWeight
NNWeight
p130
(dp131
g3
F0.016636587389090126
sba(innWeight
NNWeight
p132
(dp133
g3
F-0.04797780582169741
sba(innWeight
NNWeight
p134
(dp135
g3
F-0.03593133631898575
sba(innWeight
NNWeight
p136
(dp137
g3
F-0.023460181109719626
sba(innWeight
NNWeight
p138
(dp139
g3
F-0.04641376954891697
sba(innWeight
NNWeight
p140
(dp141
g3
F0.03275554487920927
sba(innWeight
NNWeight
p142
(dp143
g3
F0.02775484966526036
sba(innWeight
NNWeight
p144
(dp145
g3
F-0.003112022985387563
sba(innWeight
NNWeight
p146
(dp147
g3
F-0.02116551705712091
sba(innWeight
NNWeight
p148
(dp149
g3
F0.004678609069691522
sba(innWeight
NNWeight
p150
(dp151
g3
F0.023837621666046204
sba(innWeight
NNWeight
p152
(dp153
g3
F-0.017054998386679822
sba(innWeight
NNWeight
p154
(dp155
g3
F0.023113274373155312
sba(innWeight
NNWeight
p156
(dp157
g3
F-0.01772557484147537
sba(innWeight
NNWeight
p158
(dp159
g3
F0.013069181442084622
sba(innWeight
NNWeight
p160
(dp161
g3
F-0.038873843863618404
sba(innWeight
NNWeight
p162
(dp163
g3
F0.03243285168500655
sba(innWeight
NNWeight
p164
(dp165
g3
F-0.045284301911864396
sba(innWeight
NNWeight
p166
(dp167
g3
F0.014825865593655722
sba(innWeight
NNWeight
p168
(dp169
g3
F0.01167858800974668
sba(innWeight
NNWeight
p170
(dp171
g3
F-0.056151739739534794
sba(innWeight
NNWeight
p172
(dp173
g3
F-0.020348546448871394
sba(innWeight
NNWeight
p174
(dp175
g3
F0.017090886816303698
sba(innWeight
NNWeight
p176
(dp177
g3
F0.028619547783076515
sba(innWeight
NNWeight
p178
(dp179
g3
F0.012485663910809793
sba(innWeight
NNWeight
p180
(dp181
g3
F-0.01363479614720541
sba(innWeight
NNWeight
p182
(dp183
g3
F0.03287400902244622
sba(innWeight
NNWeight
p184
(dp185
g3
F0.0002478243285698872
sba(innWeight
NNWeight
p186
(dp187
g3
F-0.005347911415690243
sba(innWeight
NNWeight
p188
(dp189
g3
F0.042307938464959664
sba(innWeight
NNWeight
p190
(dp191
g3
F-0.007245507366406491
sba(innWeight
NNWeight
p192
(dp193
g3
F-0.028824251528127436
sba(innWeight
NNWeight
p194
(dp195
g3
F-0.030936268207575196
sba(innWeight
NNWeight
p196
(dp197
g3
F0.003920704528709831
sba(innWeight
NNWeight
p198
(dp199
g3
F0.044203357067975214
sba(innWeight
NNWeight
p200
(dp201
g3
F-0.018692588950660786
sba(innWeight
NNWeight
p202
(dp203
g3
F-0.03666206036299262
sba(innWeight
NNWeight
p204
(dp205
g3
F-0.012384587752294675
sba(innWeight
NNWeight
p206
(dp207
g3
F0.034472308746899515
sba(innWeight
NNWeight
p208
(dp209
g3
F0.032001330649005566
sba(innWeight
NNWeight
p210
(dp211
g3
F0.006931579256262503
sba(innWeight
NNWeight
p212
(dp213
g3
F0.023821146238639984
sba(innWeight
NNWeight
p214
(dp215
g3
F0.005544217995386793
sba(innWeight
NNWeight
p216
(dp217
g3
F0.002216121954514133
sba(innWeight
NNWeight
p218
(dp219
g3
F0.04645930597022141
sba(innWeight
NNWeight
p220
(dp221
g3
F-0.022475470113589604
sba(innWeight
NNWeight
p222
(dp223
g3
F-0.02750070982054407
sba(innWeight
NNWeight
p224
(dp225
g3
F0.013138612073710847
sba(innWeight
NNWeight
p226
(dp227
g3
F0.0031203289972820056
sba(innWeight
NNWeight
p228
(dp229
g3
F-0.05324475656881313
sba(innWeight
NNWeight
p230
(dp231
g3
F0.008606992920260322
sba(innWeight
NNWeight
p232
(dp233
g3
F-0.04788167723256033
sba(innWeight
NNWeight
p234
(dp235
g3
F0.003311212291970704
sba(innWeight
NNWeight
p236
(dp237
g3
F-0.014553174428394385
sba(innWeight
NNWeight
p238
(dp239
g3
F0.008568842794289216
sba(innWeight
NNWeight
p240
(dp241
g3
F-0.03516444285167082
sba(innWeight
NNWeight
p242
(dp243
g3
F-0.04404708810729924
sba(innWeight
NNWeight
p244
(dp245
g3
F-0.05299326685653758
sba(innWeight
NNWeight
p246
(dp247
g3
F0.03970097523325486
sba(innWeight
NNWeight
p248
(dp249
g3
F-0.051836464607860455
sba(innWeight
NNWeight
p250
(dp251
g3
F-0.030155270982941403
sba(innWeight
NNWeight
p252
(dp253
g3
F-0.025155928664749024
sba(innWeight
NNWeight
p254
(dp255
g3
F-0.017986556521850876
sba(innWeight
NNWeight
p256
(dp257
g3
F0.03323282302335719
sba(innWeight
NNWeight
p258
(dp259
g3
F-0.02749620444868206
sba(innWeight
NNWeight
p260
(dp261
g3
F-0.0341948994485553
sba(innWeight
NNWeight
p262
(dp263
g3
F0.011210664051793814
sba(innWeight
NNWeight
p264
(dp265
g3
F0.02656242070259716
sba(innWeight
NNWeight
p266
(dp267
g3
F-0.03983962067803721
sba(innWeight
NNWeight
p268
(dp269
g3
F0.014271677135978135
sba(innWeight
NNWeight
p270
(dp271
g3
F-0.04877491123109405
sba(innWeight
NNWeight
p272
(dp273
g3
F-0.04448480547803372
sba(innWeight
NNWeight
p274
(dp275
g3
F-0.005766916500105227
sba(innWeight
NNWeight
p276
(dp277
g3
F-0.014138101931850822
sba(innWeight
NNWeight
p278
(dp279
g3
F-0.05792768638283463
sba(innWeight
NNWeight
p280
(dp281
g3
F0.00598878672095864
sba(innWeight
NNWeight
p282
(dp283
g3
F0.04487842382358961
sba(innWeight
NNWeight
p284
(dp285
g3
F0.04787865493110343
sba(innWeight
NNWeight
p286
(dp287
g3
F-0.013438166766385809
sba(innWeight
NNWeight
p288
(dp289
g3
F-0.0008788900585322333
sba(innWeight
NNWeight
p290
(dp291
g3
F0.009538505395053192
sba(innWeight
NNWeight
p292
(dp293
g3
F-0.005720669378003399
sba(innWeight
NNWeight
p294
(dp295
g3
F0.015617366887947754
sba(innWeight
NNWeight
p296
(dp297
g3
F0.01840673844119806
sba(innWeight
NNWeight
p298
(dp299
g3
F0.04121314379006803
sba(innWeight
NNWeight
p300
(dp301
g3
F0.021428749286088816
sba(innWeight
NNWeight
p302
(dp303
g3
F-0.010081063536824557
sba(innWeight
NNWeight
p304
(dp305
g3
F0.0396942846829357
sba(innWeight
NNWeight
p306
(dp307
g3
F0.028342061953135808
sba(innWeight
NNWeight
p308
(dp309
g3
F-0.04833235319052524
sba(innWeight
NNWeight
p310
(dp311
g3
F0.031147257158874883
sba(innWeight
NNWeight
p312
(dp313
g3
F0.017308811408638755
sba(innWeight
NNWeight
p314
(dp315
g3
F0.009452584649353455
sba(innWeight
NNWeight
p316
(dp317
g3
F0.028425867536471233
sba(innWeight
NNWeight
p318
(dp319
g3
F-0.04160716064417944
sba(innWeight
NNWeight
p320
(dp321
g3
F-0.02183115942142586
sba(innWeight
NNWeight
p322
(dp323
g3
F-0.024778029179341184
sba(innWeight
NNWeight
p324
(dp325
g3
F-0.018733013216817206
sba(innWeight
NNWeight
p326
(dp327
g3
F0.010042777015130646
sba(innWeight
NNWeight
p328
(dp329
g3
F0.006504305292054428
sba(innWeight
NNWeight
p330
(dp331
g3
F0.05349407163279356
sba(innWeight
NNWeight
p332
(dp333
g3
F0.04029902381273187
sba(innWeight
NNWeight
p334
(dp335
g3
F-0.03598945868146856
sba(innWeight
NNWeight
p336
(dp337
g3
F-0.008320899294769089
sba(innWeight
NNWeight
p338
(dp339
g3
F0.020202885454346637
sba(innWeight
NNWeight
p340
(dp341
g3
F-0.0035165397845069207
sba(innWeight
NNWeight
p342
(dp343
g3
F-0.0011792573505534395
sba(innWeight
NNWeight
p344
(dp345
g3
F0.011222571790811708
sba(innWeight
NNWeight
p346
(dp347
g3
F0.03847891160995323
sba(innWeight
NNWeight
p348
(dp349
g3
F-0.01230318071542052
sba(innWeight
NNWeight
p350
(dp351
g3
F0.004259627699571439
sba(innWeight
NNWeight
p352
(dp353
g3
F0.03368597923059666
sba(innWeight
NNWeight
p354
(dp355
g3
F-0.010256438125804415
sba(innWeight
NNWeight
p356
(dp357
g3
F-0.0032826518799470286
sba(innWeight
NNWeight
p358
(dp359
g3
F-0.030008480203135922
sba(innWeight
NNWeight
p360
(dp361
g3
F0.033454726225850856
sba(innWeight
NNWeight
p362
(dp363
g3
F-0.027440486235238048
sba(innWeight
NNWeight
p364
(dp365
g3
F-0.010848289106764846
sba(innWeight
NNWeight
p366
(dp367
g3
F0.03680008503885478
sba(innWeight
NNWeight
p368
(dp369
g3
F-0.03026385017785825
sba(innWeight
NNWeight
p370
(dp371
g3
F0.010268914356701988
sba(innWeight
NNWeight
p372
(dp373
g3
F-0.014363214090990199
sba(innWeight
NNWeight
p374
(dp375
g3
F0.033517444372063096
sba(innWeight
NNWeight
p376
(dp377
g3
F-0.027282709801360078
sba(innWeight
NNWeight
p378
(dp379
g3
F0.029760957010325644
sba(innWeight
NNWeight
p380
(dp381
g3
F0.05287242774598891
sba(innWeight
NNWeight
p382
(dp383
g3
F0.02172278677003795
sba(innWeight
NNWeight
p384
(dp385
g3
F-0.0025801961834591523
sba(innWeight
NNWeight
p386
(dp387
g3
F-0.006634509096173693
sba(innWeight
NNWeight
p388
(dp389
g3
F-0.04762734669706988
sba(innWeight
NNWeight
p390
(dp391
g3
F-0.004403878737182302
sba(innWeight
NNWeight
p392
(dp393
g3
F0.02560373976805095
sba(innWeight
NNWeight
p394
(dp395
g3
F0.01569114610134996
sba(innWeight
NNWeight
p396
(dp397
g3
F-0.047833303906109854
sba(innWeight
NNWeight
p398
(dp399
g3
F-0.010389757193781742
sba(innWeight
NNWeight
p400
(dp401
g3
F0.011144751653378412
sba(innWeight
NNWeight
p402
(dp403
g3
F-0.01500216097974645
sba(innWeight
NNWeight
p404
(dp405
g3
F-0.027002937634106678
sba(innWeight
NNWeight
p406
(dp407
g3
F0.024387355250875296
sba(innWeight
NNWeight
p408
(dp409
g3
F0.02066979535480716
sba(innWeight
NNWeight
p410
(dp411
g3
F-0.028020590800697236
sba(innWeight
NNWeight
p412
(dp413
g3
F-0.03307705587753879
sba(innWeight
NNWeight
p414
(dp415
g3
F0.01742057420262827
sba(innWeight
NNWeight
p416
(dp417
g3
F-0.015926437417470646
sba(innWeight
NNWeight
p418
(dp419
g3
F0.02302235361034985
sba(innWeight
NNWeight
p420
(dp421
g3
F-0.004031890999026534
sba(innWeight
NNWeight
p422
(dp423
g3
F0.02492268188065805
sba(innWeight
NNWeight
p424
(dp425
g3
F-0.013872132213804941
sba(innWeight
NNWeight
p426
(dp427
g3
F-0.028122500636409812
sba(innWeight
NNWeight
p428
(dp429
g3
F-0.0037340354630029733
sba(innWeight
NNWeight
p430
(dp431
g3
F0.013759880109090789
sba(innWeight
NNWeight
p432
(dp433
g3
F0.006724429736486007
sba(innWeight
NNWeight
p434
(dp435
g3
F0.03771827152999075
sba(innWeight
NNWeight
p436
(dp437
g3
F-0.0015753272712854963
sba(innWeight
NNWeight
p438
(dp439
g3
F-0.04578668134067593
sba(innWeight
NNWeight
p440
(dp441
g3
F-0.022697845964898
sba(innWeight
NNWeight
p442
(dp443
g3
F-0.0005760679406541415
sba(innWeight
NNWeight
p444
(dp445
g3
F-0.04687787163218867
sba(innWeight
NNWeight
p446
(dp447
g3
F0.00500420810396344
sba(innWeight
NNWeight
p448
(dp449
g3
F-0.02236355907493669
sba(innWeight
NNWeight
p450
(dp451
g3
F0.012923182422278025
sba(innWeight
NNWeight
p452
(dp453
g3
F-0.004088808634505191
sba(innWeight
NNWeight
p454
(dp455
g3
F0.04736878246965543
sba(innWeight
NNWeight
p456
(dp457
g3
F0.047177846759840145
sba(innWeight
NNWeight
p458
(dp459
g3
F-0.033666772391605315
sba(innWeight
NNWeight
p460
(dp461
g3
F-0.046286848583050454
sba(innWeight
NNWeight
p462
(dp463
g3
F-0.001906025984154199
sba(innWeight
NNWeight
p464
(dp465
g3
F0.028627683083269583
sba(innWeight
NNWeight
p466
(dp467
g3
F-0.04557140881616404
sba(innWeight
NNWeight
p468
(dp469
g3
F-0.005302645508791914
sba(innWeight
NNWeight
p470
(dp471
g3
F0.02900632297578229
sba(innWeight
NNWeight
p472
(dp473
g3
F-0.017979625880615427
sba(innWeight
NNWeight
p474
(dp475
g3
F0.025644855498996907
sba(innWeight
NNWeight
p476
(dp477
g3
F0.05208035300977244
sba(innWeight
NNWeight
p478
(dp479
g3
F-0.007480855114669471
sba(innWeight
NNWeight
p480
(dp481
g3
F-0.02961945739773011
sba(innWeight
NNWeight
p482
(dp483
g3
F-0.0158522650178929
sba(innWeight
NNWeight
p484
(dp485
g3
F0.01445834534270137
sba(innWeight
NNWeight
p486
(dp487
g3
F0.04264265555794203
sba(innWeight
NNWeight
p488
(dp489
g3
F0.02935343161515641
sba(innWeight
NNWeight
p490
(dp491
g3
F-0.05081848628085445
sba(innWeight
NNWeight
p492
(dp493
g3
F0.014736083703023543
sba(innWeight
NNWeight
p494
(dp495
g3
F-0.019482415215160045
sba(innWeight
NNWeight
p496
(dp497
g3
F0.04617604592452581
sba(innWeight
NNWeight
p498
(dp499
g3
F-0.0470591155582558
sba(innWeight
NNWeight
p500
(dp501
g3
F-0.03187049086806178
sba(innWeight
NNWeight
p502
(dp503
g3
F-0.006162075274026078
sba(innWeight
NNWeight
p504
(dp505
g3
F0.020334440927665717
sba(innWeight
NNWeight
p506
(dp507
g3
F0.053699697916194125
sba(innWeight
NNWeight
p508
(dp509
g3
F-0.05005951342695197
sba(innWeight
NNWeight
p510
(dp511
g3
F-0.02719925097387322
sba(innWeight
NNWeight
p512
(dp513
g3
F0.026657400035771408
sba(innWeight
NNWeight
p514
(dp515
g3
F-0.017452547961075433
sba(innWeight
NNWeight
p516
(dp517
g3
F-0.01721328703405294
sba(innWeight
NNWeight
p518
(dp519
g3
F0.026609430238749978
sba(innWeight
NNWeight
p520
(dp521
g3
F-0.00012819147280909203
sba(innWeight
NNWeight
p522
(dp523
g3
F0.047165388726909833
sba(innWeight
NNWeight
p524
(dp525
g3
F0.04512968362175693
sba(innWeight
NNWeight
p526
(dp527
g3
F-0.028274025856346106
sba(innWeight
NNWeight
p528
(dp529
g3
F-0.01899460157217233
sba(innWeight
NNWeight
p530
(dp531
g3
F0.03744663756556329
sba(innWeight
NNWeight
p532
(dp533
g3
F0.04800817507393588
sba(innWeight
NNWeight
p534
(dp535
g3
F0.03826248700734825
sba(innWeight
NNWeight
p536
(dp537
g3
F-0.0356695962303439
sba(innWeight
NNWeight
p538
(dp539
g3
F0.0325722167071586
sba(innWeight
NNWeight
p540
(dp541
g3
F-0.04356989929031909
sba(innWeight
NNWeight
p542
(dp543
g3
F0.032390538418590874
sba(innWeight
NNWeight
p544
(dp545
g3
F-0.03465725149536782
sba(innWeight
NNWeight
p546
(dp547
g3
F-3.6687338180976694e-05
sba(innWeight
NNWeight
p548
(dp549
g3
F-0.01810993258850543
sba(innWeight
NNWeight
p550
(dp551
g3
F-0.03606112427507426
sba(innWeight
NNWeight
p552
(dp553
g3
F0.0238715143589462
sba(innWeight
NNWeight
p554
(dp555
g3
F-0.05142488709918377
sba(innWeight
NNWeight
p556
(dp557
g3
F0.042526518322878785
sba(innWeight
NNWeight
p558
(dp559
g3
F0.013120636511177702
sba(innWeight
NNWeight
p560
(dp561
g3
F0.030013569697313565
sba(innWeight
NNWeight
p562
(dp563
g3
F0.0005076516964115566
sba(innWeight
NNWeight
p564
(dp565
g3
F0.037702877715624514
sba(innWeight
NNWeight
p566
(dp567
g3
F-0.020964602908035892
sba(innWeight
NNWeight
p568
(dp569
g3
F0.022273837385045566
sba(innWeight
NNWeight
p570
(dp571
g3
F-0.018985726547654357
sba(innWeight
NNWeight
p572
(dp573
g3
F-0.02920766183170342
sba(innWeight
NNWeight
p574
(dp575
g3
F0.035782731172874775
sba(innWeight
NNWeight
p576
(dp577
g3
F-0.0346671165710275
sba(innWeight
NNWeight
p578
(dp579
g3
F0.005710747313952137
sba(innWeight
NNWeight
p580
(dp581
g3
F0.015229392214017272
sba(innWeight
NNWeight
p582
(dp583
g3
F0.05356172106164441
sba(innWeight
NNWeight
p584
(dp585
g3
F-0.005091657972036365
sba(innWeight
NNWeight
p586
(dp587
g3
F-0.025956202346193117
sba(innWeight
NNWeight
p588
(dp589
g3
F-0.03041736587816595
sba(innWeight
NNWeight
p590
(dp591
g3
F-0.006374084072557367
sba(innWeight
NNWeight
p592
(dp593
g3
F-0.040271147859650636
sba(innWeight
NNWeight
p594
(dp595
g3
F-0.019336208888028197
sba(innWeight
NNWeight
p596
(dp597
g3
F-0.03261749263318483
sba(innWeight
NNWeight
p598
(dp599
g3
F-0.002054642541620436
sba(innWeight
NNWeight
p600
(dp601
g3
F-0.025792717024126503
sba(innWeight
NNWeight
p602
(dp603
g3
F0.03463017626465546
sba(innWeight
NNWeight
p604
(dp605
g3
F-0.037026819477470795
sba(innWeight
NNWeight
p606
(dp607
g3
F-0.015487332357208264
sba(innWeight
NNWeight
p608
(dp609
g3
F-0.004412014372586215
sba(innWeight
NNWeight
p610
(dp611
g3
F-0.00977690000521238
sba(innWeight
NNWeight
p612
(dp613
g3
F0.0076455589408256225
sba(innWeight
NNWeight
p614
(dp615
g3
F-0.007471456351708532
sba(innWeight
NNWeight
p616
(dp617
g3
F0.02458993553907601
sba(innWeight
NNWeight
p618
(dp619
g3
F0.034465328442510795
sba(innWeight
NNWeight
p620
(dp621
g3
F-0.001395326663158855
sba(innWeight
NNWeight
p622
(dp623
g3
F0.007310123452852604
sba(innWeight
NNWeight
p624
(dp625
g3
F0.002553459852213242
sba(innWeight
NNWeight
p626
(dp627
g3
F0.024605333972665854
sba(innWeight
NNWeight
p628
(dp629
g3
F0.006169430533953674
sba(innWeight
NNWeight
p630
(dp631
g3
F0.03613641560523415
sba(innWeight
NNWeight
p632
(dp633
g3
F0.0389987353194305
sba(innWeight
NNWeight
p634
(dp635
g3
F0.032250098295912515
sba(innWeight
NNWeight
p636
(dp637
g3
F0.014904838520499408
sba(innWeight
NNWeight
p638
(dp639
g3
F-0.024211305203169636
sba(innWeight
NNWeight
p640
(dp641
g3
F0.03571779336567007
sba(innWeight
NNWeight
p642
(dp643
g3
F0.0020077306136025343
sba(innWeight
NNWeight
p644
(dp645
g3
F-0.033037656510707725
sba(innWeight
NNWeight
p646
(dp647
g3
F-0.028190585159770985
sba(innWeight
NNWeight
p648
(dp649
g3
F0.010743801112711206
sba(innWeight
NNWeight
p650
(dp651
g3
F0.02220741027165125
sba(innWeight
NNWeight
p652
(dp653
g3
F-0.005521974010573798
sba(innWeight
NNWeight
p654
(dp655
g3
F-0.012095846887122145
sba(innWeight
NNWeight
p656
(dp657
g3
F-0.02701452255764563
sba(innWeight
NNWeight
p658
(dp659
g3
F0.02220629879685018
sba(innWeight
NNWeight
p660
(dp661
g3
F0.010341660410692607
sba(innWeight
NNWeight
p662
(dp663
g3
F-0.011953438596031294
sba(innWeight
NNWeight
p664
(dp665
g3
F0.018816511167234977
sba(innWeight
NNWeight
p666
(dp667
g3
F-0.03688986572782139
sba(innWeight
NNWeight
p668
(dp669
g3
F-0.046145213278345705
sba(innWeight
NNWeight
p670
(dp671
g3
F-0.06359829876125506
sba(innWeight
NNWeight
p672
(dp673
g3
F-0.000675849218027357
sba(innWeight
NNWeight
p674
(dp675
g3
F0.0005183952213378836
sba(innWeight
NNWeight
p676
(dp677
g3
F0.015460293082810382
sba(innWeight
NNWeight
p678
(dp679
g3
F-0.0004364548443960667
sba(innWeight
NNWeight
p680
(dp681
g3
F-0.0028203053666365652
sba(innWeight
NNWeight
p682
(dp683
g3
F-0.04888108081356126
sba(innWeight
NNWeight
p684
(dp685
g3
F-0.038738125189487146
sba(innWeight
NNWeight
p686
(dp687
g3
F-0.009536814989953811
sba(innWeight
NNWeight
p688
(dp689
g3
F-0.018160390823058224
sba(innWeight
NNWeight
p690
(dp691
g3
F0.018872425188692796
sba(innWeight
NNWeight
p692
(dp693
g3
F0.01832034093868206
sba(innWeight
NNWeight
p694
(dp695
g3
F0.04791546291479809
sba(innWeight
NNWeight
p696
(dp697
g3
F0.04985523288336674
sba(innWeight
NNWeight
p698
(dp699
g3
F0.01101175353345094
sba(innWeight
NNWeight
p700
(dp701
g3
F-0.010125541126292293
sba(innWeight
NNWeight
p702
(dp703
g3
F-0.03381040499278316
sba(innWeight
NNWeight
p704
(dp705
g3
F0.001885766968311275
sba(innWeight
NNWeight
p706
(dp707
g3
F-0.03586140899453869
sba(innWeight
NNWeight
p708
(dp709
g3
F0.026496732177478728
sba(innWeight
NNWeight
p710
(dp711
g3
F-0.031141616018852243
sba(innWeight
NNWeight
p712
(dp713
g3
F0.049491141105908146
sba(innWeight
NNWeight
p714
(dp715
g3
F-0.039341271657556715
sba(innWeight
NNWeight
p716
(dp717
g3
F0.029591986434181518
sba(innWeight
NNWeight
p718
(dp719
g3
F0.017011499433253714
sba(innWeight
NNWeight
p720
(dp721
g3
F0.05101674621665069
sba(innWeight
NNWeight
p722
(dp723
g3
F0.0324967604339151
sba(innWeight
NNWeight
p724
(dp725
g3
F0.002015969822296217
sba(innWeight
NNWeight
p726
(dp727
g3
F0.012555827618292827
sba(innWeight
NNWeight
p728
(dp729
g3
F-0.02593180528096357
sba(innWeight
NNWeight
p730
(dp731
g3
F-0.05848500855076466
sba(innWeight
NNWeight
p732
(dp733
g3
F-0.016911356608226846
sba(innWeight
NNWeight
p734
(dp735
g3
F-0.03147955109385436
sba(innWeight
NNWeight
p736
(dp737
g3
F-0.007776880859307439
sba(innWeight
NNWeight
p738
(dp739
g3
F-0.03326921263010578
sba(innWeight
NNWeight
p740
(dp741
g3
F-0.0031418470359400566
sba(innWeight
NNWeight
p742
(dp743
g3
F-0.0250711913244691
sba(innWeight
NNWeight
p744
(dp745
g3
F0.0012375566503764054
sba(innWeight
NNWeight
p746
(dp747
g3
F-0.03934124281343999
sba(innWeight
NNWeight
p748
(dp749
g3
F0.030242546059042478
sba(innWeight
NNWeight
p750
(dp751
g3
F0.011745997253142034
sba(innWeight
NNWeight
p752
(dp753
g3
F0.03989021074506016
sba(innWeight
NNWeight
p754
(dp755
g3
F-0.06309956147913331
sba(innWeight
NNWeight
p756
(dp757
g3
F0.03280328144850447
sba(innWeight
NNWeight
p758
(dp759
g3
F-0.004060544644351145
sba(innWeight
NNWeight
p760
(dp761
g3
F0.013338802713229615
sba(innWeight
NNWeight
p762
(dp763
g3
F-0.004595817118792954
sba(innWeight
NNWeight
p764
(dp765
g3
F0.00036141517039917103
sba(innWeight
NNWeight
p766
(dp767
g3
F0.03184285885821465
sba(innWeight
NNWeight
p768
(dp769
g3
F0.004853205520251146
sba(innWeight
NNWeight
p770
(dp771
g3
F-0.03159760367926226
sba(innWeight
NNWeight
p772
(dp773
g3
F-0.029951449301236183
sba(innWeight
NNWeight
p774
(dp775
g3
F0.023897314518524528
sba(innWeight
NNWeight
p776
(dp777
g3
F0.003297002225479165
sba(innWeight
NNWeight
p778
(dp779
g3
F-0.05565599933029109
sba(innWeight
NNWeight
p780
(dp781
g3
F0.014065873897679463
sba(innWeight
NNWeight
p782
(dp783
g3
F-0.007942518283846418
sba(innWeight
NNWeight
p784
(dp785
g3
F0.05828417488169762
sba(innWeight
NNWeight
p786
(dp787
g3
F0.04121683047118318
sba(innWeight
NNWeight
p788
(dp789
g3
F0.0153825108422058
sba(innWeight
NNWeight
p790
(dp791
g3
F-0.01029998247131143
sba(innWeight
NNWeight
p792
(dp793
g3
F-0.038259006607848346
sba(innWeight
NNWeight
p794
(dp795
g3
F-0.02239836625979343
sba(innWeight
NNWeight
p796
(dp797
g3
F-0.03915801744306378
sba(innWeight
NNWeight
p798
(dp799
g3
F0.042171581478044735
sba(innWeight
NNWeight
p800
(dp801
g3
F-0.0035037536274403775
sba(innWeight
NNWeight
p802
(dp803
g3
F-0.04356113414309191
sba(innWeight
NNWeight
p804
(dp805
g3
F0.05016938438137779
sba(innWeight
NNWeight
p806
(dp807
g3
F-0.05084199817880588
sba(innWeight
NNWeight
p808
(dp809
g3
F-0.008286748237733255
sba(innWeight
NNWeight
p810
(dp811
g3
F0.02640291623991423
sba(innWeight
NNWeight
p812
(dp813
g3
F0.009702334229579227
sba(innWeight
NNWeight
p814
(dp815
g3
F0.015533316982748261
sba(innWeight
NNWeight
p816
(dp817
g3
F-0.03589423924944801
sba(innWeight
NNWeight
p818
(dp819
g3
F0.05220221177941716
sba(innWeight
NNWeight
p820
(dp821
g3
F0.029684581120795257
sba(innWeight
NNWeight
p822
(dp823
g3
F0.04496368614946233
sba(innWeight
NNWeight
p824
(dp825
g3
F-0.033304840658276436
sba(innWeight
NNWeight
p826
(dp827
g3
F0.04657844257067124
sba(innWeight
NNWeight
p828
(dp829
g3
F-0.021930667386279912
sba(innWeight
NNWeight
p830
(dp831
g3
F-0.0032275455576768457
sba(innWeight
NNWeight
p832
(dp833
g3
F-0.026691991492815134
sba(innWeight
NNWeight
p834
(dp835
g3
F0.002169982081224218
sba(innWeight
NNWeight
p836
(dp837
g3
F0.0063670996269695026
sba(innWeight
NNWeight
p838
(dp839
g3
F-0.04162203548859185
sba(innWeight
NNWeight
p840
(dp841
g3
F0.03007587120048809
sba(innWeight
NNWeight
p842
(dp843
g3
F-0.018022298800045685
sba(innWeight
NNWeight
p844
(dp845
g3
F0.03480306644814213
sba(innWeight
NNWeight
p846
(dp847
g3
F0.04529247801719639
sba(innWeight
NNWeight
p848
(dp849
g3
F-0.035398984880529005
sba(innWeight
NNWeight
p850
(dp851
g3
F0.03672430017334878
sba(innWeight
NNWeight
p852
(dp853
g3
F0.04478759431304392
sba(innWeight
NNWeight
p854
(dp855
g3
F-0.0408143783600766
sba(innWeight
NNWeight
p856
(dp857
g3
F-0.012960785850338698
sba(innWeight
NNWeight
p858
(dp859
g3
F0.007757127834878425
sba(innWeight
NNWeight
p860
(dp861
g3
F0.011440149380200777
sba(innWeight
NNWeight
p862
(dp863
g3
F0.035853717692850604
sba(innWeight
NNWeight
p864
(dp865
g3
F-0.006474873538213398
sba(innWeight
NNWeight
p866
(dp867
g3
F0.03784364087614642
sba(innWeight
NNWeight
p868
(dp869
g3
F-0.026437395870260234
sba(innWeight
NNWeight
p870
(dp871
g3
F0.011825539210627747
sba(innWeight
NNWeight
p872
(dp873
g3
F0.0002488647020231462
sba(innWeight
NNWeight
p874
(dp875
g3
F0.0226540014653006
sba(innWeight
NNWeight
p876
(dp877
g3
F0.013260430593810936
sba(innWeight
NNWeight
p878
(dp879
g3
F-0.017688522288682118
sba(innWeight
NNWeight
p880
(dp881
g3
F0.0462154330757437
sba(innWeight
NNWeight
p882
(dp883
g3
F0.028843518169063307
sba(innWeight
NNWeight
p884
(dp885
g3
F-0.016222672305546304
sba(innWeight
NNWeight
p886
(dp887
g3
F-0.010537277698201133
sba(innWeight
NNWeight
p888
(dp889
g3
F0.018759525982735635
sba(innWeight
NNWeight
p890
(dp891
g3
F-0.024195740858665635
sba(innWeight
NNWeight
p892
(dp893
g3
F0.030694984096771936
sba(innWeight
NNWeight
p894
(dp895
g3
F-0.009389747028647137
sba(innWeight
NNWeight
p896
(dp897
g3
F0.04465885951838987
sba(innWeight
NNWeight
p898
(dp899
g3
F0.0003333741442997209
sba(innWeight
NNWeight
p900
(dp901
g3
F-0.0036420964438765874
sba(innWeight
NNWeight
p902
(dp903
g3
F0.02140802498528199
sba(innWeight
NNWeight
p904
(dp905
g3
F0.0013833113370410295
sba(innWeight
NNWeight
p906
(dp907
g3
F0.04009808616835683
sba(innWeight
NNWeight
p908
(dp909
g3
F0.03790550900062651
sba(innWeight
NNWeight
p910
(dp911
g3
F0.03570504787779613
sba(innWeight
NNWeight
p912
(dp913
g3
F0.00552374635921377
sba(innWeight
NNWeight
p914
(dp915
g3
F0.03748095887356732
sba(innWeight
NNWeight
p916
(dp917
g3
F0.020085049890876065
sba(innWeight
NNWeight
p918
(dp919
g3
F0.0487506701085903
sba(innWeight
NNWeight
p920
(dp921
g3
F-0.0013697642521144245
sba(innWeight
NNWeight
p922
(dp923
g3
F0.006513721619647619
sba(innWeight
NNWeight
p924
(dp925
g3
F-0.005961389493958671
sba(innWeight
NNWeight
p926
(dp927
g3
F0.06433876927406212
sba(innWeight
NNWeight
p928
(dp929
g3
F0.02668001446267302
sba(innWeight
NNWeight
p930
(dp931
g3
F-0.03277050066840072
sba(innWeight
NNWeight
p932
(dp933
g3
F-0.03250750265874513
sba(innWeight
NNWeight
p934
(dp935
g3
F0.03193181242624061
sba(innWeight
NNWeight
p936
(dp937
g3
F0.03688332400102088
sba(innWeight
NNWeight
p938
(dp939
g3
F-0.03478153700444576
sba(innWeight
NNWeight
p940
(dp941
g3
F-0.050131833966634676
sba(innWeight
NNWeight
p942
(dp943
g3
F-0.01265660303766311
sba(innWeight
NNWeight
p944
(dp945
g3
F-0.0072741158342509386
sba(innWeight
NNWeight
p946
(dp947
g3
F-0.03536283973690326
sba(innWeight
NNWeight
p948
(dp949
g3
F-0.02846771847838938
sba(innWeight
NNWeight
p950
(dp951
g3
F0.043986484044592405
sba(innWeight
NNWeight
p952
(dp953
g3
F-0.01307214109383415
sba(innWeight
NNWeight
p954
(dp955
g3
F-0.03573566197481194
sba(innWeight
NNWeight
p956
(dp957
g3
F-0.05791622350948681
sba(innWeight
NNWeight
p958
(dp959
g3
F-0.037941443683810784
sba(innWeight
NNWeight
p960
(dp961
g3
F0.009458839914111132
sba(innWeight
NNWeight
p962
(dp963
g3
F0.008087179521048446
sba(innWeight
NNWeight
p964
(dp965
g3
F0.04929657601716356
sba(innWeight
NNWeight
p966
(dp967
g3
F-0.03874059825711911
sba(innWeight
NNWeight
p968
(dp969
g3
F-0.03311939063495736
sba(innWeight
NNWeight
p970
(dp971
g3
F-0.017576761702848956
sba(innWeight
NNWeight
p972
(dp973
g3
F0.004474243639286852
sba(innWeight
NNWeight
p974
(dp975
g3
F0.0034845218378927196
sba(innWeight
NNWeight
p976
(dp977
g3
F0.006475913242574499
sba(innWeight
NNWeight
p978
(dp979
g3
F-0.00011531458646303172
sba(innWeight
NNWeight
p980
(dp981
g3
F0.030035800858400175
sba(innWeight
NNWeight
p982
(dp983
g3
F-0.04484768342717759
sba(innWeight
NNWeight
p984
(dp985
g3
F0.002929513909585831
sba(innWeight
NNWeight
p986
(dp987
g3
F-0.02182780904376187
sba(innWeight
NNWeight
p988
(dp989
g3
F-0.006898259838034372
sba(innWeight
NNWeight
p990
(dp991
g3
F0.033244176907576604
sba(innWeight
NNWeight
p992
(dp993
g3
F0.04273269804060052
sba(innWeight
NNWeight
p994
(dp995
g3
F-0.024702112806801176
sba(innWeight
NNWeight
p996
(dp997
g3
F0.02726458793215496
sba(innWeight
NNWeight
p998
(dp999
g3
F0.014368531503253035
sba(innWeight
NNWeight
p1000
(dp1001
g3
F-0.021796994663384365
sba(innWeight
NNWeight
p1002
(dp1003
g3
F-0.04772810304756156
sba(innWeight
NNWeight
p1004
(dp1005
g3
F-0.002261390152197398
sba(innWeight
NNWeight
p1006
(dp1007
g3
F0.015064148704928792
sba(innWeight
NNWeight
p1008
(dp1009
g3
F-0.019716850085702675
sba(innWeight
NNWeight
p1010
(dp1011
g3
F-0.03227714985632554
sba(innWeight
NNWeight
p1012
(dp1013
g3
F-0.05261353718314393
sba(innWeight
NNWeight
p1014
(dp1015
g3
F-0.035901177702651096
sba(innWeight
NNWeight
p1016
(dp1017
g3
F0.0011336079563408086
sba(innWeight
NNWeight
p1018
(dp1019
g3
F-0.026134771014619883
sba(innWeight
NNWeight
p1020
(dp1021
g3
F-0.018073123107063698
sba(innWeight
NNWeight
p1022
(dp1023
g3
F-0.016529582568486932
sba(innWeight
NNWeight
p1024
(dp1025
g3
F0.01301237060710437
sba(innWeight
NNWeight
p1026
(dp1027
g3
F0.012086839031612217
sba(innWeight
NNWeight
p1028
(dp1029
g3
F-0.013933810092211927
sba(innWeight
NNWeight
p1030
(dp1031
g3
F-0.03569208824500062
sba(innWeight
NNWeight
p1032
(dp1033
g3
F-0.011810069258002183
sba(innWeight
NNWeight
p1034
(dp1035
g3
F0.013015613542745727
sba(innWeight
NNWeight
p1036
(dp1037
g3
F0.03208602413087952
sba(innWeight
NNWeight
p1038
(dp1039
g3
F-0.035727796147706624
sba(innWeight
NNWeight
p1040
(dp1041
g3
F-0.046092537832058904
sba(innWeight
NNWeight
p1042
(dp1043
g3
F-0.0035983868572237237
sba(innWeight
NNWeight
p1044
(dp1045
g3
F0.00041762745419514287
sba(innWeight
NNWeight
p1046
(dp1047
g3
F0.019504319295517155
sba(innWeight
NNWeight
p1048
(dp1049
g3
F-0.014468739757878202
sba(innWeight
NNWeight
p1050
(dp1051
g3
F-0.0628764583971876
sba(innWeight
NNWeight
p1052
(dp1053
g3
F0.04700770055524466
sba(innWeight
NNWeight
p1054
(dp1055
g3
F-0.014232035210908557
sba(innWeight
NNWeight
p1056
(dp1057
g3
F-0.013157987182343017
sba(innWeight
NNWeight
p1058
(dp1059
g3
F-0.007495550837869948
sba(innWeight
NNWeight
p1060
(dp1061
g3
F0.05669544252477172
sba(innWeight
NNWeight
p1062
(dp1063
g3
F0.016209663473207653
sba(innWeight
NNWeight
p1064
(dp1065
g3
F0.0232103040358606
sba(innWeight
NNWeight
p1066
(dp1067
g3
F-0.024463369717390108
sba(innWeight
NNWeight
p1068
(dp1069
g3
F0.03142977904737321
sba(innWeight
NNWeight
p1070
(dp1071
g3
F-0.03656670313961262
sba(innWeight
NNWeight
p1072
(dp1073
g3
F-0.03843952243740522
sba(innWeight
NNWeight
p1074
(dp1075
g3
F-0.05759917728125233
sba(innWeight
NNWeight
p1076
(dp1077
g3
F-0.021508749367377573
sba(innWeight
NNWeight
p1078
(dp1079
g3
F0.023015090165646453
sba(innWeight
NNWeight
p1080
(dp1081
g3
F-0.04464592315259346
sba(innWeight
NNWeight
p1082
(dp1083
g3
F0.04768897429192821
sba(innWeight
NNWeight
p1084
(dp1085
g3
F-0.016183116591867556
sba(innWeight
NNWeight
p1086
(dp1087
g3
F-0.01141030463395646
sba(innWeight
NNWeight
p1088
(dp1089
g3
F-0.02353263528154893
sba(innWeight
NNWeight
p1090
(dp1091
g3
F0.00244955333569342
sba(innWeight
NNWeight
p1092
(dp1093
g3
F-0.03565521612603236
sba(innWeight
NNWeight
p1094
(dp1095
g3
F0.008613665936774912
sba(innWeight
NNWeight
p1096
(dp1097
g3
F-0.04600651104527489
sba(innWeight
NNWeight
p1098
(dp1099
g3
F0.038629654111020095
sba(innWeight
NNWeight
p1100
(dp1101
g3
F-0.007809474518842105
sba(innWeight
NNWeight
p1102
(dp1103
g3
F0.01086248139512872
sba(innWeight
NNWeight
p1104
(dp1105
g3
F0.007656418506280404
sba(innWeight
NNWeight
p1106
(dp1107
g3
F-0.03670652052491986
sba(innWeight
NNWeight
p1108
(dp1109
g3
F-0.021011428609809625
sba(innWeight
NNWeight
p1110
(dp1111
g3
F0.02687356225895906
sba(innWeight
NNWeight
p1112
(dp1113
g3
F0.04127544776030691
sba(innWeight
NNWeight
p1114
(dp1115
g3
F0.011174875343638827
sba(innWeight
NNWeight
p1116
(dp1117
g3
F-0.049770313023275135
sba(innWeight
NNWeight
p1118
(dp1119
g3
F-0.04385470078993122
sba(innWeight
NNWeight
p1120
(dp1121
g3
F-0.043723736314841395
sba(innWeight
NNWeight
p1122
(dp1123
g3
F-0.03008213858450078
sba(innWeight
NNWeight
p1124
(dp1125
g3
F0.02845340194966487
sba(innWeight
NNWeight
p1126
(dp1127
g3
F-0.02509889932729876
sba(innWeight
NNWeight
p1128
(dp1129
g3
F0.033156233811684616
sba(innWeight
NNWeight
p1130
(dp1131
g3
F-0.013407004484070065
sba(innWeight
NNWeight
p1132
(dp1133
g3
F-0.03930533561949085
sba(innWeight
NNWeight
p1134
(dp1135
g3
F0.014057377037839547
sba(innWeight
NNWeight
p1136
(dp1137
g3
F-0.038172859218046994
sba(innWeight
NNWeight
p1138
(dp1139
g3
F-0.005926247843122754
sba(innWeight
NNWeight
p1140
(dp1141
g3
F-0.0414120804446386
sba(innWeight
NNWeight
p1142
(dp1143
g3
F0.0008528779693954121
sba(innWeight
NNWeight
p1144
(dp1145
g3
F0.03995969555938846
sba(innWeight
NNWeight
p1146
(dp1147
g3
F-0.001816748517356204
sba(innWeight
NNWeight
p1148
(dp1149
g3
F-0.019619637721302666
sba(innWeight
NNWeight
p1150
(dp1151
g3
F0.03374698372045284
sba(innWeight
NNWeight
p1152
(dp1153
g3
F0.03147310057055427
sba(innWeight
NNWeight
p1154
(dp1155
g3
F-0.0423578836390254
sba(innWeight
NNWeight
p1156
(dp1157
g3
F0.04535220475157625
sba(innWeight
NNWeight
p1158
(dp1159
g3
F-0.04611494101768237
sba(innWeight
NNWeight
p1160
(dp1161
g3
F-0.04058630179636041
sba(innWeight
NNWeight
p1162
(dp1163
g3
F0.0007878295622447091
sba(innWeight
NNWeight
p1164
(dp1165
g3
F-0.03685684605666598
sba(innWeight
NNWeight
p1166
(dp1167
g3
F-0.030266724486792858
sba(innWeight
NNWeight
p1168
(dp1169
g3
F-0.01695390967863872
sba(innWeight
NNWeight
p1170
(dp1171
g3
F-0.03553840868832402
sba(innWeight
NNWeight
p1172
(dp1173
g3
F0.044245581346183845
sba(innWeight
NNWeight
p1174
(dp1175
g3
F0.0026892793125882406
sba(innWeight
NNWeight
p1176
(dp1177
g3
F-0.04473078568524682
sba(innWeight
NNWeight
p1178
(dp1179
g3
F-0.03903562574582004
sba(innWeight
NNWeight
p1180
(dp1181
g3
F-0.05671893398029644
sba(innWeight
NNWeight
p1182
(dp1183
g3
F-0.005067208203914731
sba(innWeight
NNWeight
p1184
(dp1185
g3
F-0.007748577733572652
sba(innWeight
NNWeight
p1186
(dp1187
g3
F0.0387742456495609
sba(innWeight
NNWeight
p1188
(dp1189
g3
F-0.017476437668970182
sba(innWeight
NNWeight
p1190
(dp1191
g3
F0.03535491688002832
sba(innWeight
NNWeight
p1192
(dp1193
g3
F-0.049772182496509915
sba(innWeight
NNWeight
p1194
(dp1195
g3
F0.004816130710463264
sba(innWeight
NNWeight
p1196
(dp1197
g3
F-0.010345648244714139
sba(innWeight
NNWeight
p1198
(dp1199
g3
F-0.04455322367727799
sba(innWeight
NNWeight
p1200
(dp1201
g3
F-0.011380751331350887
sba(innWeight
NNWeight
p1202
(dp1203
g3
F-0.03537602799417862
sba(innWeight
NNWeight
p1204
(dp1205
g3
F0.015173773521379205
sba(innWeight
NNWeight
p1206
(dp1207
g3
F-0.01375132880622108
sba(innWeight
NNWeight
p1208
(dp1209
g3
F0.020463545902017974
sba(innWeight
NNWeight
p1210
(dp1211
g3
F0.014031852606891933
sba(innWeight
NNWeight
p1212
(dp1213
g3
F0.03691997163804521
sba(innWeight
NNWeight
p1214
(dp1215
g3
F-0.051389704256889775
sba(innWeight
NNWeight
p1216
(dp1217
g3
F-0.009946052014515382
sba(innWeight
NNWeight
p1218
(dp1219
g3
F0.002115009713321515
sba(innWeight
NNWeight
p1220
(dp1221
g3
F-0.009402564441542862
sba(innWeight
NNWeight
p1222
(dp1223
g3
F0.056920706730919646
sba(innWeight
NNWeight
p1224
(dp1225
g3
F-0.01563526904822426
sba(innWeight
NNWeight
p1226
(dp1227
g3
F-0.02051616686078201
sba(innWeight
NNWeight
p1228
(dp1229
g3
F-0.03982747940741939
sba(innWeight
NNWeight
p1230
(dp1231
g3
F-0.03674760200696312
sba(innWeight
NNWeight
p1232
(dp1233
g3
F0.012535243341738396
sba(innWeight
NNWeight
p1234
(dp1235
g3
F0.04360820993709575
sba(innWeight
NNWeight
p1236
(dp1237
g3
F0.009370263828698211
sba(innWeight
NNWeight
p1238
(dp1239
g3
F-0.00750761337087736
sba(innWeight
NNWeight
p1240
(dp1241
g3
F-0.003734045362241199
sba(innWeight
NNWeight
p1242
(dp1243
g3
F0.02488371050037662
sba(innWeight
NNWeight
p1244
(dp1245
g3
F0.0016927672585231833
sba(innWeight
NNWeight
p1246
(dp1247
g3
F0.010687837066700923
sba(innWeight
NNWeight
p1248
(dp1249
g3
F-0.051213171974511945
sba(innWeight
NNWeight
p1250
(dp1251
g3
F-0.04951755112566778
sba(innWeight
NNWeight
p1252
(dp1253
g3
F0.00918430667082121
sba(innWeight
NNWeight
p1254
(dp1255
g3
F-0.0125302152122065
sba(innWeight
NNWeight
p1256
(dp1257
g3
F0.018107812054575248
sba(innWeight
NNWeight
p1258
(dp1259
g3
F-0.04586965742702923
sba(innWeight
NNWeight
p1260
(dp1261
g3
F0.016422001831927546
sba(innWeight
NNWeight
p1262
(dp1263
g3
F-0.005314228491012553
sba(innWeight
NNWeight
p1264
(dp1265
g3
F-0.01886627474616527
sba(innWeight
NNWeight
p1266
(dp1267
g3
F0.0066410017194154436
sba(innWeight
NNWeight
p1268
(dp1269
g3
F0.01703202339708309
sba(innWeight
NNWeight
p1270
(dp1271
g3
F-0.0356003125933701
sba(innWeight
NNWeight
p1272
(dp1273
g3
F0.008038703611751354
sba(innWeight
NNWeight
p1274
(dp1275
g3
F-0.01491649202382233
sba(innWeight
NNWeight
p1276
(dp1277
g3
F-0.02801525112164386
sba(innWeight
NNWeight
p1278
(dp1279
g3
F0.013464761408734078
sba(innWeight
NNWeight
p1280
(dp1281
g3
F0.03660014390994571
sba(innWeight
NNWeight
p1282
(dp1283
g3
F0.044311842538365065
sba(innWeight
NNWeight
p1284
(dp1285
g3
F0.05045934015993749
sba(innWeight
NNWeight
p1286
(dp1287
g3
F0.003071331034750726
sba(innWeight
NNWeight
p1288
(dp1289
g3
F-0.04512781473311228
sba(innWeight
NNWeight
p1290
(dp1291
g3
F0.04896803296122702
sba(innWeight
NNWeight
p1292
(dp1293
g3
F0.04854005422837502
sba(innWeight
NNWeight
p1294
(dp1295
g3
F0.009328056560395362
sba(innWeight
NNWeight
p1296
(dp1297
g3
F0.011124439324741602
sba(innWeight
NNWeight
p1298
(dp1299
g3
F-0.004835928310573187
sba(innWeight
NNWeight
p1300
(dp1301
g3
F-0.006867503252352793
sba(innWeight
NNWeight
p1302
(dp1303
g3
F-0.02710065728939609
sba(innWeight
NNWeight
p1304
(dp1305
g3
F0.017173325403780925
sba(innWeight
NNWeight
p1306
(dp1307
g3
F0.04335504727732475
sba(innWeight
NNWeight
p1308
(dp1309
g3
F-0.028137171877531324
sba(innWeight
NNWeight
p1310
(dp1311
g3
F-0.007949181543996342
sba(innWeight
NNWeight
p1312
(dp1313
g3
F0.013241890854480694
sba(innWeight
NNWeight
p1314
(dp1315
g3
F0.000695177307308327
sba(innWeight
NNWeight
p1316
(dp1317
g3
F-0.015338797035828378
sba(innWeight
NNWeight
p1318
(dp1319
g3
F0.030504996375730464
sba(innWeight
NNWeight
p1320
(dp1321
g3
F0.0056935716614705595
sba(innWeight
NNWeight
p1322
(dp1323
g3
F-0.04263312994876331
sba(innWeight
NNWeight
p1324
(dp1325
g3
F-0.055508394578383385
sba(innWeight
NNWeight
p1326
(dp1327
g3
F-0.035489093615155294
sba(innWeight
NNWeight
p1328
(dp1329
g3
F0.03803141898729494
sba(innWeight
NNWeight
p1330
(dp1331
g3
F0.008320436865125763
sba(innWeight
NNWeight
p1332
(dp1333
g3
F-0.03545961033173403
sba(innWeight
NNWeight
p1334
(dp1335
g3
F-0.05597429370868401
sba(innWeight
NNWeight
p1336
(dp1337
g3
F-0.041618956231503225
sba(innWeight
NNWeight
p1338
(dp1339
g3
F0.05359556612181808
sba(innWeight
NNWeight
p1340
(dp1341
g3
F0.0023448962493783604
sba(innWeight
NNWeight
p1342
(dp1343
g3
F-0.04277507348205907
sba(innWeight
NNWeight
p1344
(dp1345
g3
F0.0010947702545211716
sba(innWeight
NNWeight
p1346
(dp1347
g3
F-0.007254814498486112
sba(innWeight
NNWeight
p1348
(dp1349
g3
F-0.03598477192389027
sba(innWeight
NNWeight
p1350
(dp1351
g3
F-0.017972114139482496
sba(innWeight
NNWeight
p1352
(dp1353
g3
F0.04341101629179149
sba(innWeight
NNWeight
p1354
(dp1355
g3
F0.056668413696916796
sba(innWeight
NNWeight
p1356
(dp1357
g3
F0.02027447983668804
sba(innWeight
NNWeight
p1358
(dp1359
g3
F0.01977026773347382
sba(innWeight
NNWeight
p1360
(dp1361
g3
F0.03177927123453036
sba(innWeight
NNWeight
p1362
(dp1363
g3
F0.04079048430418959
sba(innWeight
NNWeight
p1364
(dp1365
g3
F0.014432623900948745
sba(innWeight
NNWeight
p1366
(dp1367
g3
F0.0004264067521572681
sba(innWeight
NNWeight
p1368
(dp1369
g3
F0.01862906032318489
sba(innWeight
NNWeight
p1370
(dp1371
g3
F0.007650499894378034
sba(innWeight
NNWeight
p1372
(dp1373
g3
F0.009473632554791236
sba(innWeight
NNWeight
p1374
(dp1375
g3
F-0.03531250494766783
sba(innWeight
NNWeight
p1376
(dp1377
g3
F-0.034193565756446956
sba(innWeight
NNWeight
p1378
(dp1379
g3
F-0.05529931920919254
sba(innWeight
NNWeight
p1380
(dp1381
g3
F-0.008596900814157577
sba(innWeight
NNWeight
p1382
(dp1383
g3
F0.024236094918403967
sba(innWeight
NNWeight
p1384
(dp1385
g3
F0.03145563926738565
sba(innWeight
NNWeight
p1386
(dp1387
g3
F-0.006853682083513642
sba(innWeight
NNWeight
p1388
(dp1389
g3
F-0.014861465455326257
sba(innWeight
NNWeight
p1390
(dp1391
g3
F0.03014578501799011
sba(innWeight
NNWeight
p1392
(dp1393
g3
F0.024165388900516803
sba(innWeight
NNWeight
p1394
(dp1395
g3
F0.020599748002903633
sba(innWeight
NNWeight
p1396
(dp1397
g3
F-0.008662272497424958
sba(innWeight
NNWeight
p1398
(dp1399
g3
F-0.03959123775956697
sba(innWeight
NNWeight
p1400
(dp1401
g3
F0.05536585444143307
sba(innWeight
NNWeight
p1402
(dp1403
g3
F-0.009849244041614219
sba(innWeight
NNWeight
p1404
(dp1405
g3
F0.015961309910774064
sba(innWeight
NNWeight
p1406
(dp1407
g3
F-0.002215926073012842
sba(innWeight
NNWeight
p1408
(dp1409
g3
F-0.0008657719473488829
sba(innWeight
NNWeight
p1410
(dp1411
g3
F-0.0282343521013233
sba(innWeight
NNWeight
p1412
(dp1413
g3
F0.03451172268724088
sba(innWeight
NNWeight
p1414
(dp1415
g3
F0.005280725697551693
sba(innWeight
NNWeight
p1416
(dp1417
g3
F-0.05703702855194564
sba(innWeight
NNWeight
p1418
(dp1419
g3
F-0.04200371665199547
sba(innWeight
NNWeight
p1420
(dp1421
g3
F0.011317180926995601
sba(innWeight
NNWeight
p1422
(dp1423
g3
F0.012244012596824574
sba(innWeight
NNWeight
p1424
(dp1425
g3
F0.0325402139860554
sba(innWeight
NNWeight
p1426
(dp1427
g3
F0.03036290208305939
sba(innWeight
NNWeight
p1428
(dp1429
g3
F-0.03012854671581351
sba(innWeight
NNWeight
p1430
(dp1431
g3
F-0.042091237061530305
sba(innWeight
NNWeight
p1432
(dp1433
g3
F0.0039191997210175425
sba(innWeight
NNWeight
p1434
(dp1435
g3
F0.035140667796011056
sba(innWeight
NNWeight
p1436
(dp1437
g3
F0.04199637423953307
sba(innWeight
NNWeight
p1438
(dp1439
g3
F-0.02441999736883798
sba(innWeight
NNWeight
p1440
(dp1441
g3
F0.002973879886091472
sba(innWeight
NNWeight
p1442
(dp1443
g3
F0.03827010490403944
sba(innWeight
NNWeight
p1444
(dp1445
g3
F-0.010193989249801484
sba(innWeight
NNWeight
p1446
(dp1447
g3
F0.04408735764610224
sba(innWeight
NNWeight
p1448
(dp1449
g3
F-0.005666145033026388
sba(innWeight
NNWeight
p1450
(dp1451
g3
F-0.040403896095394326
sba(innWeight
NNWeight
p1452
(dp1453
g3
F-0.0286926342242042
sba(innWeight
NNWeight
p1454
(dp1455
g3
F-0.010307080779249744
sba(innWeight
NNWeight
p1456
(dp1457
g3
F-0.01981200803153279
sba(innWeight
NNWeight
p1458
(dp1459
g3
F0.04977821315413761
sba(innWeight
NNWeight
p1460
(dp1461
g3
F-0.05423735515923314
sba(innWeight
NNWeight
p1462
(dp1463
g3
F-0.033730697521775786
sba(innWeight
NNWeight
p1464
(dp1465
g3
F0.02206144589036791
sba(innWeight
NNWeight
p1466
(dp1467
g3
F0.01975622808248579
sba(innWeight
NNWeight
p1468
(dp1469
g3
F-0.05396399449837874
sba(innWeight
NNWeight
p1470
(dp1471
g3
F0.012238983824684005
sba(innWeight
NNWeight
p1472
(dp1473
g3
F-0.04272443755085934
sba(innWeight
NNWeight
p1474
(dp1475
g3
F0.02116309073292671
sba(innWeight
NNWeight
p1476
(dp1477
g3
F-0.04884620177518487
sba(innWeight
NNWeight
p1478
(dp1479
g3
F-0.05484793825122366
sba(innWeight
NNWeight
p1480
(dp1481
g3
F0.050587492602002584
sba(innWeight
NNWeight
p1482
(dp1483
g3
F0.025620283042261337
sba(innWeight
NNWeight
p1484
(dp1485
g3
F0.0035209925241536616
sba(innWeight
NNWeight
p1486
(dp1487
g3
F0.007756021217163731
sba(innWeight
NNWeight
p1488
(dp1489
g3
F-0.03980485326330157
sba(innWeight
NNWeight
p1490
(dp1491
g3
F0.03366196228014203
sba(innWeight
NNWeight
p1492
(dp1493
g3
F0.03653440133092418
sba(innWeight
NNWeight
p1494
(dp1495
g3
F-0.008997780052811532
sba(innWeight
NNWeight
p1496
(dp1497
g3
F0.0448734098120191
sba(innWeight
NNWeight
p1498
(dp1499
g3
F-0.00775518917287311
sba(innWeight
NNWeight
p1500
(dp1501
g3
F0.004189779442971942
sba(innWeight
NNWeight
p1502
(dp1503
g3
F-0.008625129242458344
sba(innWeight
NNWeight
p1504
(dp1505
g3
F-0.029907286226875676
sba(innWeight
NNWeight
p1506
(dp1507
g3
F0.017802869240243567
sba(innWeight
NNWeight
p1508
(dp1509
g3
F0.0227806684409098
sba(innWeight
NNWeight
p1510
(dp1511
g3
F-0.052555262235495843
sba(innWeight
NNWeight
p1512
(dp1513
g3
F-0.009206223369605795
sba(innWeight
NNWeight
p1514
(dp1515
g3
F0.01832725783332024
sba(innWeight
NNWeight
p1516
(dp1517
g3
F-0.02604889844083529
sba(innWeight
NNWeight
p1518
(dp1519
g3
F-0.011144330471553795
sba(innWeight
NNWeight
p1520
(dp1521
g3
F-0.008326647224924705
sba(innWeight
NNWeight
p1522
(dp1523
g3
F0.011127946807408863
sba(innWeight
NNWeight
p1524
(dp1525
g3
F0.04873145672467628
sba(innWeight
NNWeight
p1526
(dp1527
g3
F0.04101350373791175
sba(innWeight
NNWeight
p1528
(dp1529
g3
F-0.04095237988283195
sba(innWeight
NNWeight
p1530
(dp1531
g3
F0.0050495027665047685
sba(innWeight
NNWeight
p1532
(dp1533
g3
F-0.023782435283847922
sba(innWeight
NNWeight
p1534
(dp1535
g3
F-0.039611076291894955
sba(innWeight
NNWeight
p1536
(dp1537
g3
F-0.017961892680630878
sba(innWeight
NNWeight
p1538
(dp1539
g3
F-0.0018418916549416053
sba(innWeight
NNWeight
p1540
(dp1541
g3
F0.04744949694376464
sba(innWeight
NNWeight
p1542
(dp1543
g3
F-0.007452914661293671
sba(innWeight
NNWeight
p1544
(dp1545
g3
F0.016980536821518996
sba(innWeight
NNWeight
p1546
(dp1547
g3
F0.029923840401319745
sba(innWeight
NNWeight
p1548
(dp1549
g3
F-0.021535687530421923
sba(innWeight
NNWeight
p1550
(dp1551
g3
F0.03931601004965911
sba(innWeight
NNWeight
p1552
(dp1553
g3
F-0.04911079319059727
sba(innWeight
NNWeight
p1554
(dp1555
g3
F0.039919830673592095
sba(innWeight
NNWeight
p1556
(dp1557
g3
F0.00023006185619682003
sba(innWeight
NNWeight
p1558
(dp1559
g3
F0.0408899937934709
sba(innWeight
NNWeight
p1560
(dp1561
g3
F-0.010615996688829819
sba(innWeight
NNWeight
p1562
(dp1563
g3
F-0.03593933667416886
sba(innWeight
NNWeight
p1564
(dp1565
g3
F-0.012790709794104115
sba(innWeight
NNWeight
p1566
(dp1567
g3
F-0.013079278850488403
sba(innWeight
NNWeight
p1568
(dp1569
g3
F0.026367516047144025
sba(innWeight
NNWeight
p1570
(dp1571
g3
F0.04345833625363246
sba(innWeight
NNWeight
p1572
(dp1573
g3
F-0.04923973534289285
sba(innWeight
NNWeight
p1574
(dp1575
g3
F0.045297985695650536
sba(innWeight
NNWeight
p1576
(dp1577
g3
F-0.012381844973208286
sba(innWeight
NNWeight
p1578
(dp1579
g3
F0.030061737925969646
sba(innWeight
NNWeight
p1580
(dp1581
g3
F-0.011494737975988097
sba(innWeight
NNWeight
p1582
(dp1583
g3
F0.011149779443534878
sba(innWeight
NNWeight
p1584
(dp1585
g3
F0.030694274911499127
sba(innWeight
NNWeight
p1586
(dp1587
g3
F-0.00222467787547043
sba(innWeight
NNWeight
p1588
(dp1589
g3
F0.023549590350631838
sba(innWeight
NNWeight
p1590
(dp1591
g3
F0.014467238574284159
sba(innWeight
NNWeight
p1592
(dp1593
g3
F0.04263200029134783
sba(innWeight
NNWeight
p1594
(dp1595
g3
F-0.00041939751336875794
sba(innWeight
NNWeight
p1596
(dp1597
g3
F-0.02608135037771661
sba(innWeight
NNWeight
p1598
(dp1599
g3
F0.03339803869454645
sba(innWeight
NNWeight
p1600
(dp1601
g3
F-0.0031169651174491955
sba(innWeight
NNWeight
p1602
(dp1603
g3
F-0.021239845681885663
sba(innWeight
NNWeight
p1604
(dp1605
g3
F-0.012117322850949172
sba(innWeight
NNWeight
p1606
(dp1607
g3
F-0.019535544930968218
sba(innWeight
NNWeight
p1608
(dp1609
g3
F-0.04426796165046514
sba(innWeight
NNWeight
p1610
(dp1611
g3
F-0.0032285034002066735
sba(innWeight
NNWeight
p1612
(dp1613
g3
F-0.006919859866295795
sba(innWeight
NNWeight
p1614
(dp1615
g3
F-0.04418429574876641
sba(innWeight
NNWeight
p1616
(dp1617
g3
F0.012552648179989776
sba(innWeight
NNWeight
p1618
(dp1619
g3
F-0.03190571091873977
sba(innWeight
NNWeight
p1620
(dp1621
g3
F-0.04119346923508866
sba(innWeight
NNWeight
p1622
(dp1623
g3
F0.05973206826603873
sba(innWeight
NNWeight
p1624
(dp1625
g3
F0.027736236368723816
sba(innWeight
NNWeight
p1626
(dp1627
g3
F0.01817953776028853
sba(innWeight
NNWeight
p1628
(dp1629
g3
F-0.0072747348957961835
sba(innWeight
NNWeight
p1630
(dp1631
g3
F-0.0022814659209704023
sba(innWeight
NNWeight
p1632
(dp1633
g3
F-0.04898059266998663
sba(innWeight
NNWeight
p1634
(dp1635
g3
F-0.05489189306470695
sba(innWeight
NNWeight
p1636
(dp1637
g3
F0.05074419583935193
sba(innWeight
NNWeight
p1638
(dp1639
g3
F0.038769698991950804
sba(innWeight
NNWeight
p1640
(dp1641
g3
F-0.025173508474580053
sba(innWeight
NNWeight
p1642
(dp1643
g3
F-0.009270393528449722
sba(innWeight
NNWeight
p1644
(dp1645
g3
F-0.018350014289971725
sba(innWeight
NNWeight
p1646
(dp1647
g3
F-0.040309457104701615
sba(innWeight
NNWeight
p1648
(dp1649
g3
F0.001692345213043414
sba(innWeight
NNWeight
p1650
(dp1651
g3
F-0.019072142117274135
sba(innWeight
NNWeight
p1652
(dp1653
g3
F-0.014264708280811961
sba(innWeight
NNWeight
p1654
(dp1655
g3
F0.028149949371541416
sba(innWeight
NNWeight
p1656
(dp1657
g3
F-0.0552804776997219
sba(innWeight
NNWeight
p1658
(dp1659
g3
F-0.0550581646410308
sba(innWeight
NNWeight
p1660
(dp1661
g3
F-0.025561758718139215
sba(innWeight
NNWeight
p1662
(dp1663
g3
F-0.05641074166361117
sba(innWeight
NNWeight
p1664
(dp1665
g3
F0.01788718610328664
sba(innWeight
NNWeight
p1666
(dp1667
g3
F0.019581456707565913
sba(innWeight
NNWeight
p1668
(dp1669
g3
F0.04980760167833877
sba(innWeight
NNWeight
p1670
(dp1671
g3
F-0.030993442135265708
sba(innWeight
NNWeight
p1672
(dp1673
g3
F0.005160889067563143
sba(innWeight
NNWeight
p1674
(dp1675
g3
F-0.04782566446576756
sba(innWeight
NNWeight
p1676
(dp1677
g3
F0.017757155189760027
sba(innWeight
NNWeight
p1678
(dp1679
g3
F0.01673201467918748
sba(innWeight
NNWeight
p1680
(dp1681
g3
F0.0094706719051365
sba(innWeight
NNWeight
p1682
(dp1683
g3
F0.0431333448052201
sba(innWeight
NNWeight
p1684
(dp1685
g3
F-0.04119574085339261
sba(innWeight
NNWeight
p1686
(dp1687
g3
F0.011681621452697973
sba(innWeight
NNWeight
p1688
(dp1689
g3
F0.010404523231792726
sba(innWeight
NNWeight
p1690
(dp1691
g3
F-0.028515468726829904
sba(innWeight
NNWeight
p1692
(dp1693
g3
F0.013417600897198853
sba(innWeight
NNWeight
p1694
(dp1695
g3
F-0.03903024112119601
sba(innWeight
NNWeight
p1696
(dp1697
g3
F0.023426280218980734
sba(innWeight
NNWeight
p1698
(dp1699
g3
F0.0013894147466453574
sba(innWeight
NNWeight
p1700
(dp1701
g3
F-0.017581135827660434
sba(innWeight
NNWeight
p1702
(dp1703
g3
F-0.027433852640387012
sba(innWeight
NNWeight
p1704
(dp1705
g3
F-0.02842516190374735
sba(innWeight
NNWeight
p1706
(dp1707
g3
F-0.025227482433105648
sba(innWeight
NNWeight
p1708
(dp1709
g3
F-0.024713195704911595
sba(innWeight
NNWeight
p1710
(dp1711
g3
F0.009672450590074164
sba(innWeight
NNWeight
p1712
(dp1713
g3
F-0.016495967063252744
sba(innWeight
NNWeight
p1714
(dp1715
g3
F0.021200669750505507
sba(innWeight
NNWeight
p1716
(dp1717
g3
F-0.010707504827225477
sba(innWeight
NNWeight
p1718
(dp1719
g3
F-0.03087792352296164
sba(innWeight
NNWeight
p1720
(dp1721
g3
F-0.016747697824776198
sba(innWeight
NNWeight
p1722
(dp1723
g3
F-0.039485483035454114
sba(innWeight
NNWeight
p1724
(dp1725
g3
F0.01681543228551658
sba(innWeight
NNWeight
p1726
(dp1727
g3
F0.0052515675065295565
sba(innWeight
NNWeight
p1728
(dp1729
g3
F-0.035080409557658954
sba(innWeight
NNWeight
p1730
(dp1731
g3
F0.028467437431769382
sba(innWeight
NNWeight
p1732
(dp1733
g3
F-0.013175694490409087
sba(innWeight
NNWeight
p1734
(dp1735
g3
F0.03044384160604036
sba(innWeight
NNWeight
p1736
(dp1737
g3
F-0.033854889178323654
sba(innWeight
NNWeight
p1738
(dp1739
g3
F-0.02055047113490759
sba(innWeight
NNWeight
p1740
(dp1741
g3
F-0.01797968704960582
sba(innWeight
NNWeight
p1742
(dp1743
g3
F-0.014732064195476607
sba(innWeight
NNWeight
p1744
(dp1745
g3
F0.03882000474931087
sba(innWeight
NNWeight
p1746
(dp1747
g3
F-0.024827139274392823
sba(innWeight
NNWeight
p1748
(dp1749
g3
F-0.001007580035122905
sba(innWeight
NNWeight
p1750
(dp1751
g3
F0.01364723400512472
sba(innWeight
NNWeight
p1752
(dp1753
g3
F0.007923592955497088
sba(innWeight
NNWeight
p1754
(dp1755
g3
F0.004293854171133784
sba(innWeight
NNWeight
p1756
(dp1757
g3
F-0.002898679853612729
sba(innWeight
NNWeight
p1758
(dp1759
g3
F-0.025054902180153764
sba(innWeight
NNWeight
p1760
(dp1761
g3
F-0.049269562481122325
sba(innWeight
NNWeight
p1762
(dp1763
g3
F-0.022536845267335126
sba(innWeight
NNWeight
p1764
(dp1765
g3
F-0.059024585792346256
sba(innWeight
NNWeight
p1766
(dp1767
g3
F0.005543331553524951
sba(innWeight
NNWeight
p1768
(dp1769
g3
F0.006474753131816478
sba(innWeight
NNWeight
p1770
(dp1771
g3
F0.028385209050894294
sba(innWeight
NNWeight
p1772
(dp1773
g3
F-0.04710074130019729
sba(innWeight
NNWeight
p1774
(dp1775
g3
F-0.009591159751007466
sba(innWeight
NNWeight
p1776
(dp1777
g3
F-0.020817066962244158
sba(innWeight
NNWeight
p1778
(dp1779
g3
F0.02749244044659431
sba(innWeight
NNWeight
p1780
(dp1781
g3
F-0.04018341428940565
sba(innWeight
NNWeight
p1782
(dp1783
g3
F-0.05284006137754933
sba(innWeight
NNWeight
p1784
(dp1785
g3
F0.0007888286700076127
sba(innWeight
NNWeight
p1786
(dp1787
g3
F-0.003327761430748082
sba(innWeight
NNWeight
p1788
(dp1789
g3
F0.02168998919559092
sba(innWeight
NNWeight
p1790
(dp1791
g3
F0.0014047986597188816
sba(innWeight
NNWeight
p1792
(dp1793
g3
F-0.017175647631180756
sba(innWeight
NNWeight
p1794
(dp1795
g3
F0.02314049595091075
sba(innWeight
NNWeight
p1796
(dp1797
g3
F0.01635139283621186
sba(innWeight
NNWeight
p1798
(dp1799
g3
F0.043505229248217425
sba(innWeight
NNWeight
p1800
(dp1801
g3
F0.033408185138736696
sba(innWeight
NNWeight
p1802
(dp1803
g3
F0.008347898475518289
sba(innWeight
NNWeight
p1804
(dp1805
g3
F-0.02741322604178191
sba(innWeight
NNWeight
p1806
(dp1807
g3
F-0.04754117590739454
sba(innWeight
NNWeight
p1808
(dp1809
g3
F0.02682928365346248
sba(innWeight
NNWeight
p1810
(dp1811
g3
F0.02827400403843116
sba(innWeight
NNWeight
p1812
(dp1813
g3
F0.034836969509596374
sba(innWeight
NNWeight
p1814
(dp1815
g3
F-0.03573563140075434
sba(innWeight
NNWeight
p1816
(dp1817
g3
F0.02012827841385861
sba(innWeight
NNWeight
p1818
(dp1819
g3
F-0.0016036361392580605
sba(innWeight
NNWeight
p1820
(dp1821
g3
F-0.0433857742883499
sba(innWeight
NNWeight
p1822
(dp1823
g3
F-0.00607711186368412
sba(innWeight
NNWeight
p1824
(dp1825
g3
F0.05939445151982895
sba(innWeight
NNWeight
p1826
(dp1827
g3
F-0.020250602254248542
sba(innWeight
NNWeight
p1828
(dp1829
g3
F-0.0107876656718364
sba(innWeight
NNWeight
p1830
(dp1831
g3
F0.03213300889812769
sba(innWeight
NNWeight
p1832
(dp1833
g3
F-0.0014030379273990003
sba(innWeight
NNWeight
p1834
(dp1835
g3
F-0.0025571342791512706
sba(innWeight
NNWeight
p1836
(dp1837
g3
F-0.01071417501126138
sba(innWeight
NNWeight
p1838
(dp1839
g3
F0.04661789514231242
sba(innWeight
NNWeight
p1840
(dp1841
g3
F-0.025760211613811028
sba(innWeight
NNWeight
p1842
(dp1843
g3
F-0.008093737244198323
sba(innWeight
NNWeight
p1844
(dp1845
g3
F0.01633788571857132
sba(innWeight
NNWeight
p1846
(dp1847
g3
F-0.01769835787760177
sba(innWeight
NNWeight
p1848
(dp1849
g3
F0.025930612653628213
sba(innWeight
NNWeight
p1850
(dp1851
g3
F0.052271463314313704
sba(innWeight
NNWeight
p1852
(dp1853
g3
F-0.020644119167850493
sba(innWeight
NNWeight
p1854
(dp1855
g3
F-0.04577322023673103
sba(innWeight
NNWeight
p1856
(dp1857
g3
F-0.008728157256406733
sba(innWeight
NNWeight
p1858
(dp1859
g3
F-0.03531117685330117
sba(innWeight
NNWeight
p1860
(dp1861
g3
F-0.04000826829735329
sba(innWeight
NNWeight
p1862
(dp1863
g3
F0.04692082750265969
sba(innWeight
NNWeight
p1864
(dp1865
g3
F-0.024428516242340798
sba(innWeight
NNWeight
p1866
(dp1867
g3
F-0.025562145478748976
sba(innWeight
NNWeight
p1868
(dp1869
g3
F0.055793426569934544
sba(innWeight
NNWeight
p1870
(dp1871
g3
F-0.01024302443220549
sba(innWeight
NNWeight
p1872
(dp1873
g3
F0.00764329848517632
sba(innWeight
NNWeight
p1874
(dp1875
g3
F-0.04510055106116951
sba(innWeight
NNWeight
p1876
(dp1877
g3
F-0.00333474858336459
sba(innWeight
NNWeight
p1878
(dp1879
g3
F-0.01510681314177433
sba(innWeight
NNWeight
p1880
(dp1881
g3
F0.02585431043546754
sba(innWeight
NNWeight
p1882
(dp1883
g3
F-0.041141705026599196
sba(innWeight
NNWeight
p1884
(dp1885
g3
F0.030087287314071474
sba(innWeight
NNWeight
p1886
(dp1887
g3
F-0.030511576205058573
sba(innWeight
NNWeight
p1888
(dp1889
g3
F0.0003554222542562391
sba(innWeight
NNWeight
p1890
(dp1891
g3
F0.0004086453151852802
sba(innWeight
NNWeight
p1892
(dp1893
g3
F0.01161674825154177
sba(innWeight
NNWeight
p1894
(dp1895
g3
F0.016991927510298568
sba(innWeight
NNWeight
p1896
(dp1897
g3
F0.04511361497103273
sba(innWeight
NNWeight
p1898
(dp1899
g3
F-0.007080045507839375
sba(innWeight
NNWeight
p1900
(dp1901
g3
F0.04048897571867154
sba(innWeight
NNWeight
p1902
(dp1903
g3
F-0.04557963560040825
sba(innWeight
NNWeight
p1904
(dp1905
g3
F-0.03171818961376399
sba(innWeight
NNWeight
p1906
(dp1907
g3
F0.021370293196503392
sba(innWeight
NNWeight
p1908
(dp1909
g3
F-0.019507708463400605
sba(innWeight
NNWeight
p1910
(dp1911
g3
F0.02310416754091576
sba(innWeight
NNWeight
p1912
(dp1913
g3
F-0.041280488781992655
sba(innWeight
NNWeight
p1914
(dp1915
g3
F-0.014845389192229691
sba(innWeight
NNWeight
p1916
(dp1917
g3
F0.04403589560732606
sba(innWeight
NNWeight
p1918
(dp1919
g3
F-0.01663373818766085
sba(innWeight
NNWeight
p1920
(dp1921
g3
F-0.013210028904965695
sba(innWeight
NNWeight
p1922
(dp1923
g3
F0.004562585581446479
sba(innWeight
NNWeight
p1924
(dp1925
g3
F0.007237092123827254
sba(innWeight
NNWeight
p1926
(dp1927
g3
F0.014644484452644173
sba(innWeight
NNWeight
p1928
(dp1929
g3
F0.03891824805708384
sba(innWeight
NNWeight
p1930
(dp1931
g3
F0.01022102016147045
sba(innWeight
NNWeight
p1932
(dp1933
g3
F0.012024214012866453
sba(innWeight
NNWeight
p1934
(dp1935
g3
F0.0027887957898644687
sba(innWeight
NNWeight
p1936
(dp1937
g3
F-0.03798575025734301
sba(innWeight
NNWeight
p1938
(dp1939
g3
F0.0061015484019389605
sba(innWeight
NNWeight
p1940
(dp1941
g3
F0.018746401871107495
sba(innWeight
NNWeight
p1942
(dp1943
g3
F-0.024855917424993004
sba(innWeight
NNWeight
p1944
(dp1945
g3
F0.019684052781070025
sba(innWeight
NNWeight
p1946
(dp1947
g3
F0.008905258340246141
sba(innWeight
NNWeight
p1948
(dp1949
g3
F0.030040233682235448
sba(innWeight
NNWeight
p1950
(dp1951
g3
F-0.03870303376792974
sba(innWeight
NNWeight
p1952
(dp1953
g3
F-0.044743695372057565
sba(innWeight
NNWeight
p1954
(dp1955
g3
F-0.021217368749675714
sba(innWeight
NNWeight
p1956
(dp1957
g3
F-0.04517750855493935
sba(innWeight
NNWeight
p1958
(dp1959
g3
F0.014268022882070333
sba(innWeight
NNWeight
p1960
(dp1961
g3
F0.028923138466441106
sba(innWeight
NNWeight
p1962
(dp1963
g3
F-0.006754689694521938
sba(innWeight
NNWeight
p1964
(dp1965
g3
F0.004711819142257282
sba(innWeight
NNWeight
p1966
(dp1967
g3
F-0.03078989202264111
sba(innWeight
NNWeight
p1968
(dp1969
g3
F-0.027463433824502233
sba(innWeight
NNWeight
p1970
(dp1971
g3
F0.012341230453468025
sba(innWeight
NNWeight
p1972
(dp1973
g3
F-0.03790606754357296
sba(innWeight
NNWeight
p1974
(dp1975
g3
F-0.011359430889887542
sba(innWeight
NNWeight
p1976
(dp1977
g3
F-0.020426600127394872
sba(innWeight
NNWeight
p1978
(dp1979
g3
F-0.02631694302727436
sba(innWeight
NNWeight
p1980
(dp1981
g3
F-0.010128196740480539
sba(innWeight
NNWeight
p1982
(dp1983
g3
F-0.032173679218345366
sba(innWeight
NNWeight
p1984
(dp1985
g3
F-0.04962823649087134
sba(innWeight
NNWeight
p1986
(dp1987
g3
F-0.006831690150189053
sba(innWeight
NNWeight
p1988
(dp1989
g3
F-0.053145651517878194
sba(innWeight
NNWeight
p1990
(dp1991
g3
F0.01153329273655317
sba(innWeight
NNWeight
p1992
(dp1993
g3
F0.04021389014872891
sba(innWeight
NNWeight
p1994
(dp1995
g3
F0.020977645950906988
sba(innWeight
NNWeight
p1996
(dp1997
g3
F-0.016333506429133345
sba(innWeight
NNWeight
p1998
(dp1999
g3
F-0.023808672642955747
sba(innWeight
NNWeight
p2000
(dp2001
g3
F-0.03643473391548828
sba(innWeight
NNWeight
p2002
(dp2003
g3
F-0.023304612324621807
sba(innWeight
NNWeight
p2004
(dp2005
g3
F0.0011954723205270202
sba(innWeight
NNWeight
p2006
(dp2007
g3
F0.050150362716153106
sba(innWeight
NNWeight
p2008
(dp2009
g3
F-0.024644525087470507
sba(innWeight
NNWeight
p2010
(dp2011
g3
F-0.03826234279867632
sba(innWeight
NNWeight
p2012
(dp2013
g3
F0.015099428740262889
sba(innWeight
NNWeight
p2014
(dp2015
g3
F0.04063626478998587
sba(innWeight
NNWeight
p2016
(dp2017
g3
F0.026172148634507564
sba(innWeight
NNWeight
p2018
(dp2019
g3
F-0.008891667572834808
sba(innWeight
NNWeight
p2020
(dp2021
g3
F0.038593110747575085
sba.