(lp0
(innWeight
NNWeight
p1
(dp2
S'val'
p3
I0
sba(innWeight
NNWeight
p4
(dp5
g3
I1
sba(innWeight
NNWeight
p6
(dp7
g3
I2
sba(innWeight
NNWeight
p8
(dp9
g3
I3
sba(innWeight
NNWeight
p10
(dp11
g3
I4
sba(innWeight
NNWeight
p12
(dp13
g3
I5
sba(innWeight
NNWeight
p14
(dp15
g3
I6
sba(innWeight
NNWeight
p16
(dp17
g3
I7
sba(innWeight
NNWeight
p18
(dp19
g3
I8
sba(innWeight
NNWeight
p20
(dp21
g3
I9
sba.